

Microchip MPLAB XC8 Assembler V2.46 build 20240104201356 
                                                                                               Wed Aug 28 17:33:43 2024

Microchip MPLAB XC8 C Compiler v2.46 (Free license) build 20240104201356 Og1 
     1                           	processor	18F46K20
     2                           	fnconf	rparam,??,?,0
     3                           	pagewidth 120
     4                           	opt	flic
     5                           	psect	idataCOMRAM,global,class=CODE,delta=1,noexec
     6                           	psect	idataBANK0,global,class=CODE,delta=1,noexec
     7                           	psect	idataBANK1,global,class=CODE,delta=1,noexec
     8                           	psect	mediumconst,global,reloc=2,class=MEDIUMCONST,delta=1,noexec
     9                           	psect	nvBANK1,global,class=BANK1,space=1,delta=1,lowdata,noexec
    10                           	psect	cinit,global,reloc=2,class=CODE,delta=1
    11                           	psect	bssCOMRAM,global,class=COMRAM,space=1,delta=1,lowdata,noexec
    12                           	psect	dataCOMRAM,global,class=COMRAM,space=1,delta=1,lowdata,noexec
    13                           	psect	bssBANK0,global,class=BANK0,space=1,delta=1,lowdata,noexec
    14                           	psect	dataBANK0,global,class=BANK0,space=1,delta=1,lowdata,noexec
    15                           	psect	bssBANK1,global,class=BANK1,space=1,delta=1,lowdata,noexec
    16                           	psect	dataBANK1,global,class=BANK1,space=1,delta=1,lowdata,noexec
    17                           	psect	cstackBANK1,global,class=BANK1,space=1,delta=1,lowdata,noexec
    18                           	psect	cstackCOMRAM,global,class=COMRAM,space=1,delta=1,lowdata,noexec
    19                           	psect	text0,global,reloc=2,class=CODE,delta=1
    20                           	psect	text1,global,reloc=2,class=CODE,delta=1
    21                           	psect	text2,global,reloc=2,class=CODE,delta=1
    22                           	psect	text3,global,reloc=2,class=CODE,delta=1
    23                           	psect	text4,global,reloc=2,class=CODE,delta=1
    24                           	psect	text5,global,reloc=2,class=CODE,delta=1
    25                           	psect	text6,global,reloc=2,class=CODE,delta=1
    26                           	psect	text7,global,reloc=2,class=CODE,delta=1
    27                           	psect	text8,global,reloc=2,class=CODE,delta=1
    28                           	psect	text9,global,reloc=2,class=CODE,delta=1
    29                           	psect	text10,global,reloc=2,class=CODE,delta=1
    30                           	psect	text11,global,reloc=2,class=CODE,delta=1
    31                           	psect	text12,global,reloc=2,class=CODE,delta=1
    32                           	psect	text13,global,reloc=2,class=CODE,delta=1
    33                           	psect	text14,global,reloc=2,class=CODE,delta=1
    34                           	psect	text15,global,reloc=2,class=CODE,delta=1
    35                           	psect	text16,global,reloc=2,class=CODE,delta=1,group=3
    36                           	psect	text17,global,reloc=2,class=CODE,delta=1,group=1
    37                           	psect	text18,global,reloc=2,class=CODE,delta=1,group=1
    38                           	psect	text19,global,reloc=2,class=CODE,delta=1,group=3
    39                           	psect	text20,global,reloc=2,class=CODE,delta=1,group=3
    40                           	psect	text21,global,reloc=2,class=CODE,delta=1,group=3
    41                           	psect	text22,global,reloc=2,class=CODE,delta=1,group=2
    42                           	psect	text23,global,reloc=2,class=CODE,delta=1,group=2
    43                           	psect	text24,global,reloc=2,class=CODE,delta=1,group=3
    44                           	psect	text25,global,reloc=2,class=CODE,delta=1
    45                           	psect	text26,global,reloc=2,class=CODE,delta=1
    46                           	psect	text27,global,reloc=2,class=CODE,delta=1
    47                           	psect	text28,global,reloc=2,class=CODE,delta=1,group=2
    48                           	psect	text29,global,reloc=2,class=CODE,delta=1,group=2
    49                           	psect	text30,global,reloc=2,class=CODE,delta=1
    50                           	psect	text31,global,reloc=2,class=CODE,delta=1
    51                           	psect	text32,global,reloc=2,class=CODE,delta=1
    52                           	psect	text33,global,reloc=2,class=CODE,delta=1
    53                           	psect	text34,global,reloc=2,class=CODE,delta=1
    54                           	psect	text35,global,reloc=2,class=CODE,delta=1
    55                           	psect	text36,global,reloc=2,class=CODE,delta=1
    56                           	psect	text37,global,reloc=2,class=CODE,delta=1
    57                           	psect	text38,global,reloc=2,class=CODE,delta=1
    58                           	psect	text39,global,reloc=2,class=CODE,delta=1
    59                           	psect	text40,global,reloc=2,class=CODE,delta=1
    60                           	psect	text41,global,reloc=2,class=CODE,delta=1
    61                           	psect	text42,global,reloc=2,class=CODE,delta=1
    62                           	psect	text43,global,reloc=2,class=CODE,delta=1
    63                           	psect	text44,global,reloc=2,class=CODE,delta=1
    64                           	psect	text45,global,reloc=2,class=CODE,delta=1
    65                           	psect	text46,global,reloc=2,class=CODE,delta=1
    66                           	psect	text47,global,reloc=2,class=CODE,delta=1
    67                           	psect	text48,global,reloc=2,class=CODE,delta=1
    68                           	psect	text49,global,reloc=2,class=CODE,delta=1
    69                           	psect	text50,global,reloc=2,class=CODE,delta=1
    70                           	psect	text51,global,reloc=2,class=CODE,delta=1
    71                           	psect	text52,global,reloc=2,class=CODE,delta=1,inline
    72                           	psect	text53,global,reloc=2,class=CODE,delta=1,inline
    73                           	psect	text54,global,reloc=2,class=CODE,delta=1,inline
    74                           	psect	text55,global,reloc=2,class=CODE,delta=1,group=2
    75                           	psect	text56,global,reloc=2,class=CODE,delta=1,group=2
    76                           	psect	text57,global,reloc=2,class=CODE,delta=1,group=2
    77                           	psect	text58,global,reloc=2,class=CODE,delta=1,group=2
    78                           	psect	intcodelo,global,reloc=2,class=CODE,delta=1
    79                           	psect	text60,global,reloc=2,class=CODE,delta=1
    80                           	psect	intcode,global,reloc=2,class=CODE,delta=1
    81                           	psect	intcode_body,global,reloc=2,class=CODE,delta=1
    82                           	psect	text62,global,reloc=2,class=CODE,delta=1
    83                           	psect	intsave_regs,global,class=BIGRAM,space=1,delta=1,noexec
    84                           	psect	rparam,global,class=COMRAM,space=1,delta=1,noexec
    85                           	psect	temp,global,ovrld,common,class=COMRAM,space=1,delta=1,lowdata
    86                           	psect	config,global,abs,ovrld,class=CONFIG,space=4,delta=1,noexec
    87   000000                     
    88                           ; Generated 12/10/2023 GMT
    89                           ; 
    90                           ; Copyright © 2023, Microchip Technology Inc. and its subsidiaries ("Microchip")
    91                           ; All rights reserved.
    92                           ; 
    93                           ; This software is developed by Microchip Technology Inc. and its subsidiaries ("Microch
      +                          ip").
    94                           ; 
    95                           ; Redistribution and use in source and binary forms, with or without modification, are
    96                           ; permitted provided that the following conditions are met:
    97                           ; 
    98                           ;     1. Redistributions of source code must retain the above copyright notice, this lis
      +                          t of
    99                           ;        conditions and the following disclaimer.
   100                           ; 
   101                           ;     2. Redistributions in binary form must reproduce the above copyright notice, this 
      +                          list
   102                           ;        of conditions and the following disclaimer in the documentation and/or other
   103                           ;        materials provided with the distribution. Publication is not required when
   104                           ;        this file is used in an embedded application.
   105                           ; 
   106                           ;     3. Microchip's name may not be used to endorse or promote products derived from th
      +                          is
   107                           ;        software without specific prior written permission.
   108                           ; 
   109                           ; THIS SOFTWARE IS PROVIDED BY MICROCHIP "AS IS" AND ANY EXPRESS OR IMPLIED WARRANTIES,
   110                           ; INCLUDING, BUT NOT LIMITED TO, THE IMPLIED WARRANTIES OF MERCHANTABILITY AND FITNESS F
      +                          OR
   111                           ; PURPOSE ARE DISCLAIMED.  IN NO EVENT SHALL MICROCHIP BE LIABLE FOR ANY DIRECT, INDIREC
      +                          T,
   112                           ; INCIDENTAL, SPECIAL, EXEMPLARY, OR CONSEQUENTIAL DAMAGES (INCLUDING BUT NOT LIMITED TO
   113                           ; PROCUREMENT OF SUBSTITUTE GOODS OR SERVICES; LOSS OF USE, DATA OR PROFITS; OR BUSINESS
   114                           ; INTERRUPTION) HOWSOEVER CAUSED AND ON ANY THEORY OF LIABILITY, WHETHER IN CONTRACT, ST
      +                          RICT
   115                           ; LIABILITY, OR TORT (INCLUDING NEGLIGENCE OR OTHERWISE) ARISING IN ANY WAY OUT OF THE U
      +                          SE OF
   116                           ; THIS SOFTWARE, EVEN IF ADVISED OF THE POSSIBILITY OF SUCH DAMAGE.
   117                           ; 
   118                           ; 
   119                           ; Code-generator required, PIC18F46K20 Definitions
   120                           ; 
   121                           ; SFR Addresses
   122   000000                     
   123 ;; Function _rd1RegCompleteHandler is unused but had its address taken
   124   000000                     
   125 ;; Function _rd2RegCompleteHandler is unused but had its address taken
   126   000000                     
   127 ;; Function _wr1RegCompleteHandler is unused but had its address taken
   128   000000                     
   129 ;; Function _wr2RegCompleteHandler is unused but had its address taken
   130   000000                     
   131 ;; Function _rdBlkRegCompleteHandler is unused but had its address taken
   132   000000                     
   133 ;; Function _EUSART_DefaultFramingErrorHandler is unused but had its address taken
   134   000000                     
   135 ;; Function _EUSART_DefaultOverrunErrorHandler is unused but had its address taken
   136   000000                     
   137 ;; Function _EUSART_DefaultErrorHandler is unused but had its address taken
   138   000000                     
   139 ;; Function _I2C_DO_IDLE is unused but had its address taken
   140   000000                     
   141 ;; Function _I2C_DO_SEND_ADR_READ is unused but had its address taken
   142   000000                     
   143 ;; Function _I2C_DO_SEND_ADR_WRITE is unused but had its address taken
   144   000000                     
   145 ;; Function _I2C_DO_TX is unused but had its address taken
   146   000000                     
   147 ;; Function _I2C_DO_RX is unused but had its address taken
   148   000000                     
   149 ;; Function _I2C_DO_RCEN is unused but had its address taken
   150   000000                     
   151 ;; Function _I2C_DO_TX_EMPTY is unused but had its address taken
   152   000000                     
   153 ;; Function _I2C_DO_SEND_RESTART_READ is unused but had its address taken
   154   000000                     
   155 ;; Function _I2C_DO_SEND_RESTART_WRITE is unused but had its address taken
   156   000000                     
   157 ;; Function _I2C_DO_SEND_RESTART is unused but had its address taken
   158   000000                     
   159 ;; Function _I2C_DO_SEND_STOP is unused but had its address taken
   160   000000                     
   161 ;; Function _I2C_DO_RX_ACK is unused but had its address taken
   162   000000                     
   163 ;; Function _I2C_DO_RX_NACK_STOP is unused but had its address taken
   164   000000                     
   165 ;; Function _I2C_DO_RX_NACK_RESTART is unused but had its address taken
   166   000000                     
   167 ;; Function _I2C_DO_RESET is unused but had its address taken
   168   000000                     
   169 ;; Function _I2C_DO_ADDRESS_NACK is unused but had its address taken
   170   000000                     
   171 ;; Function _I2C_CallbackReturnStop is unused but had its address taken
   172   000000                     
   173 ;; Function _I2C_CallbackReturnReset is unused but had its address taken
   174   000000                     
   175                           	psect	idataCOMRAM
   176   00365A                     __pidataCOMRAM:
   177                           	callstack 0
   178                           
   179                           ;initializer for _lcd
   180   00365A  93                 	db	147
   181   00365B  9B                 	db	155
   182   00365C  A3                 	db	163
   183   00365D  AB                 	db	171
   184   00365E  83                 	db	131
   185   00365F  8B                 	db	139
   186                           
   187                           ;initializer for _led
   188   003660  02                 	db	2
   189                           
   190                           	psect	idataBANK0
   191   003592                     __pidataBANK0:
   192                           	callstack 0
   193                           
   194                           ;initializer for _lat_reg
   195   003592  89                 	db	137
   196   003593  0F                 	db	15
   197   003594  8A                 	db	138
   198   003595  0F                 	db	15
   199   003596  8B                 	db	139
   200   003597  0F                 	db	15
   201   003598  8C                 	db	140
   202   003599  0F                 	db	15
   203   00359A  8D                 	db	141
   204   00359B  0F                 	db	15
   205                           
   206                           ;initializer for _tris_reg
   207   00359C  92                 	db	146
   208   00359D  0F                 	db	15
   209   00359E  93                 	db	147
   210   00359F  0F                 	db	15
   211   0035A0  94                 	db	148
   212   0035A1  0F                 	db	15
   213   0035A2  95                 	db	149
   214   0035A3  0F                 	db	15
   215   0035A4  96                 	db	150
   216   0035A5  0F                 	db	15
   217                           
   218                           ;initializer for _flag7
   219   0035A6  01                 	db	1
   220                           
   221                           ;initializer for _flag6
   222   0035A7  01                 	db	1
   223                           
   224                           ;initializer for _flag5
   225   0035A8  01                 	db	1
   226                           
   227                           ;initializer for _flag4
   228   0035A9  01                 	db	1
   229                           
   230                           ;initializer for _valid_password
   231   0035AA  FA                 	db	250
   232   0035AB  FA                 	db	250
   233   0035AC  FA                 	db	250
   234   0035AD  FA                 	db	250
   235   0035AE  FA                 	db	250
   236                           
   237                           ;initializer for _motor
   238   0035AF  33                 	db	51
   239   0035B0  3B                 	db	59
   240                           
   241                           	psect	idataBANK1
   242   003628                     __pidataBANK1:
   243                           	callstack 0
   244                           
   245                           ;initializer for _port_reg
   246   003628  80                 	db	128
   247   003629  0F                 	db	15
   248   00362A  81                 	db	129
   249   00362B  0F                 	db	15
   250   00362C  82                 	db	130
   251   00362D  0F                 	db	15
   252   00362E  83                 	db	131
   253   00362F  0F                 	db	15
   254   003630  84                 	db	132
   255   003631  0F                 	db	15
   256                           
   257                           	psect	mediumconst
   258   00FD54                     __pmediumconst:
   259                           	callstack 0
   260   00FD54  00                 	db	0
   261   00FD55                     _i2c_fsmStateTable:
   262                           	callstack 0
   263   00FD55  00                 	db	0
   264   00FD56  00                 	db	0
   265   00FD57  00                 	db	0
   266   00FD58  00                 	db	0
   267   00FD59  00                 	db	0
   268   00FD5A  00                 	db	0
   269   00FD5B  00                 	db	0
   270   00FD5C  00                 	db	0
   271   00FD5D  00                 	db	0
   272   00FD5E  00                 	db	0
   273   00FD5F  00                 	db	0
   274   00FD60  00                 	db	0
   275   00FD61  00                 	db	0
   276   00FD62  00                 	db	0
   277   00FD63  00                 	db	0
   278   00FD64  00                 	db	0
   279   00FD65  00                 	db	0
   280   00FD66  00                 	db	0
   281   00FD67  00                 	db	0
   282   00FD68  00                 	db	0
   283   00FD69  00                 	db	0
   284   00FD6A  00                 	db	0
   285   00FD6B  00                 	db	0
   286   00FD6C  00                 	db	0
   287   00FD6D  00                 	db	0
   288   00FD6E  00                 	db	0
   289   00FD6F  00                 	db	0
   290   00FD70  00                 	db	0
   291   00FD71  00                 	db	0
   292   00FD72  00                 	db	0
   293   00FD73  00                 	db	0
   294   00FD74  00                 	db	0
   295   00FD75                     __end_of_i2c_fsmStateTable:
   296                           	callstack 0
   297   00FD75                     _arr:
   298                           	callstack 0
   299   00FD75  37                 	db	55
   300   00FD76  38                 	db	56
   301   00FD77  39                 	db	57
   302   00FD78  2F                 	db	47
   303   00FD79  34                 	db	52
   304   00FD7A  35                 	db	53
   305   00FD7B  36                 	db	54
   306   00FD7C  2A                 	db	42
   307   00FD7D  31                 	db	49
   308   00FD7E  32                 	db	50
   309   00FD7F  33                 	db	51
   310   00FD80  2D                 	db	45
   311   00FD81  23                 	db	35
   312   00FD82  30                 	db	48
   313   00FD83  3D                 	db	61
   314   00FD84  2B                 	db	43
   315   00FD85                     __end_of_arr:
   316                           	callstack 0
   317   00FD85  0000               	dw	0
   318   00FD87  0000               	dw	0
   319   00FD89  CFDC               	dw	53212
   320   00FD8B  35D1               	dw	13777
   321   00FD8D                     __end_of_dp_l:
   322                           	callstack 0
   323   00FD8D  0000               	dw	0
   324   00FD8F  0000               	dw	0
   325   00FD91  C000               	dw	49152
   326   00FD93  3F15               	dw	16149
   327   00FD95                     __end_of_dp_h:
   328                           	callstack 0
   329   00FD95  0000               	dw	0
   330   00FD97  3F80               	dw	16256
   331   00FD99  0000               	dw	0
   332   00FD9B  3FC0               	dw	16320
   333   00FD9D                     __end_of_bp:
   334                           	callstack 0
   335   00FD9D  A570               	dw	42352
   336   00FD9F  36EC               	dw	14060
   337   00FDA1                     __end_of_ivln2_l:
   338                           	callstack 0
   339   00FDA1  AA3B               	dw	43579
   340   00FDA3  3FB8               	dw	16312
   341   00FDA5                     __end_of_ivln2:
   342                           	callstack 0
   343   00FDA5  384F               	dw	14415
   344   00FDA7  3F76               	dw	16246
   345   00FDA9                     __end_of_cp:
   346                           	callstack 0
   347   00FDA9  AA3C               	dw	43580
   348   00FDAB  3338               	dw	13112
   349   00FDAD                     __end_of_ovt:
   350                           	callstack 0
   351   00FDAD  BE8C               	dw	48780
   352   00FDAF  35BF               	dw	13759
   353   00FDB1                     __end_of_lg2_l:
   354                           	callstack 0
   355   00FDB1  7200               	dw	29184
   356   00FDB3  3F31               	dw	16177
   357   00FDB5                     __end_of_lg2_h:
   358                           	callstack 0
   359   00FDB5  7218               	dw	29208
   360   00FDB7  3F31               	dw	16177
   361   00FDB9                     __end_of_lg2:
   362                           	callstack 0
   363   00FDB9  BB4C               	dw	47948
   364   00FDBB  3331               	dw	13105
   365   00FDBD                     __end_of_P5:
   366                           	callstack 0
   367   00FDBD  EA0E               	dw	59918
   368   00FDBF  B5DD               	dw	46557
   369   00FDC1                     __end_of_P4:
   370                           	callstack 0
   371   00FDC1  B355               	dw	45909
   372   00FDC3  388A               	dw	14474
   373   00FDC5                     __end_of_P3:
   374                           	callstack 0
   375   00FDC5  0B61               	dw	2913
   376   00FDC7  BB36               	dw	47926
   377   00FDC9                     __end_of_P2:
   378                           	callstack 0
   379   00FDC9  AAAB               	dw	43691
   380   00FDCB  3E2A               	dw	15914
   381   00FDCD                     __end_of_P1:
   382                           	callstack 0
   383   00FDCD  F142               	dw	61762
   384   00FDCF  3E53               	dw	15955
   385   00FDD1                     __end_of_L6:
   386                           	callstack 0
   387   00FDD1  3255               	dw	12885
   388   00FDD3  3E6C               	dw	15980
   389   00FDD5                     __end_of_L5:
   390                           	callstack 0
   391   00FDD5  A305               	dw	41733
   392   00FDD7  3E8B               	dw	16011
   393   00FDD9                     __end_of_L4:
   394                           	callstack 0
   395   00FDD9  AAAB               	dw	43691
   396   00FDDB  3EAA               	dw	16042
   397   00FDDD                     __end_of_L3:
   398                           	callstack 0
   399   00FDDD  6DB7               	dw	28087
   400   00FDDF  3EDB               	dw	16091
   401   00FDE1                     __end_of_L2:
   402                           	callstack 0
   403   00FDE1  999A               	dw	39322
   404   00FDE3  3F19               	dw	16153
   405   00FDE5                     __end_of_L1:
   406                           	callstack 0
   407   00FDE5  0000               	dw	0
   408   00FDE7  4B80               	dw	19328
   409   00FDE9                     __end_of_two24:
   410                           	callstack 0
   411   00FDE9  AA00               	dw	43520
   412   00FDEB  3FB8               	dw	16312
   413   00FDED                     __end_of_ivln2_h:
   414                           	callstack 0
   415   00FDED  23C6               	dw	9158
   416   00FDEF  B8F6               	dw	47350
   417   00FDF1                     __end_of_cp_l:
   418                           	callstack 0
   419   00FDF1  4000               	dw	16384
   420   00FDF3  3F76               	dw	16246
   421   00FDF5                     __end_of_cp_h:
   422                           	callstack 0
   423   000000                     _CCPR1H	set	4031
   424   000000                     _PWM1CON	set	4023
   425   000000                     _T3CON	set	4017
   426   000000                     _TMR3L	set	4018
   427   000000                     _TMR3H	set	4019
   428   000000                     _TMR2	set	4044
   429   000000                     _T1CON	set	4045
   430   000000                     _TMR1L	set	4046
   431   000000                     _TMR1H	set	4047
   432   000000                     _ADCON0	set	4034
   433   000000                     _ADRESH	set	4036
   434   000000                     _ADRESL	set	4035
   435   000000                     _ADCON2	set	4032
   436   000000                     _ADCON1	set	4033
   437   000000                     _TXREG	set	4013
   438   000000                     _RCREG	set	4014
   439   000000                     _SPBRGH	set	4016
   440   000000                     _SPBRG	set	4015
   441   000000                     _TXSTA	set	4012
   442   000000                     _ANSELH	set	3967
   443   000000                     _INTCON2bits	set	4081
   444   000000                     _RCONbits	set	4048
   445   000000                     _INTCONbits	set	4082
   446   000000                     _SSPBUF	set	4041
   447   000000                     _SSPSTATbits	set	4039
   448   000000                     _SSPADD	set	4040
   449   000000                     _SSPCON2bits	set	4037
   450   000000                     _SSPCON1bits	set	4038
   451   000000                     _T2CONbits	set	4042
   452   000000                     _CCPR1L	set	4030
   453   000000                     _TRISB	set	3987
   454   000000                     _PR2	set	4043
   455   00FDF5                     STR_36:
   456                           
   457                           ; BSR set to: 0
   458   00FDF5  20                 	db	32
   459   00FDF6  70                 	db	112	;'p'
   460   00FDF7  6C                 	db	108	;'l'
   461   00FDF8  65                 	db	101	;'e'
   462   00FDF9  61                 	db	97	;'a'
   463   00FDFA  73                 	db	115	;'s'
   464   00FDFB  65                 	db	101	;'e'
   465   00FDFC  20                 	db	32
   466   00FDFD  43                 	db	67	;'C'
   467   00FDFE  68                 	db	104	;'h'
   468   00FDFF  6F                 	db	111	;'o'
   469   00FE00  6F                 	db	111	;'o'
   470   00FE01  73                 	db	115	;'s'
   471   00FE02  65                 	db	101	;'e'
   472   00FE03  20                 	db	32
   473   00FE04  43                 	db	67	;'C'
   474   00FE05  6F                 	db	111	;'o'
   475   00FE06  72                 	db	114	;'r'
   476   00FE07  72                 	db	114	;'r'
   477   00FE08  65                 	db	101	;'e'
   478   00FE09  63                 	db	99	;'c'
   479   00FE0A  74                 	db	116	;'t'
   480   00FE0B  20                 	db	32
   481   00FE0C  44                 	db	68	;'D'
   482   00FE0D  65                 	db	101	;'e'
   483   00FE0E  76                 	db	118	;'v'
   484   00FE0F  69                 	db	105	;'i'
   485   00FE10  63                 	db	99	;'c'
   486   00FE11  65                 	db	101	;'e'
   487   00FE12  00                 	db	0
   488   00FE13                     STR_13:
   489                           
   490                           ; BSR set to: 0
   491   00FE13  20                 	db	32
   492   00FE14  70                 	db	112	;'p'
   493   00FE15  6C                 	db	108	;'l'
   494   00FE16  65                 	db	101	;'e'
   495   00FE17  61                 	db	97	;'a'
   496   00FE18  73                 	db	115	;'s'
   497   00FE19  65                 	db	101	;'e'
   498   00FE1A  20                 	db	32
   499   00FE1B  43                 	db	67	;'C'
   500   00FE1C  68                 	db	104	;'h'
   501   00FE1D  6F                 	db	111	;'o'
   502   00FE1E  6F                 	db	111	;'o'
   503   00FE1F  73                 	db	115	;'s'
   504   00FE20  65                 	db	101	;'e'
   505   00FE21  20                 	db	32
   506   00FE22  43                 	db	67	;'C'
   507   00FE23  6F                 	db	111	;'o'
   508   00FE24  72                 	db	114	;'r'
   509   00FE25  72                 	db	114	;'r'
   510   00FE26  65                 	db	101	;'e'
   511   00FE27  63                 	db	99	;'c'
   512   00FE28  74                 	db	116	;'t'
   513   00FE29  20                 	db	32
   514   00FE2A  50                 	db	80	;'P'
   515   00FE2B  6C                 	db	108	;'l'
   516   00FE2C  61                 	db	97	;'a'
   517   00FE2D  63                 	db	99	;'c'
   518   00FE2E  65                 	db	101	;'e'
   519   00FE2F  00                 	db	0
   520   00FE30                     STR_11:
   521                           
   522                           ; BSR set to: 0
   523   00FE30  20                 	db	32
   524   00FE31  57                 	db	87	;'W'
   525   00FE32  65                 	db	101	;'e'
   526   00FE33  6C                 	db	108	;'l'
   527   00FE34  63                 	db	99	;'c'
   528   00FE35  6F                 	db	111	;'o'
   529   00FE36  6D                 	db	109	;'m'
   530   00FE37  65                 	db	101	;'e'
   531   00FE38  20                 	db	32
   532   00FE39  74                 	db	116	;'t'
   533   00FE3A  6F                 	db	111	;'o'
   534   00FE3B  20                 	db	32
   535   00FE3C  73                 	db	115	;'s'
   536   00FE3D  65                 	db	101	;'e'
   537   00FE3E  63                 	db	99	;'c'
   538   00FE3F  6F                 	db	111	;'o'
   539   00FE40  6E                 	db	110	;'n'
   540   00FE41  64                 	db	100	;'d'
   541   00FE42  20                 	db	32
   542   00FE43  72                 	db	114	;'r'
   543   00FE44  6F                 	db	111	;'o'
   544   00FE45  6F                 	db	111	;'o'
   545   00FE46  6D                 	db	109	;'m'
   546   00FE47  00                 	db	0
   547   00FE48                     STR_61:
   548                           
   549                           ; BSR set to: 0
   550   00FE48  20                 	db	32
   551   00FE49  46                 	db	70	;'F'
   552   00FE4A  49                 	db	73	;'I'
   553   00FE4B  52                 	db	82	;'R'
   554   00FE4C  45                 	db	69	;'E'
   555   00FE4D  2E                 	db	46
   556   00FE4E  2E                 	db	46
   557   00FE4F  2E                 	db	46
   558   00FE50  2E                 	db	46
   559   00FE51  2E                 	db	46
   560   00FE52  2E                 	db	46
   561   00FE53  2E                 	db	46
   562   00FE54  2E                 	db	46
   563   00FE55  2E                 	db	46
   564   00FE56  2E                 	db	46
   565   00FE57  2E                 	db	46
   566   00FE58  2E                 	db	46
   567   00FE59  2E                 	db	46
   568   00FE5A  2E                 	db	46
   569   00FE5B  2E                 	db	46
   570   00FE5C  2E                 	db	46
   571   00FE5D  21                 	db	33
   572   00FE5E  00                 	db	0
   573   00FE5F                     STR_10:
   574                           
   575                           ; BSR set to: 0
   576   00FE5F  20                 	db	32
   577   00FE60  57                 	db	87	;'W'
   578   00FE61  65                 	db	101	;'e'
   579   00FE62  6C                 	db	108	;'l'
   580   00FE63  63                 	db	99	;'c'
   581   00FE64  6F                 	db	111	;'o'
   582   00FE65  6D                 	db	109	;'m'
   583   00FE66  65                 	db	101	;'e'
   584   00FE67  20                 	db	32
   585   00FE68  74                 	db	116	;'t'
   586   00FE69  6F                 	db	111	;'o'
   587   00FE6A  20                 	db	32
   588   00FE6B  66                 	db	102	;'f'
   589   00FE6C  69                 	db	105	;'i'
   590   00FE6D  72                 	db	114	;'r'
   591   00FE6E  73                 	db	115	;'s'
   592   00FE6F  74                 	db	116	;'t'
   593   00FE70  20                 	db	32
   594   00FE71  72                 	db	114	;'r'
   595   00FE72  6F                 	db	111	;'o'
   596   00FE73  6F                 	db	111	;'o'
   597   00FE74  6D                 	db	109	;'m'
   598   00FE75  00                 	db	0
   599   00FE76                     STR_17:
   600                           
   601                           ; BSR set to: 0
   602   00FE76  65                 	db	101	;'e'
   603   00FE77  6E                 	db	110	;'n'
   604   00FE78  74                 	db	116	;'t'
   605   00FE79  65                 	db	101	;'e'
   606   00FE7A  72                 	db	114	;'r'
   607   00FE7B  20                 	db	32
   608   00FE7C  6E                 	db	110	;'n'
   609   00FE7D  65                 	db	101	;'e'
   610   00FE7E  77                 	db	119	;'w'
   611   00FE7F  20                 	db	32
   612   00FE80  70                 	db	112	;'p'
   613   00FE81  61                 	db	97	;'a'
   614   00FE82  73                 	db	115	;'s'
   615   00FE83  73                 	db	115	;'s'
   616   00FE84  77                 	db	119	;'w'
   617   00FE85  6F                 	db	111	;'o'
   618   00FE86  72                 	db	114	;'r'
   619   00FE87  64                 	db	100	;'d'
   620   00FE88  20                 	db	32
   621   00FE89  3A                 	db	58	;':'
   622   00FE8A  20                 	db	32
   623   00FE8B  00                 	db	0
   624   00FE8C                     STR_16:
   625                           
   626                           ; BSR set to: 0
   627   00FE8C  32                 	db	50	;'2'
   628   00FE8D  2D                 	db	45
   629   00FE8E  43                 	db	67	;'C'
   630   00FE8F  68                 	db	104	;'h'
   631   00FE90  61                 	db	97	;'a'
   632   00FE91  6E                 	db	110	;'n'
   633   00FE92  67                 	db	103	;'g'
   634   00FE93  65                 	db	101	;'e'
   635   00FE94  20                 	db	32
   636   00FE95  50                 	db	80	;'P'
   637   00FE96  61                 	db	97	;'a'
   638   00FE97  73                 	db	115	;'s'
   639   00FE98  73                 	db	115	;'s'
   640   00FE99  77                 	db	119	;'w'
   641   00FE9A  6F                 	db	111	;'o'
   642   00FE9B  72                 	db	114	;'r'
   643   00FE9C  64                 	db	100	;'d'
   644   00FE9D  20                 	db	32
   645   00FE9E  3A                 	db	58	;':'
   646   00FE9F  20                 	db	32
   647   00FEA0  00                 	db	0
   648   00FEA1                     STR_53:
   649                           
   650                           ; BSR set to: 0
   651   00FEA1  20                 	db	32
   652   00FEA2  31                 	db	49	;'1'
   653   00FEA3  2D                 	db	45
   654   00FEA4  72                 	db	114	;'r'
   655   00FEA5  65                 	db	101	;'e'
   656   00FEA6  61                 	db	97	;'a'
   657   00FEA7  64                 	db	100	;'d'
   658   00FEA8  20                 	db	32
   659   00FEA9  74                 	db	116	;'t'
   660   00FEAA  65                 	db	101	;'e'
   661   00FEAB  6D                 	db	109	;'m'
   662   00FEAC  70                 	db	112	;'p'
   663   00FEAD  65                 	db	101	;'e'
   664   00FEAE  72                 	db	114	;'r'
   665   00FEAF  61                 	db	97	;'a'
   666   00FEB0  74                 	db	116	;'t'
   667   00FEB1  75                 	db	117	;'u'
   668   00FEB2  72                 	db	114	;'r'
   669   00FEB3  65                 	db	101	;'e'
   670   00FEB4  00                 	db	0
   671   00FEB5                     STR_23:
   672                           
   673                           ; BSR set to: 0
   674   00FEB5  20                 	db	32
   675   00FEB6  33                 	db	51	;'3'
   676   00FEB7  2D                 	db	45
   677   00FEB8  72                 	db	114	;'r'
   678   00FEB9  65                 	db	101	;'e'
   679   00FEBA  61                 	db	97	;'a'
   680   00FEBB  64                 	db	100	;'d'
   681   00FEBC  20                 	db	32
   682   00FEBD  74                 	db	116	;'t'
   683   00FEBE  65                 	db	101	;'e'
   684   00FEBF  6D                 	db	109	;'m'
   685   00FEC0  70                 	db	112	;'p'
   686   00FEC1  65                 	db	101	;'e'
   687   00FEC2  72                 	db	114	;'r'
   688   00FEC3  61                 	db	97	;'a'
   689   00FEC4  74                 	db	116	;'t'
   690   00FEC5  75                 	db	117	;'u'
   691   00FEC6  72                 	db	114	;'r'
   692   00FEC7  65                 	db	101	;'e'
   693   00FEC8  00                 	db	0
   694   00FEC9                     STR_19:
   695                           
   696                           ; BSR set to: 0
   697   00FEC9  20                 	db	32
   698   00FECA  57                 	db	87	;'W'
   699   00FECB  72                 	db	114	;'r'
   700   00FECC  6F                 	db	111	;'o'
   701   00FECD  6E                 	db	110	;'n'
   702   00FECE  67                 	db	103	;'g'
   703   00FECF  20                 	db	32
   704   00FED0  70                 	db	112	;'p'
   705   00FED1  61                 	db	97	;'a'
   706   00FED2  73                 	db	115	;'s'
   707   00FED3  73                 	db	115	;'s'
   708   00FED4  77                 	db	119	;'w'
   709   00FED5  6F                 	db	111	;'o'
   710   00FED6  72                 	db	114	;'r'
   711   00FED7  64                 	db	100	;'d'
   712   00FED8  20                 	db	32
   713   00FED9  21                 	db	33
   714   00FEDA  20                 	db	32
   715   00FEDB  00                 	db	0
   716   00FEDC                     STR_18:
   717                           
   718                           ; BSR set to: 0
   719   00FEDC  20                 	db	32
   720   00FEDD  45                 	db	69	;'E'
   721   00FEDE  6E                 	db	110	;'n'
   722   00FEDF  74                 	db	116	;'t'
   723   00FEE0  65                 	db	101	;'e'
   724   00FEE1  72                 	db	114	;'r'
   725   00FEE2  20                 	db	32
   726   00FEE3  70                 	db	112	;'p'
   727   00FEE4  61                 	db	97	;'a'
   728   00FEE5  73                 	db	115	;'s'
   729   00FEE6  73                 	db	115	;'s'
   730   00FEE7  77                 	db	119	;'w'
   731   00FEE8  6F                 	db	111	;'o'
   732   00FEE9  72                 	db	114	;'r'
   733   00FEEA  64                 	db	100	;'d'
   734   00FEEB  20                 	db	32
   735   00FEEC  3A                 	db	58	;':'
   736   00FEED  20                 	db	32
   737   00FEEE  00                 	db	0
   738   00FEEF                     STR_12:
   739                           
   740                           ; BSR set to: 0
   741   00FEEF  20                 	db	32
   742   00FEF0  57                 	db	87	;'W'
   743   00FEF1  65                 	db	101	;'e'
   744   00FEF2  6C                 	db	108	;'l'
   745   00FEF3  63                 	db	99	;'c'
   746   00FEF4  6F                 	db	111	;'o'
   747   00FEF5  6D                 	db	109	;'m'
   748   00FEF6  65                 	db	101	;'e'
   749   00FEF7  20                 	db	32
   750   00FEF8  74                 	db	116	;'t'
   751   00FEF9  6F                 	db	111	;'o'
   752   00FEFA  20                 	db	32
   753   00FEFB  67                 	db	103	;'g'
   754   00FEFC  61                 	db	97	;'a'
   755   00FEFD  72                 	db	114	;'r'
   756   00FEFE  61                 	db	97	;'a'
   757   00FEFF  67                 	db	103	;'g'
   758   00FF00  65                 	db	101	;'e'
   759   00FF01  00                 	db	0
   760   00FF02                     STR_20:
   761                           
   762                           ; BSR set to: 0
   763   00FF02  20                 	db	32
   764   00FF03  57                 	db	87	;'W'
   765   00FF04  61                 	db	97	;'a'
   766   00FF05  69                 	db	105	;'i'
   767   00FF06  74                 	db	116	;'t'
   768   00FF07  20                 	db	32
   769   00FF08  31                 	db	49	;'1'
   770   00FF09  30                 	db	48	;'0'
   771   00FF0A  73                 	db	115	;'s'
   772   00FF0B  20                 	db	32
   773   00FF0C  74                 	db	116	;'t'
   774   00FF0D  6F                 	db	111	;'o'
   775   00FF0E  20                 	db	32
   776   00FF0F  74                 	db	116	;'t'
   777   00FF10  72                 	db	114	;'r'
   778   00FF11  79                 	db	121	;'y'
   779   00FF12  21                 	db	33
   780   00FF13  00                 	db	0
   781   00FF14                     STR_5:
   782                           
   783                           ; BSR set to: 0
   784   00FF14  20                 	db	32
   785   00FF15  57                 	db	87	;'W'
   786   00FF16  65                 	db	101	;'e'
   787   00FF17  6C                 	db	108	;'l'
   788   00FF18  63                 	db	99	;'c'
   789   00FF19  6F                 	db	111	;'o'
   790   00FF1A  6D                 	db	109	;'m'
   791   00FF1B  65                 	db	101	;'e'
   792   00FF1C  20                 	db	32
   793   00FF1D  48                 	db	72	;'H'
   794   00FF1E  6F                 	db	111	;'o'
   795   00FF1F  6D                 	db	109	;'m'
   796   00FF20  65                 	db	101	;'e'
   797   00FF21  2E                 	db	46
   798   00FF22  2E                 	db	46
   799   00FF23  21                 	db	33
   800   00FF24  00                 	db	0
   801   00FF25                     STR_32:
   802                           
   803                           ; BSR set to: 0
   804   00FF25  20                 	db	32
   805   00FF26  54                 	db	84	;'T'
   806   00FF27  65                 	db	101	;'e'
   807   00FF28  6D                 	db	109	;'m'
   808   00FF29  70                 	db	112	;'p'
   809   00FF2A  65                 	db	101	;'e'
   810   00FF2B  72                 	db	114	;'r'
   811   00FF2C  61                 	db	97	;'a'
   812   00FF2D  74                 	db	116	;'t'
   813   00FF2E  75                 	db	117	;'u'
   814   00FF2F  72                 	db	114	;'r'
   815   00FF30  65                 	db	101	;'e'
   816   00FF31  20                 	db	32
   817   00FF32  3A                 	db	58	;':'
   818   00FF33  20                 	db	32
   819   00FF34  00                 	db	0
   820   00FF35                     STR_15:
   821                           
   822                           ; BSR set to: 0
   823   00FF35  31                 	db	49	;'1'
   824   00FF36  2D                 	db	45
   825   00FF37  43                 	db	67	;'C'
   826   00FF38  6F                 	db	111	;'o'
   827   00FF39  6E                 	db	110	;'n'
   828   00FF3A  74                 	db	116	;'t'
   829   00FF3B  72                 	db	114	;'r'
   830   00FF3C  6F                 	db	111	;'o'
   831   00FF3D  6C                 	db	108	;'l'
   832   00FF3E  20                 	db	32
   833   00FF3F  48                 	db	72	;'H'
   834   00FF40  6F                 	db	111	;'o'
   835   00FF41  6D                 	db	109	;'m'
   836   00FF42  65                 	db	101	;'e'
   837   00FF43  00                 	db	0
   838   00FF44                     STR_34:
   839                           
   840                           ; BSR set to: 0
   841   00FF44  20                 	db	32
   842   00FF45  32                 	db	50	;'2'
   843   00FF46  2D                 	db	45
   844   00FF47  43                 	db	67	;'C'
   845   00FF48  4C                 	db	76	;'L'
   846   00FF49  4F                 	db	79	;'O'
   847   00FF4A  53                 	db	83	;'S'
   848   00FF4B  45                 	db	69	;'E'
   849   00FF4C  20                 	db	32
   850   00FF4D  44                 	db	68	;'D'
   851   00FF4E  4F                 	db	79	;'O'
   852   00FF4F  4F                 	db	79	;'O'
   853   00FF50  52                 	db	82	;'R'
   854   00FF51  00                 	db	0
   855   00FF52                     STR_33:
   856                           
   857                           ; BSR set to: 0
   858   00FF52  20                 	db	32
   859   00FF53  31                 	db	49	;'1'
   860   00FF54  2D                 	db	45
   861   00FF55  4F                 	db	79	;'O'
   862   00FF56  50                 	db	80	;'P'
   863   00FF57  45                 	db	69	;'E'
   864   00FF58  4E                 	db	78	;'N'
   865   00FF59  20                 	db	32
   866   00FF5A  44                 	db	68	;'D'
   867   00FF5B  4F                 	db	79	;'O'
   868   00FF5C  4F                 	db	79	;'O'
   869   00FF5D  52                 	db	82	;'R'
   870   00FF5E  00                 	db	0
   871   00FF5F                     STR_14:
   872                           
   873                           ; BSR set to: 0
   874   00FF5F  20                 	db	32
   875   00FF60  43                 	db	67	;'C'
   876   00FF61  68                 	db	104	;'h'
   877   00FF62  6F                 	db	111	;'o'
   878   00FF63  6F                 	db	111	;'o'
   879   00FF64  73                 	db	115	;'s'
   880   00FF65  65                 	db	101	;'e'
   881   00FF66  20                 	db	32
   882   00FF67  3A                 	db	58	;':'
   883   00FF68  20                 	db	32
   884   00FF69  00                 	db	0
   885   00FF6A                     STR_4:
   886                           
   887                           ; BSR set to: 0
   888   00FF6A  57                 	db	87	;'W'
   889   00FF6B  65                 	db	101	;'e'
   890   00FF6C  6C                 	db	108	;'l'
   891   00FF6D  63                 	db	99	;'c'
   892   00FF6E  6F                 	db	111	;'o'
   893   00FF6F  6D                 	db	109	;'m'
   894   00FF70  65                 	db	101	;'e'
   895   00FF71  2E                 	db	46
   896   00FF72  2E                 	db	46
   897   00FF73  21                 	db	33
   898   00FF74  00                 	db	0
   899   00FF75                     STR_30:
   900                           
   901                           ; BSR set to: 0
   902   00FF75  20                 	db	32
   903   00FF76  32                 	db	50	;'2'
   904   00FF77  2D                 	db	45
   905   00FF78  4C                 	db	76	;'L'
   906   00FF79  45                 	db	69	;'E'
   907   00FF7A  44                 	db	68	;'D'
   908   00FF7B  5F                 	db	95	;'_'
   909   00FF7C  4F                 	db	79	;'O'
   910   00FF7D  46                 	db	70	;'F'
   911   00FF7E  46                 	db	70	;'F'
   912   00FF7F  00                 	db	0
   913   00FF80                     STR_27:
   914                           
   915                           ; BSR set to: 0
   916   00FF80  20                 	db	32
   917   00FF81  32                 	db	50	;'2'
   918   00FF82  2D                 	db	45
   919   00FF83  46                 	db	70	;'F'
   920   00FF84  61                 	db	97	;'a'
   921   00FF85  6E                 	db	110	;'n'
   922   00FF86  5F                 	db	95	;'_'
   923   00FF87  4F                 	db	79	;'O'
   924   00FF88  46                 	db	70	;'F'
   925   00FF89  46                 	db	70	;'F'
   926   00FF8A  00                 	db	0
   927   00FF8B                     STR_6:
   928                           
   929                           ; BSR set to: 0
   930   00FF8B  20                 	db	32
   931   00FF8C  31                 	db	49	;'1'
   932   00FF8D  2D                 	db	45
   933   00FF8E  52                 	db	82	;'R'
   934   00FF8F  4F                 	db	79	;'O'
   935   00FF90  4F                 	db	79	;'O'
   936   00FF91  4D                 	db	77	;'M'
   937   00FF92  20                 	db	32
   938   00FF93  31                 	db	49	;'1'
   939   00FF94  00                 	db	0
   940   00FF95                     STR_7:
   941                           
   942                           ; BSR set to: 0
   943   00FF95  20                 	db	32
   944   00FF96  32                 	db	50	;'2'
   945   00FF97  2D                 	db	45
   946   00FF98  52                 	db	82	;'R'
   947   00FF99  4F                 	db	79	;'O'
   948   00FF9A  4F                 	db	79	;'O'
   949   00FF9B  4D                 	db	77	;'M'
   950   00FF9C  20                 	db	32
   951   00FF9D  32                 	db	50	;'2'
   952   00FF9E  00                 	db	0
   953   00FF9F                     STR_8:
   954                           
   955                           ; BSR set to: 0
   956   00FF9F  20                 	db	32
   957   00FFA0  33                 	db	51	;'3'
   958   00FFA1  2D                 	db	45
   959   00FFA2  47                 	db	71	;'G'
   960   00FFA3  41                 	db	65	;'A'
   961   00FFA4  52                 	db	82	;'R'
   962   00FFA5  41                 	db	65	;'A'
   963   00FFA6  47                 	db	71	;'G'
   964   00FFA7  45                 	db	69	;'E'
   965   00FFA8  00                 	db	0
   966   00FFA9                     STR_29:
   967                           
   968                           ; BSR set to: 0
   969   00FFA9  20                 	db	32
   970   00FFAA  31                 	db	49	;'1'
   971   00FFAB  2D                 	db	45
   972   00FFAC  4C                 	db	76	;'L'
   973   00FFAD  45                 	db	69	;'E'
   974   00FFAE  44                 	db	68	;'D'
   975   00FFAF  5F                 	db	95	;'_'
   976   00FFB0  4F                 	db	79	;'O'
   977   00FFB1  4E                 	db	78	;'N'
   978   00FFB2  00                 	db	0
   979   00FFB3                     STR_26:
   980                           
   981                           ; BSR set to: 0
   982   00FFB3  20                 	db	32
   983   00FFB4  31                 	db	49	;'1'
   984   00FFB5  2D                 	db	45
   985   00FFB6  46                 	db	70	;'F'
   986   00FFB7  61                 	db	97	;'a'
   987   00FFB8  6E                 	db	110	;'n'
   988   00FFB9  5F                 	db	95	;'_'
   989   00FFBA  4F                 	db	79	;'O'
   990   00FFBB  4E                 	db	78	;'N'
   991   00FFBC  00                 	db	0
   992   00FFBD                     STR_28:
   993                           
   994                           ; BSR set to: 0
   995   00FFBD  20                 	db	32
   996   00FFBE  33                 	db	51	;'3'
   997   00FFBF  2D                 	db	45
   998   00FFC0  52                 	db	82	;'R'
   999   00FFC1  45                 	db	69	;'E'
  1000   00FFC2  54                 	db	84	;'T'
  1001   00FFC3  55                 	db	85	;'U'
  1002   00FFC4  52                 	db	82	;'R'
  1003   00FFC5  4E                 	db	78	;'N'
  1004   00FFC6  00                 	db	0
  1005   00FFC7                     STR_9:
  1006                           
  1007                           ; BSR set to: 0
  1008   00FFC7  20                 	db	32
  1009   00FFC8  34                 	db	52	;'4'
  1010   00FFC9  2D                 	db	45
  1011   00FFCA  52                 	db	82	;'R'
  1012   00FFCB  45                 	db	69	;'E'
  1013   00FFCC  54                 	db	84	;'T'
  1014   00FFCD  55                 	db	85	;'U'
  1015   00FFCE  52                 	db	82	;'R'
  1016   00FFCF  4E                 	db	78	;'N'
  1017   00FFD0  00                 	db	0
  1018   00FFD1                     STR_25:
  1019                           
  1020                           ; BSR set to: 0
  1021   00FFD1  20                 	db	32
  1022   00FFD2  35                 	db	53	;'5'
  1023   00FFD3  2D                 	db	45
  1024   00FFD4  52                 	db	82	;'R'
  1025   00FFD5  45                 	db	69	;'E'
  1026   00FFD6  54                 	db	84	;'T'
  1027   00FFD7  55                 	db	85	;'U'
  1028   00FFD8  52                 	db	82	;'R'
  1029   00FFD9  4E                 	db	78	;'N'
  1030   00FFDA  00                 	db	0
  1031   00FFDB                     STR_54:
  1032                           
  1033                           ; BSR set to: 0
  1034   00FFDB  20                 	db	32
  1035   00FFDC  32                 	db	50	;'2'
  1036   00FFDD  2D                 	db	45
  1037   00FFDE  44                 	db	68	;'D'
  1038   00FFDF  6F                 	db	111	;'o'
  1039   00FFE0  6F                 	db	111	;'o'
  1040   00FFE1  72                 	db	114	;'r'
  1041   00FFE2  20                 	db	32
  1042   00FFE3  00                 	db	0
  1043   00FFE4                     STR_24:
  1044                           
  1045                           ; BSR set to: 0
  1046   00FFE4  20                 	db	32
  1047   00FFE5  34                 	db	52	;'4'
  1048   00FFE6  2D                 	db	45
  1049   00FFE7  44                 	db	68	;'D'
  1050   00FFE8  6F                 	db	111	;'o'
  1051   00FFE9  6F                 	db	111	;'o'
  1052   00FFEA  72                 	db	114	;'r'
  1053   00FFEB  20                 	db	32
  1054   00FFEC  00                 	db	0
  1055   00FFED                     STR_22:
  1056                           
  1057                           ; BSR set to: 0
  1058   00FFED  20                 	db	32
  1059   00FFEE  32                 	db	50	;'2'
  1060   00FFEF  2D                 	db	45
  1061   00FFF0  6C                 	db	108	;'l'
  1062   00FFF1  65                 	db	101	;'e'
  1063   00FFF2  64                 	db	100	;'d'
  1064   00FFF3  00                 	db	0
  1065   00FFF4                     STR_21:
  1066                           
  1067                           ; BSR set to: 0
  1068   00FFF4  20                 	db	32
  1069   00FFF5  31                 	db	49	;'1'
  1070   00FFF6  2D                 	db	45
  1071   00FFF7  46                 	db	70	;'F'
  1072   00FFF8  61                 	db	97	;'a'
  1073   00FFF9  6E                 	db	110	;'n'
  1074   00FFFA  00                 	db	0
  1075   00FFFB                     STR_1:
  1076                           
  1077                           ; BSR set to: 0
  1078   00FFFB  25                 	db	37
  1079   00FFFC  69                 	db	105	;'i'
  1080   00FFFD  00                 	db	0
  1081   00FFFE  00                 	db	0	; dummy byte at the end
  1082   000000                     
  1083                           	psect	nvBANK1
  1084   00012F                     __pnvBANK1:
  1085                           	callstack 0
  1086   00012F                     _EUSART_ErrorHandler:
  1087                           	callstack 0
  1088   00012F                     	ds	2
  1089   000131                     _EUSART_OverrunErrorHandler:
  1090                           	callstack 0
  1091   000131                     	ds	2
  1092   000133                     _EUSART_FramingErrorHandler:
  1093                           	callstack 0
  1094   000133                     	ds	2
  1095   000000                     _TMR3	set	4018
  1096   000000                     _TMR1	set	4046
  1097   000000                     _SSPCON2	set	4037
  1098   000000                     _SSPCON1	set	4038
  1099   000000                     _SSPSTAT	set	4039
  1100   000000                     _CCP1CON	set	4029
  1101   000000                     _T3CONbits	set	4017
  1102   000000                     _T2CON	set	4042
  1103   000000                     _T1CONbits	set	4045
  1104   000000                     _T0CONbits	set	4053
  1105   000000                     _ADCON0bits	set	4034
  1106   000000                     _RCSTAbits	set	4011
  1107   000000                     _TXSTAbits	set	4012
  1108   000000                     _PORTBbits	set	3969
  1109   000000                     _TRISCbits	set	3988
  1110   000000                     _WPUB	set	3964
  1111   000000                     _ANSEL	set	3966
  1112   000000                     _CCP1CONbits	set	4029
  1113   000000                     _PORTA	set	3968
  1114   000000                     _LATA	set	3977
  1115   000000                     _TRISA	set	3986
  1116   000000                     _TRISC	set	3988
  1117   000000                     _OSCTUNE	set	3995
  1118   000000                     _PIR1bits	set	3998
  1119   000000                     _TRISE	set	3990
  1120   000000                     _TRISD	set	3989
  1121   000000                     _LATE	set	3981
  1122   000000                     _LATD	set	3980
  1123   000000                     _LATC	set	3979
  1124   000000                     _LATB	set	3978
  1125   000000                     _PORTE	set	3972
  1126   000000                     _PORTD	set	3971
  1127   000000                     _PORTC	set	3970
  1128   000000                     _PORTB	set	3969
  1129   000000                     _IPR1bits	set	3999
  1130   000000                     _PIR2bits	set	4001
  1131   000000                     _RCSTA	set	4011
  1132   000000                     _BAUDCON	set	4024
  1133   000000                     _OSCCON	set	4051
  1134   000000                     _INTCON3bits	set	4080
  1135   000000                     _T0CON	set	4053
  1136   000000                     _TMR0L	set	4054
  1137   000000                     _TMR0H	set	4055
  1138   000000                     _PIE1bits	set	3997
  1139   000000                     _PSTRCON	set	4025
  1140   000000                     _ECCP1AS	set	4022
  1141                           
  1142                           ; #config settings
  1143                           
  1144                           	psect	cinit
  1145   002CC8                     __pcinit:
  1146                           	callstack 0
  1147   002CC8                     start_initialization:
  1148                           	callstack 0
  1149   002CC8                     __initialization:
  1150                           	callstack 0
  1151                           
  1152                           ; Initialize objects allocated to BANK1 (10 bytes)
  1153                           ; load TBLPTR registers with __pidataBANK1
  1154   002CC8  0E28               	movlw	low __pidataBANK1
  1155   002CCA  6EF6               	movwf	tblptrl,c
  1156   002CCC  0E36               	movlw	high __pidataBANK1
  1157   002CCE  6EF7               	movwf	tblptrh,c
  1158   002CD0  0E00               	movlw	low (__pidataBANK1 shr (0+16))
  1159   002CD2  6EF8               	movwf	tblptru,c
  1160   002CD4  EE01  F025         	lfsr	0,__pdataBANK1
  1161   002CD8  EE10 F00A          	lfsr	1,10
  1162   002CDC                     copy_data0:
  1163   002CDC  0009               	tblrd		*+
  1164   002CDE  CFF5 FFEE          	movff	tablat,postinc0
  1165   002CE2  50E5               	movf	postdec1,w,c
  1166   002CE4  50E1               	movf	fsr1l,w,c
  1167   002CE6  E1FA               	bnz	copy_data0
  1168                           
  1169                           ; Initialize objects allocated to BANK0 (31 bytes)
  1170                           ; load TBLPTR registers with __pidataBANK0
  1171   002CE8  0E92               	movlw	low __pidataBANK0
  1172   002CEA  6EF6               	movwf	tblptrl,c
  1173   002CEC  0E35               	movlw	high __pidataBANK0
  1174   002CEE  6EF7               	movwf	tblptrh,c
  1175   002CF0  0E00               	movlw	low (__pidataBANK0 shr (0+16))
  1176   002CF2  6EF8               	movwf	tblptru,c
  1177   002CF4  EE00  F0E1         	lfsr	0,__pdataBANK0
  1178   002CF8  EE10 F01F          	lfsr	1,31
  1179   002CFC                     copy_data1:
  1180   002CFC  0009               	tblrd		*+
  1181   002CFE  CFF5 FFEE          	movff	tablat,postinc0
  1182   002D02  50E5               	movf	postdec1,w,c
  1183   002D04  50E1               	movf	fsr1l,w,c
  1184   002D06  E1FA               	bnz	copy_data1
  1185                           
  1186                           ; Initialize objects allocated to COMRAM (7 bytes)
  1187                           ; load TBLPTR registers with __pidataCOMRAM
  1188   002D08  0E5A               	movlw	low __pidataCOMRAM
  1189   002D0A  6EF6               	movwf	tblptrl,c
  1190   002D0C  0E36               	movlw	high __pidataCOMRAM
  1191   002D0E  6EF7               	movwf	tblptrh,c
  1192   002D10  0E00               	movlw	low (__pidataCOMRAM shr (0+16))
  1193   002D12  6EF8               	movwf	tblptru,c
  1194   002D14  EE00  F054         	lfsr	0,__pdataCOMRAM
  1195   002D18  EE10 F007          	lfsr	1,7
  1196   002D1C                     copy_data2:
  1197   002D1C  0009               	tblrd		*+
  1198   002D1E  CFF5 FFEE          	movff	tablat,postinc0
  1199   002D22  50E5               	movf	postdec1,w,c
  1200   002D24  50E1               	movf	fsr1l,w,c
  1201   002D26  E1FA               	bnz	copy_data2
  1202                           
  1203                           ; Clear objects allocated to BANK1 (37 bytes)
  1204   002D28  EE01  F000         	lfsr	0,__pbssBANK1
  1205   002D2C  0E25               	movlw	37
  1206   002D2E                     clear_0:
  1207   002D2E  6AEE               	clrf	postinc0,c
  1208   002D30  06E8               	decf	wreg,f,c
  1209   002D32  E1FD               	bnz	clear_0
  1210                           
  1211                           ; Clear objects allocated to BANK0 (129 bytes)
  1212   002D34  EE00  F060         	lfsr	0,__pbssBANK0
  1213   002D38  0E81               	movlw	129
  1214   002D3A                     clear_1:
  1215   002D3A  6AEE               	clrf	postinc0,c
  1216   002D3C  06E8               	decf	wreg,f,c
  1217   002D3E  E1FD               	bnz	clear_1
  1218                           
  1219                           ; Clear objects allocated to COMRAM (10 bytes)
  1220   002D40  EE00  F04A         	lfsr	0,__pbssCOMRAM
  1221   002D44  0E0A               	movlw	10
  1222   002D46                     clear_2:
  1223   002D46  6AEE               	clrf	postinc0,c
  1224   002D48  06E8               	decf	wreg,f,c
  1225   002D4A  E1FD               	bnz	clear_2
  1226   002D4C                     end_of_initialization:
  1227                           	callstack 0
  1228   002D4C                     __end_of__initialization:
  1229                           	callstack 0
  1230   002D4C  905B               	bcf	int$flags,0,c	;clear compiler interrupt flag (level 1)
  1231   002D4E  925B               	bcf	int$flags,1,c	;clear compiler interrupt flag (level 2)
  1232   002D50  0100               	movlb	0
  1233   002D52  EF41  F00D         	goto	_main	;jump to C main() function
  1234                           
  1235                           	psect	bssCOMRAM
  1236   00004A                     __pbssCOMRAM:
  1237                           	callstack 0
  1238   00004A                     _lm35_res_1_Celsius_mv:
  1239                           	callstack 0
  1240   00004A                     	ds	2
  1241   00004C                     _device:
  1242                           	callstack 0
  1243   00004C                     	ds	2
  1244   00004E                     _inter:
  1245                           	callstack 0
  1246   00004E                     	ds	1
  1247   00004F                     _place:
  1248                           	callstack 0
  1249   00004F                     	ds	1
  1250   000050                     _i:
  1251                           	callstack 0
  1252   000050                     	ds	1
  1253   000051                     _read_irritation:
  1254                           	callstack 0
  1255   000051                     	ds	1
  1256   000052                     _timer0ReloadVal:
  1257                           	callstack 0
  1258   000052                     	ds	1
  1259   000053                     _slave_ack:
  1260                           	callstack 0
  1261   000053                     	ds	1
  1262                           
  1263                           	psect	dataCOMRAM
  1264   000054                     __pdataCOMRAM:
  1265                           	callstack 0
  1266   000054                     _lcd:
  1267                           	callstack 0
  1268   000054                     	ds	6
  1269   00005A                     _led:
  1270                           	callstack 0
  1271   00005A                     	ds	1
  1272                           
  1273                           	psect	bssBANK0
  1274   000060                     __pbssBANK0:
  1275                           	callstack 0
  1276   000060                     _I2C_Status:
  1277                           	callstack 0
  1278   000060                     	ds	36
  1279   000084                     _t_check:
  1280                           	callstack 0
  1281   000084                     	ds	4
  1282   000088                     _rbx_arr:
  1283                           	callstack 0
  1284   000088                     	ds	4
  1285   00008C                     _errno:
  1286                           	callstack 0
  1287   00008C                     	ds	2
  1288   00008E                     _width:
  1289                           	callstack 0
  1290   00008E                     	ds	2
  1291   000090                     _prec:
  1292                           	callstack 0
  1293   000090                     	ds	2
  1294   000092                     _saved_preload_value@timer2$F3946:
  1295                           	callstack 0
  1296   000092                     	ds	2
  1297   000094                     	ds	2
  1298   000096                     _saved_preload_value:
  1299                           	callstack 0
  1300   000096                     	ds	2
  1301   000098                     _Timer0_interrrupt_ptr:
  1302                           	callstack 0
  1303   000098                     	ds	2
  1304   00009A                     _SPI_INTERRUPT_HANDLER:
  1305                           	callstack 0
  1306   00009A                     	ds	2
  1307   00009C                     _timer3ReloadVal:
  1308                           	callstack 0
  1309   00009C                     	ds	2
  1310   00009E                     _timer1ReloadVal:
  1311                           	callstack 0
  1312   00009E                     	ds	2
  1313   0000A0                     _ADC_InterruptHandler:
  1314                           	callstack 0
  1315   0000A0                     	ds	2
  1316   0000A2                     _ADC_handler:
  1317                           	callstack 0
  1318   0000A2                     	ds	2
  1319   0000A4                     _RBX_CALL_BACK_HANDLER2_FALLING_7:
  1320                           	callstack 0
  1321   0000A4                     	ds	2
  1322   0000A6                     _RBX_CALL_BACK_HANDLER_RISING_7:
  1323                           	callstack 0
  1324   0000A6                     	ds	2
  1325   0000A8                     _RBX_CALL_BACK_HANDLER2_FALLING_6:
  1326                           	callstack 0
  1327   0000A8                     	ds	2
  1328   0000AA                     _RBX_CALL_BACK_HANDLER_RISING_6:
  1329                           	callstack 0
  1330   0000AA                     	ds	2
  1331   0000AC                     _RBX_CALL_BACK_HANDLER2_FALLING_5:
  1332                           	callstack 0
  1333   0000AC                     	ds	2
  1334   0000AE                     _RBX_CALL_BACK_HANDLER_RISING_5:
  1335                           	callstack 0
  1336   0000AE                     	ds	2
  1337   0000B0                     _RBX_CALL_BACK_HANDLER2_FALLING_4:
  1338                           	callstack 0
  1339   0000B0                     	ds	2
  1340   0000B2                     _RBX_CALL_BACK_HANDLER_RISING_4:
  1341                           	callstack 0
  1342   0000B2                     	ds	2
  1343   0000B4                     _INT2_CALL_BACK_HANDLER:
  1344                           	callstack 0
  1345   0000B4                     	ds	2
  1346   0000B6                     _INT1_CALL_BACK_HANDLER:
  1347                           	callstack 0
  1348   0000B6                     	ds	2
  1349   0000B8                     _INT0_CALL_BACK_HANDLER:
  1350                           	callstack 0
  1351   0000B8                     	ds	2
  1352   0000BA                     	ds	2
  1353   0000BC                     	ds	2
  1354   0000BE                     	ds	2
  1355   0000C0                     	ds	2
  1356   0000C2                     _flags:
  1357                           	callstack 0
  1358   0000C2                     	ds	1
  1359   0000C3                     	ds	1
  1360   0000C4                     	ds	1
  1361   0000C5                     	ds	1
  1362   0000C6                     _return_val:
  1363                           	callstack 0
  1364   0000C6                     	ds	1
  1365   0000C7                     _password_irritation:
  1366                           	callstack 0
  1367   0000C7                     	ds	1
  1368   0000C8                     _master_rec_data:
  1369                           	callstack 0
  1370   0000C8                     	ds	1
  1371   0000C9                     _eusartRxLastError:
  1372                           	callstack 0
  1373   0000C9                     	ds	1
  1374   0000CA                     ecu_led_toggle@F3749:
  1375                           	callstack 0
  1376   0000CA                     	ds	1
  1377   0000CB                     ecu_led_off@F3744:
  1378                           	callstack 0
  1379   0000CB                     	ds	1
  1380   0000CC                     ecu_led_on@F3739:
  1381                           	callstack 0
  1382   0000CC                     	ds	1
  1383   0000CD                     ecu_led_initialization@F3734:
  1384                           	callstack 0
  1385   0000CD                     	ds	1
  1386   0000CE                     	ds	1
  1387   0000CF                     	ds	1
  1388   0000D0                     _i2c_obj:
  1389                           	callstack 0
  1390   0000D0                     	ds	7
  1391   0000D7                     _astrik:
  1392                           	callstack 0
  1393   0000D7                     	ds	5
  1394   0000DC                     _password:
  1395                           	callstack 0
  1396   0000DC                     	ds	5
  1397                           
  1398                           	psect	dataBANK0
  1399   0000E1                     __pdataBANK0:
  1400                           	callstack 0
  1401   0000E1                     _lat_reg:
  1402                           	callstack 0
  1403   0000E1                     	ds	10
  1404   0000EB                     _tris_reg:
  1405                           	callstack 0
  1406   0000EB                     	ds	10
  1407   0000F5                     _flag7:
  1408                           	callstack 0
  1409   0000F5                     	ds	1
  1410   0000F6                     _flag6:
  1411                           	callstack 0
  1412   0000F6                     	ds	1
  1413   0000F7                     _flag5:
  1414                           	callstack 0
  1415   0000F7                     	ds	1
  1416   0000F8                     _flag4:
  1417                           	callstack 0
  1418   0000F8                     	ds	1
  1419   0000F9                     _valid_password:
  1420                           	callstack 0
  1421   0000F9                     	ds	5
  1422   0000FE                     _motor:
  1423                           	callstack 0
  1424   0000FE                     	ds	2
  1425                           
  1426                           	psect	bssBANK1
  1427   000100                     __pbssBANK1:
  1428                           	callstack 0
  1429   000100                     _dbuf:
  1430                           	callstack 0
  1431   000100                     	ds	32
  1432   000120                     _new_password:
  1433                           	callstack 0
  1434   000120                     	ds	5
  1435                           
  1436                           	psect	dataBANK1
  1437   000125                     __pdataBANK1:
  1438                           	callstack 0
  1439   000125                     _port_reg:
  1440                           	callstack 0
  1441   000125                     	ds	10
  1442                           
  1443                           	psect	cstackBANK1
  1444   000135                     __pcstackBANK1:
  1445                           	callstack 0
  1446   000135                     room_1@room:
  1447                           	callstack 0
  1448   000135                     room_2@room:
  1449                           	callstack 0
  1450   000135                     garage@stat:
  1451                           	callstack 0
  1452                           
  1453                           ; 1 bytes @ 0x0
  1454   000135                     	ds	1
  1455   000136                     room_1@door_status1:
  1456                           	callstack 0
  1457   000136                     room_2@door_status1:
  1458                           	callstack 0
  1459   000136                     garage@room:
  1460                           	callstack 0
  1461                           
  1462                           ; 1 bytes @ 0x1
  1463   000136                     	ds	1
  1464   000137                     room_1@door_status2:
  1465                           	callstack 0
  1466   000137                     room_2@door_status2:
  1467                           	callstack 0
  1468   000137                     garage@door_status1:
  1469                           	callstack 0
  1470                           
  1471                           ; 1 bytes @ 0x2
  1472   000137                     	ds	1
  1473   000138                     room_1@stat:
  1474                           	callstack 0
  1475   000138                     room_2@stat:
  1476                           	callstack 0
  1477   000138                     garage@door_status2:
  1478                           	callstack 0
  1479                           
  1480                           ; 1 bytes @ 0x3
  1481   000138                     	ds	1
  1482   000139                     room_1@temp_string:
  1483                           	callstack 0
  1484   000139                     room_2@temp_string:
  1485                           	callstack 0
  1486   000139                     garage@temp_string:
  1487                           	callstack 0
  1488                           
  1489                           ; 1 bytes @ 0x4
  1490   000139                     	ds	1
  1491                           
  1492                           	psect	cstackCOMRAM
  1493   000001                     __pcstackCOMRAM:
  1494                           	callstack 0
  1495   000001                     ??_interrupt_low:
  1496   000001                     
  1497                           ; 1 bytes @ 0x0
  1498   000001                     	ds	3
  1499   000004                     ?_ADC_GetConversion:
  1500                           	callstack 0
  1501   000004                     ?___awdiv:
  1502                           	callstack 0
  1503   000004                     ?___awmod:
  1504                           	callstack 0
  1505   000004                     ?___lwdiv:
  1506                           	callstack 0
  1507   000004                     ?___xxtofl:
  1508                           	callstack 0
  1509   000004                     gpio_pin_direction_intialization@_pin_config:
  1510                           	callstack 0
  1511   000004                     gpio_pin_write_logic@_pin_config:
  1512                           	callstack 0
  1513   000004                     MSSP_I2C_Master_Send_Start@i2c_obj:
  1514                           	callstack 0
  1515   000004                     MSSP_I2C_Master_Send_Stop@i2c_obj:
  1516                           	callstack 0
  1517   000004                     MSSP_I2C_Master_Write_Blocking@i2c_obj:
  1518                           	callstack 0
  1519   000004                     I2C_Slave_Mode_Configurations@i2c_obj:
  1520                           	callstack 0
  1521   000004                     arr_compare@arr1:
  1522                           	callstack 0
  1523   000004                     EUSART_SetFramingErrorHandler@interruptHandler:
  1524                           	callstack 0
  1525   000004                     EUSART_SetOverrunErrorHandler@interruptHandler:
  1526                           	callstack 0
  1527   000004                     EUSART_SetErrorHandler@interruptHandler:
  1528                           	callstack 0
  1529   000004                     ___awdiv@dividend:
  1530                           	callstack 0
  1531   000004                     ___awmod@dividend:
  1532                           	callstack 0
  1533   000004                     ___lwdiv@dividend:
  1534                           	callstack 0
  1535   000004                     memset@dest:
  1536                           	callstack 0
  1537   000004                     fputc@c:
  1538                           	callstack 0
  1539   000004                     ___xxtofl@val:
  1540                           	callstack 0
  1541                           
  1542                           ; 4 bytes @ 0x3
  1543   000004                     	ds	1
  1544   000005                     ??_gpio_pin_direction_intialization:
  1545   000005                     ??_I2C_Slave_Mode_Configurations:
  1546   000005                     gpio_pin_write_logic@logic:
  1547                           	callstack 0
  1548   000005                     MSSP_I2C_Master_Send_Start@ret:
  1549                           	callstack 0
  1550   000005                     MSSP_I2C_Master_Send_Stop@ret:
  1551                           	callstack 0
  1552   000005                     MSSP_I2C_Master_Write_Blocking@i2c_data:
  1553                           	callstack 0
  1554   000005                     arr_compare@arr2:
  1555                           	callstack 0
  1556                           
  1557                           ; 1 bytes @ 0x4
  1558   000005                     	ds	1
  1559   000006                     ??_gpio_pin_write_logic:
  1560   000006                     ??_ADC_GetConversion:
  1561   000006                     MSSP_I2C_Master_Write_Blocking@_ack:
  1562                           	callstack 0
  1563   000006                     arr_compare@length:
  1564                           	callstack 0
  1565   000006                     fputc@fp:
  1566                           	callstack 0
  1567   000006                     ___awdiv@divisor:
  1568                           	callstack 0
  1569   000006                     ___awmod@divisor:
  1570                           	callstack 0
  1571   000006                     ___lwdiv@divisor:
  1572                           	callstack 0
  1573   000006                     memset@c:
  1574                           	callstack 0
  1575                           
  1576                           ; 2 bytes @ 0x5
  1577   000006                     	ds	1
  1578   000007                     ??_fputc:
  1579   000007                     ??_MSSP_I2C_Master_Write_Blocking:
  1580   000007                     
  1581                           ; 1 bytes @ 0x6
  1582   000007                     	ds	1
  1583   000008                     ??___xxtofl:
  1584   000008                     MSSP_I2C_Master_Write_Blocking@ret:
  1585                           	callstack 0
  1586   000008                     ADC_GetConversion@channel:
  1587                           	callstack 0
  1588   000008                     ___awdiv@counter:
  1589                           	callstack 0
  1590   000008                     ___awmod@counter:
  1591                           	callstack 0
  1592   000008                     ___lwdiv@counter:
  1593                           	callstack 0
  1594   000008                     memset@n:
  1595                           	callstack 0
  1596                           
  1597                           ; 2 bytes @ 0x7
  1598   000008                     	ds	1
  1599   000009                     MSSP_I2C_Send_1_Byte@_data:
  1600                           	callstack 0
  1601   000009                     arr_compare@itiration:
  1602                           	callstack 0
  1603   000009                     ___awdiv@sign:
  1604                           	callstack 0
  1605   000009                     ___awmod@sign:
  1606                           	callstack 0
  1607   000009                     ___lwdiv@quotient:
  1608                           	callstack 0
  1609                           
  1610                           ; 2 bytes @ 0x8
  1611   000009                     	ds	1
  1612   00000A                     ??_MSSP_I2C_Send_1_Byte:
  1613   00000A                     ?_abs:
  1614                           	callstack 0
  1615   00000A                     gpio_pin_direction_intialization@ret:
  1616                           	callstack 0
  1617   00000A                     ___awdiv@quotient:
  1618                           	callstack 0
  1619   00000A                     memset@p:
  1620                           	callstack 0
  1621   00000A                     abs@a:
  1622                           	callstack 0
  1623                           
  1624                           ; 2 bytes @ 0x9
  1625   00000A                     	ds	1
  1626   00000B                     ecu_motor_initialization@my_motor:
  1627                           	callstack 0
  1628   00000B                     gpio_pin_write_logic@ret:
  1629                           	callstack 0
  1630   00000B                     ecu_led_initialization@led:
  1631                           	callstack 0
  1632                           
  1633                           ; 1 bytes @ 0xA
  1634   00000B                     	ds	1
  1635   00000C                     ??_abs:
  1636   00000C                     ??_ecu_led_initialization:
  1637   00000C                     ecu_motor_move_right@my_motor:
  1638                           	callstack 0
  1639   00000C                     ecu_motor_stop@my_motor:
  1640                           	callstack 0
  1641   00000C                     send_4bits_data_command@lcd:
  1642                           	callstack 0
  1643   00000C                     send_4bits_enable@lcd:
  1644                           	callstack 0
  1645   00000C                     ecu_led_on@led:
  1646                           	callstack 0
  1647   00000C                     ecu_led_off@led:
  1648                           	callstack 0
  1649   00000C                     MSSP_I2C_Send_1_Byte@slave_add:
  1650                           	callstack 0
  1651   00000C                     ___xxtofl@sign:
  1652                           	callstack 0
  1653                           
  1654                           ; 1 bytes @ 0xB
  1655   00000C                     	ds	1
  1656   00000D                     ??_ecu_led_on:
  1657   00000D                     ??_ecu_led_off:
  1658   00000D                     send_4bits_data_command@data:
  1659                           	callstack 0
  1660   00000D                     send_4bits_enable@ret:
  1661                           	callstack 0
  1662   00000D                     ecu_led_initialization@mid_term:
  1663                           	callstack 0
  1664   00000D                     ___xxtofl@exp:
  1665                           	callstack 0
  1666                           
  1667                           ; 1 bytes @ 0xC
  1668   00000D                     	ds	1
  1669   00000E                     send_4bits_data_command@ret:
  1670                           	callstack 0
  1671   00000E                     ecu_led_on@mid_term:
  1672                           	callstack 0
  1673   00000E                     ecu_led_off@mid_term:
  1674                           	callstack 0
  1675   00000E                     vfpfcnvrt@fp:
  1676                           	callstack 0
  1677   00000E                     ___xxtofl@arg:
  1678                           	callstack 0
  1679                           
  1680                           ; 4 bytes @ 0xD
  1681   00000E                     	ds	1
  1682   00000F                     ecu_lcd_4_bits_send_command@lcd:
  1683                           	callstack 0
  1684   00000F                     ecu_lcd_4_bits_send_char_data@lcd:
  1685                           	callstack 0
  1686   00000F                     vfpfcnvrt@fmt:
  1687                           	callstack 0
  1688                           
  1689                           ; 1 bytes @ 0xE
  1690   00000F                     	ds	1
  1691   000010                     ecu_lcd_4_bits_send_command@command:
  1692                           	callstack 0
  1693   000010                     ecu_lcd_4_bits_send_char_data@data:
  1694                           	callstack 0
  1695   000010                     vfpfcnvrt@ap:
  1696                           	callstack 0
  1697                           
  1698                           ; 1 bytes @ 0xF
  1699   000010                     	ds	1
  1700   000011                     ??_vfpfcnvrt:
  1701   000011                     ecu_lcd_4_bits_send_command@ret:
  1702                           	callstack 0
  1703   000011                     ecu_lcd_4_bits_send_char_data@ret:
  1704                           	callstack 0
  1705                           
  1706                           ; 1 bytes @ 0x10
  1707   000011                     	ds	1
  1708   000012                     ?___fldiv:
  1709                           	callstack 0
  1710   000012                     ?___flmul:
  1711                           	callstack 0
  1712   000012                     ecu_lcd_4_bits_initialization@lcd:
  1713                           	callstack 0
  1714   000012                     send_4bits_set_cursor@lcd:
  1715                           	callstack 0
  1716   000012                     ___fldiv@b:
  1717                           	callstack 0
  1718   000012                     ___flmul@b:
  1719                           	callstack 0
  1720                           
  1721                           ; 4 bytes @ 0x11
  1722   000012                     	ds	1
  1723   000013                     ??_ecu_lcd_4_bits_initialization:
  1724   000013                     send_4bits_set_cursor@row:
  1725                           	callstack 0
  1726   000013                     vfpfcnvrt@done:
  1727                           	callstack 0
  1728                           
  1729                           ; 1 bytes @ 0x12
  1730   000013                     	ds	1
  1731   000014                     ecu_lcd_4_bits_initialization@counter:
  1732                           	callstack 0
  1733   000014                     send_4bits_set_cursor@column:
  1734                           	callstack 0
  1735   000014                     vfpfcnvrt@cp:
  1736                           	callstack 0
  1737                           
  1738                           ; 2 bytes @ 0x13
  1739   000014                     	ds	1
  1740   000015                     ecu_lcd_4_bits_initialization@ret:
  1741                           	callstack 0
  1742   000015                     ecu_lcd_4_bits_send_char_data_pos@lcd:
  1743                           	callstack 0
  1744   000015                     ecu_lcd_4_bits_send_string_data_pos@lcd:
  1745                           	callstack 0
  1746                           
  1747                           ; 1 bytes @ 0x14
  1748   000015                     	ds	1
  1749   000016                     ecu_lcd_4_bits_send_char_data_pos@data:
  1750                           	callstack 0
  1751   000016                     ecu_lcd_4_bits_send_string_data_pos@str:
  1752                           	callstack 0
  1753   000016                     ___fldiv@a:
  1754                           	callstack 0
  1755   000016                     ___flmul@a:
  1756                           	callstack 0
  1757   000016                     vfpfcnvrt@convarg:
  1758                           	callstack 0
  1759                           
  1760                           ; 4 bytes @ 0x15
  1761   000016                     	ds	1
  1762   000017                     ecu_lcd_4_bits_send_char_data_pos@row:
  1763                           	callstack 0
  1764                           
  1765                           ; 1 bytes @ 0x16
  1766   000017                     	ds	1
  1767   000018                     ecu_lcd_4_bits_send_char_data_pos@column:
  1768                           	callstack 0
  1769   000018                     ecu_lcd_4_bits_send_string_data_pos@row:
  1770                           	callstack 0
  1771                           
  1772                           ; 1 bytes @ 0x17
  1773   000018                     	ds	1
  1774   000019                     ecu_lcd_4_bits_send_char_data_pos@ret:
  1775                           	callstack 0
  1776   000019                     ecu_lcd_4_bits_send_string_data_pos@column:
  1777                           	callstack 0
  1778                           
  1779                           ; 1 bytes @ 0x18
  1780   000019                     	ds	1
  1781   00001A                     ??_check_password:
  1782   00001A                     ??_fire_check:
  1783   00001A                     ??___fldiv:
  1784   00001A                     ??___flmul:
  1785   00001A                     vfpfcnvrt@c:
  1786                           	callstack 0
  1787                           
  1788                           ; 1 bytes @ 0x19
  1789   00001A                     	ds	1
  1790   00001B                     ?_vfprintf:
  1791                           	callstack 0
  1792   00001B                     vfprintf@fp:
  1793                           	callstack 0
  1794                           
  1795                           ; 1 bytes @ 0x1A
  1796   00001B                     	ds	1
  1797   00001C                     vfprintf@fmt:
  1798                           	callstack 0
  1799                           
  1800                           ; 2 bytes @ 0x1B
  1801   00001C                     	ds	2
  1802   00001E                     ___flmul@sign:
  1803                           	callstack 0
  1804   00001E                     vfprintf@ap:
  1805                           	callstack 0
  1806   00001E                     ___fldiv@rem:
  1807                           	callstack 0
  1808                           
  1809                           ; 4 bytes @ 0x1D
  1810   00001E                     	ds	1
  1811   00001F                     ___flmul@aexp:
  1812                           	callstack 0
  1813   00001F                     vfprintf@cfmt:
  1814                           	callstack 0
  1815                           
  1816                           ; 2 bytes @ 0x1E
  1817   00001F                     	ds	1
  1818   000020                     ___flmul@grs:
  1819                           	callstack 0
  1820                           
  1821                           ; 4 bytes @ 0x1F
  1822   000020                     	ds	1
  1823   000021                     ?_sprintf:
  1824                           	callstack 0
  1825   000021                     sprintf@s:
  1826                           	callstack 0
  1827                           
  1828                           ; 2 bytes @ 0x20
  1829   000021                     	ds	1
  1830   000022                     ___fldiv@sign:
  1831                           	callstack 0
  1832                           
  1833                           ; 1 bytes @ 0x21
  1834   000022                     	ds	1
  1835   000023                     ___fldiv@new_exp:
  1836                           	callstack 0
  1837   000023                     sprintf@fmt:
  1838                           	callstack 0
  1839                           
  1840                           ; 2 bytes @ 0x22
  1841   000023                     	ds	1
  1842   000024                     ___flmul@bexp:
  1843                           	callstack 0
  1844                           
  1845                           ; 1 bytes @ 0x23
  1846   000024                     	ds	1
  1847   000025                     ___fldiv@grs:
  1848                           	callstack 0
  1849   000025                     ___flmul@prod:
  1850                           	callstack 0
  1851                           
  1852                           ; 4 bytes @ 0x24
  1853   000025                     	ds	4
  1854   000029                     ___fldiv@bexp:
  1855                           	callstack 0
  1856   000029                     sprintf@ap:
  1857                           	callstack 0
  1858   000029                     ___flmul@temp:
  1859                           	callstack 0
  1860                           
  1861                           ; 2 bytes @ 0x28
  1862   000029                     	ds	1
  1863   00002A                     ___fldiv@aexp:
  1864                           	callstack 0
  1865   00002A                     sprintf@f:
  1866                           	callstack 0
  1867                           
  1868                           ; 12 bytes @ 0x29
  1869   00002A                     	ds	1
  1870   00002B                     ?___fladd:
  1871                           	callstack 0
  1872   00002B                     ___fladd@b:
  1873                           	callstack 0
  1874                           
  1875                           ; 4 bytes @ 0x2A
  1876   00002B                     	ds	4
  1877   00002F                     ___fladd@a:
  1878                           	callstack 0
  1879                           
  1880                           ; 4 bytes @ 0x2E
  1881   00002F                     	ds	4
  1882   000033                     ??___fladd:
  1883                           
  1884                           ; 1 bytes @ 0x32
  1885   000033                     	ds	3
  1886   000036                     ecu_lcd_conver_16_bits_to_string@char_arr:
  1887                           	callstack 0
  1888                           
  1889                           ; 2 bytes @ 0x35
  1890   000036                     	ds	1
  1891   000037                     ___fladd@signs:
  1892                           	callstack 0
  1893                           
  1894                           ; 1 bytes @ 0x36
  1895   000037                     	ds	1
  1896   000038                     ___fladd@aexp:
  1897                           	callstack 0
  1898   000038                     ecu_lcd_conver_16_bits_to_string@value:
  1899                           	callstack 0
  1900                           
  1901                           ; 2 bytes @ 0x37
  1902   000038                     	ds	1
  1903   000039                     ___fladd@bexp:
  1904                           	callstack 0
  1905                           
  1906                           ; 1 bytes @ 0x38
  1907   000039                     	ds	1
  1908   00003A                     ___fladd@grs:
  1909                           	callstack 0
  1910                           
  1911                           ; 1 bytes @ 0x39
  1912   00003A                     	ds	1
  1913   00003B                     ?___fltol:
  1914                           	callstack 0
  1915   00003B                     ___fltol@f1:
  1916                           	callstack 0
  1917                           
  1918                           ; 4 bytes @ 0x3A
  1919   00003B                     	ds	4
  1920   00003F                     ??___fltol:
  1921                           
  1922                           ; 1 bytes @ 0x3E
  1923   00003F                     	ds	4
  1924   000043                     ___fltol@sign1:
  1925                           	callstack 0
  1926                           
  1927                           ; 1 bytes @ 0x42
  1928   000043                     	ds	1
  1929   000044                     ___fltol@exp1:
  1930                           	callstack 0
  1931                           
  1932                           ; 1 bytes @ 0x43
  1933   000044                     	ds	1
  1934   000045                     ??_room_1:
  1935   000045                     ??_room_2:
  1936   000045                     ??_garage:
  1937   000045                     I2C_Master_Mode_Clock_Configurations@i2c_obj:
  1938                           	callstack 0
  1939                           
  1940                           ; 1 bytes @ 0x44
  1941   000045                     	ds	1
  1942   000046                     ??_I2C_Master_Mode_Clock_Configurations:
  1943                           
  1944                           ; 1 bytes @ 0x45
  1945   000046                     	ds	1
  1946   000047                     MSSP_I2C_Init@i2c_obj:
  1947                           	callstack 0
  1948                           
  1949                           ; 1 bytes @ 0x46
  1950   000047                     	ds	1
  1951   000048                     ??_main:
  1952                           
  1953                           ; 1 bytes @ 0x47
  1954   000048                     	ds	2
  1955                           
  1956 ;;
  1957 ;;Main: autosize = 0, tempsize = 2, incstack = 0, save=0
  1958 ;;
  1959 ;; *************** function _main *****************
  1960 ;; Defined at:
  1961 ;;		line 131 in file "main.c"
  1962 ;; Parameters:    Size  Location     Type
  1963 ;;		None
  1964 ;; Auto vars:     Size  Location     Type
  1965 ;;		None
  1966 ;; Return value:  Size  Location     Type
  1967 ;;                  2  1996[None  ] int 
  1968 ;; Registers used:
  1969 ;;		wreg, fsr0l, fsr0h, fsr1l, fsr1h, fsr2l, fsr2h, status,2, status,0, tblptrl, tblptrh, tblptru, prodl, prodh, cstack
  1970 ;; Tracked objects:
  1971 ;;		On entry : 0/0
  1972 ;;		On exit  : 0/0
  1973 ;;		Unchanged: 0/0
  1974 ;; Data sizes:     COMRAM   BANK0   BANK1   BANK2   BANK3   BANK4   BANK5   BANK6   BANK7   BANK8   BANK9  BANK10  BANK1
      +1  BANK12  BANK13  BANK14  BANK15
  1975 ;;      Params:         0       0       0       0       0       0       0       0       0       0       0       0       
      +0       0       0       0       0
  1976 ;;      Locals:         0       0       0       0       0       0       0       0       0       0       0       0       
      +0       0       0       0       0
  1977 ;;      Temps:          2       0       0       0       0       0       0       0       0       0       0       0       
      +0       0       0       0       0
  1978 ;;      Totals:         2       0       0       0       0       0       0       0       0       0       0       0       
      +0       0       0       0       0
  1979 ;;Total ram usage:        2 bytes
  1980 ;; Hardware stack levels required when called: 11
  1981 ;; This function calls:
  1982 ;;		_EUSART_Read
  1983 ;;		_MSSP_I2C_Init
  1984 ;;		_MSSP_I2C_Send_1_Byte
  1985 ;;		_SYSTEM_Initialize
  1986 ;;		_check_password
  1987 ;;		_ecu_lcd_4_bits_initialization
  1988 ;;		_ecu_lcd_4_bits_send_command
  1989 ;;		_ecu_lcd_4_bits_send_string_data_pos
  1990 ;;		_garage
  1991 ;;		_home_page
  1992 ;;		_room_1
  1993 ;;		_room_2
  1994 ;; This function is called by:
  1995 ;;		Startup code after reset
  1996 ;; This function uses a non-reentrant model
  1997 ;;
  1998                           
  1999                           	psect	text0
  2000   001A82                     __ptext0:
  2001                           	callstack 0
  2002   001A82                     _main:
  2003                           	callstack 20
  2004   001A82                     
  2005                           ;main.c: 135:      SYSTEM_Initialize();
  2006   001A82  ECE6  F01A         	call	_SYSTEM_Initialize	;wreg free
  2007   001A86                     
  2008                           ;main.c: 136:      (TRISB &= ~((uint8)1 << 5));
  2009   001A86  9A93               	bcf	147,5,c	;volatile
  2010   001A88                     
  2011                           ;main.c: 137:      i2c_obj.i2c_clock = 100000;
  2012   001A88  0EA0               	movlw	160
  2013   001A8A  0100               	movlb	0	; () banked
  2014   001A8C  6FD0               	movwf	_i2c_obj& (0+255),b
  2015   001A8E  0E86               	movlw	134
  2016   001A90  6FD1               	movwf	(_i2c_obj+1)& (0+255),b
  2017   001A92  0E01               	movlw	1
  2018   001A94  6FD2               	movwf	(_i2c_obj+2)& (0+255),b
  2019   001A96  0E00               	movlw	0
  2020   001A98  6FD3               	movwf	(_i2c_obj+3)& (0+255),b
  2021   001A9A                     
  2022                           ; BSR set to: 0
  2023                           ;main.c: 138:     i2c_obj.i2c_cfg.i2c_mode = 1;
  2024   001A9A  81D6               	bsf	(_i2c_obj+6)& (0+255),0,b
  2025   001A9C                     
  2026                           ; BSR set to: 0
  2027                           ;main.c: 139:     i2c_obj.i2c_cfg.i2c_mode_cfg = 0x08U;
  2028   001A9C  0E08               	movlw	8
  2029   001A9E  6FD4               	movwf	(_i2c_obj+4)& (0+255),b
  2030   001AA0                     
  2031                           ; BSR set to: 0
  2032                           ;main.c: 140:     i2c_obj.i2c_cfg.i2c_SMBus_control = 0;
  2033   001AA0  95D6               	bcf	(_i2c_obj+6)& (0+255),2,b
  2034   001AA2                     
  2035                           ; BSR set to: 0
  2036                           ;main.c: 141:     i2c_obj.i2c_cfg.i2c_slew_rate = 1;
  2037   001AA2  83D6               	bsf	(_i2c_obj+6)& (0+255),1,b
  2038   001AA4                     
  2039                           ; BSR set to: 0
  2040                           ;main.c: 143:      MSSP_I2C_Init(&i2c_obj);
  2041   001AA4  0ED0               	movlw	low _i2c_obj
  2042   001AA6  6E47               	movwf	MSSP_I2C_Init@i2c_obj^0,c
  2043   001AA8  ECB5  F011         	call	_MSSP_I2C_Init	;wreg free
  2044   001AAC                     
  2045                           ;main.c: 145: MSSP_I2C_Send_1_Byte(0x06, 'o');
  2046   001AAC  0E6F               	movlw	111
  2047   001AAE  6E09               	movwf	MSSP_I2C_Send_1_Byte@_data^0,c
  2048   001AB0  0E06               	movlw	6
  2049   001AB2  ECAB  F016         	call	_MSSP_I2C_Send_1_Byte
  2050   001AB6                     
  2051                           ;main.c: 146: _delay((unsigned long)((100)*(8000000/4000.0)));
  2052   001AB6  0E02               	movlw	2
  2053   001AB8  6E49               	movwf	(??_main+1)^0,c
  2054   001ABA  0E04               	movlw	4
  2055   001ABC  6E48               	movwf	??_main^0,c
  2056   001ABE  0EBA               	movlw	186
  2057   001AC0                     u10547:
  2058   001AC0  2EE8               	decfsz	wreg,f,c
  2059   001AC2  D7FE               	bra	u10547
  2060   001AC4  2E48               	decfsz	??_main^0,f,c
  2061   001AC6  D7FC               	bra	u10547
  2062   001AC8  2E49               	decfsz	(??_main+1)^0,f,c
  2063   001ACA  D7FA               	bra	u10547
  2064   001ACC  F000 F000          	nop2	
  2065   001AD0                     
  2066                           ;main.c: 164: ecu_lcd_4_bits_initialization(&lcd);
  2067   001AD0  0E54               	movlw	low _lcd
  2068   001AD2  6E12               	movwf	ecu_lcd_4_bits_initialization@lcd^0,c
  2069   001AD4  ECDA  F013         	call	_ecu_lcd_4_bits_initialization	;wreg free
  2070   001AD8                     
  2071                           ;main.c: 165:              ecu_lcd_4_bits_send_string_data_pos(&lcd,"Welcome..!",2,5);
  2072   001AD8  0E54               	movlw	low _lcd
  2073   001ADA  6E15               	movwf	ecu_lcd_4_bits_send_string_data_pos@lcd^0,c
  2074   001ADC  0E6A               	movlw	low STR_4
  2075   001ADE  6E16               	movwf	ecu_lcd_4_bits_send_string_data_pos@str^0,c
  2076   001AE0  0EFF               	movlw	high STR_4
  2077   001AE2  6E17               	movwf	(ecu_lcd_4_bits_send_string_data_pos@str+1)^0,c
  2078   001AE4  0E02               	movlw	2
  2079   001AE6  6E18               	movwf	ecu_lcd_4_bits_send_string_data_pos@row^0,c
  2080   001AE8  0E05               	movlw	5
  2081   001AEA  6E19               	movwf	ecu_lcd_4_bits_send_string_data_pos@column^0,c
  2082   001AEC  ECCA  F015         	call	_ecu_lcd_4_bits_send_string_data_pos	;wreg free
  2083   001AF0                     
  2084                           ;main.c: 167:     _delay((unsigned long)((1000)*(8000000/4000.0)));
  2085   001AF0  0E0B               	movlw	11
  2086   001AF2  6E49               	movwf	(??_main+1)^0,c
  2087   001AF4  0E26               	movlw	38
  2088   001AF6  6E48               	movwf	??_main^0,c
  2089   001AF8  0E5E               	movlw	94
  2090   001AFA                     u10557:
  2091   001AFA  2EE8               	decfsz	wreg,f,c
  2092   001AFC  D7FE               	bra	u10557
  2093   001AFE  2E48               	decfsz	??_main^0,f,c
  2094   001B00  D7FC               	bra	u10557
  2095   001B02  2E49               	decfsz	(??_main+1)^0,f,c
  2096   001B04  D7FA               	bra	u10557
  2097   001B06                     
  2098                           ;main.c: 168:          ecu_lcd_4_bits_send_command(&lcd,0X01);
  2099   001B06  0E54               	movlw	low _lcd
  2100   001B08  6E0F               	movwf	ecu_lcd_4_bits_send_command@lcd^0,c
  2101   001B0A  0E01               	movlw	1
  2102   001B0C  6E10               	movwf	ecu_lcd_4_bits_send_command@command^0,c
  2103   001B0E  ECCC  F018         	call	_ecu_lcd_4_bits_send_command	;wreg free
  2104   001B12                     
  2105                           ;main.c: 171:          check_password();
  2106   001B12  EC04  F011         	call	_check_password	;wreg free
  2107   001B16                     
  2108                           ;main.c: 175:                        ecu_lcd_4_bits_send_string_data_pos(&lcd," Welcome 
      +                          Home..!",2,1);
  2109   001B16  0E54               	movlw	low _lcd
  2110   001B18  6E15               	movwf	ecu_lcd_4_bits_send_string_data_pos@lcd^0,c
  2111   001B1A  0E14               	movlw	low STR_5
  2112   001B1C  6E16               	movwf	ecu_lcd_4_bits_send_string_data_pos@str^0,c
  2113   001B1E  0EFF               	movlw	high STR_5
  2114   001B20  6E17               	movwf	(ecu_lcd_4_bits_send_string_data_pos@str+1)^0,c
  2115   001B22  0E02               	movlw	2
  2116   001B24  6E18               	movwf	ecu_lcd_4_bits_send_string_data_pos@row^0,c
  2117   001B26  0E01               	movlw	1
  2118   001B28  6E19               	movwf	ecu_lcd_4_bits_send_string_data_pos@column^0,c
  2119   001B2A  ECCA  F015         	call	_ecu_lcd_4_bits_send_string_data_pos	;wreg free
  2120   001B2E                     
  2121                           ;main.c: 176:                        _delay((unsigned long)((2000)*(8000000/4000.0)));
  2122   001B2E  0E15               	movlw	21
  2123   001B30  6E49               	movwf	(??_main+1)^0,c
  2124   001B32  0E4B               	movlw	75
  2125   001B34  6E48               	movwf	??_main^0,c
  2126   001B36  0EBE               	movlw	190
  2127   001B38                     u10567:
  2128   001B38  2EE8               	decfsz	wreg,f,c
  2129   001B3A  D7FE               	bra	u10567
  2130   001B3C  2E48               	decfsz	??_main^0,f,c
  2131   001B3E  D7FC               	bra	u10567
  2132   001B40  2E49               	decfsz	(??_main+1)^0,f,c
  2133   001B42  D7FA               	bra	u10567
  2134   001B44  F000 F000          	nop2	
  2135   001B48                     
  2136                           ;main.c: 177:                        ecu_lcd_4_bits_send_command(&lcd,0X01);
  2137   001B48  0E54               	movlw	low _lcd
  2138   001B4A  6E0F               	movwf	ecu_lcd_4_bits_send_command@lcd^0,c
  2139   001B4C  0E01               	movlw	1
  2140   001B4E  6E10               	movwf	ecu_lcd_4_bits_send_command@command^0,c
  2141   001B50  ECCC  F018         	call	_ecu_lcd_4_bits_send_command	;wreg free
  2142   001B54                     l12941:
  2143                           
  2144                           ;main.c: 178:                              home_page();
  2145   001B54  EC47  F00F         	call	_home_page	;wreg free
  2146   001B58                     l12943:
  2147                           
  2148                           ;main.c: 183:     {;main.c: 184:       ecu_lcd_4_bits_send_command(&lcd,0X01);
  2149   001B58  0E54               	movlw	low _lcd
  2150   001B5A  6E0F               	movwf	ecu_lcd_4_bits_send_command@lcd^0,c
  2151   001B5C  0E01               	movlw	1
  2152   001B5E  6E10               	movwf	ecu_lcd_4_bits_send_command@command^0,c
  2153   001B60  ECCC  F018         	call	_ecu_lcd_4_bits_send_command	;wreg free
  2154   001B64                     
  2155                           ;main.c: 185:       ecu_lcd_4_bits_send_string_data_pos(&lcd," 1-ROOM 1",1,1);
  2156   001B64  0E54               	movlw	low _lcd
  2157   001B66  6E15               	movwf	ecu_lcd_4_bits_send_string_data_pos@lcd^0,c
  2158   001B68  0E8B               	movlw	low STR_6
  2159   001B6A  6E16               	movwf	ecu_lcd_4_bits_send_string_data_pos@str^0,c
  2160   001B6C  0EFF               	movlw	high STR_6
  2161   001B6E  6E17               	movwf	(ecu_lcd_4_bits_send_string_data_pos@str+1)^0,c
  2162   001B70  0E01               	movlw	1
  2163   001B72  6E18               	movwf	ecu_lcd_4_bits_send_string_data_pos@row^0,c
  2164   001B74  0E01               	movlw	1
  2165   001B76  6E19               	movwf	ecu_lcd_4_bits_send_string_data_pos@column^0,c
  2166   001B78  ECCA  F015         	call	_ecu_lcd_4_bits_send_string_data_pos	;wreg free
  2167   001B7C                     
  2168                           ;main.c: 186:       ecu_lcd_4_bits_send_string_data_pos(&lcd," 2-ROOM 2",2,1);
  2169   001B7C  0E54               	movlw	low _lcd
  2170   001B7E  6E15               	movwf	ecu_lcd_4_bits_send_string_data_pos@lcd^0,c
  2171   001B80  0E95               	movlw	low STR_7
  2172   001B82  6E16               	movwf	ecu_lcd_4_bits_send_string_data_pos@str^0,c
  2173   001B84  0EFF               	movlw	high STR_7
  2174   001B86  6E17               	movwf	(ecu_lcd_4_bits_send_string_data_pos@str+1)^0,c
  2175   001B88  0E02               	movlw	2
  2176   001B8A  6E18               	movwf	ecu_lcd_4_bits_send_string_data_pos@row^0,c
  2177   001B8C  0E01               	movlw	1
  2178   001B8E  6E19               	movwf	ecu_lcd_4_bits_send_string_data_pos@column^0,c
  2179   001B90  ECCA  F015         	call	_ecu_lcd_4_bits_send_string_data_pos	;wreg free
  2180   001B94                     
  2181                           ;main.c: 187:       ecu_lcd_4_bits_send_string_data_pos(&lcd," 3-GARAGE",3,1);
  2182   001B94  0E54               	movlw	low _lcd
  2183   001B96  6E15               	movwf	ecu_lcd_4_bits_send_string_data_pos@lcd^0,c
  2184   001B98  0E9F               	movlw	low STR_8
  2185   001B9A  6E16               	movwf	ecu_lcd_4_bits_send_string_data_pos@str^0,c
  2186   001B9C  0EFF               	movlw	high STR_8
  2187   001B9E  6E17               	movwf	(ecu_lcd_4_bits_send_string_data_pos@str+1)^0,c
  2188   001BA0  0E03               	movlw	3
  2189   001BA2  6E18               	movwf	ecu_lcd_4_bits_send_string_data_pos@row^0,c
  2190   001BA4  0E01               	movlw	1
  2191   001BA6  6E19               	movwf	ecu_lcd_4_bits_send_string_data_pos@column^0,c
  2192   001BA8  ECCA  F015         	call	_ecu_lcd_4_bits_send_string_data_pos	;wreg free
  2193   001BAC                     
  2194                           ;main.c: 188:       ecu_lcd_4_bits_send_string_data_pos(&lcd," 4-RETURN",4,1);
  2195   001BAC  0E54               	movlw	low _lcd
  2196   001BAE  6E15               	movwf	ecu_lcd_4_bits_send_string_data_pos@lcd^0,c
  2197   001BB0  0EC7               	movlw	low STR_9
  2198   001BB2  6E16               	movwf	ecu_lcd_4_bits_send_string_data_pos@str^0,c
  2199   001BB4  0EFF               	movlw	high STR_9
  2200   001BB6  6E17               	movwf	(ecu_lcd_4_bits_send_string_data_pos@str+1)^0,c
  2201   001BB8  0E04               	movlw	4
  2202   001BBA  6E18               	movwf	ecu_lcd_4_bits_send_string_data_pos@row^0,c
  2203   001BBC  0E01               	movlw	1
  2204   001BBE  6E19               	movwf	ecu_lcd_4_bits_send_string_data_pos@column^0,c
  2205   001BC0  ECCA  F015         	call	_ecu_lcd_4_bits_send_string_data_pos	;wreg free
  2206   001BC4                     
  2207                           ;main.c: 189:       place = EUSART_Read();
  2208   001BC4  EC7A  F01A         	call	_EUSART_Read	;wreg free
  2209   001BC8  6E4F               	movwf	_place^0,c
  2210                           
  2211                           ;main.c: 190:       switch(place){
  2212   001BCA  EF3D  F00E         	goto	l12979
  2213   001BCE                     l12955:
  2214                           
  2215                           ;main.c: 192:                     ecu_lcd_4_bits_send_command(&lcd,0X01);
  2216   001BCE  0E54               	movlw	low _lcd
  2217   001BD0  6E0F               	movwf	ecu_lcd_4_bits_send_command@lcd^0,c
  2218   001BD2  0E01               	movlw	1
  2219   001BD4  6E10               	movwf	ecu_lcd_4_bits_send_command@command^0,c
  2220   001BD6  ECCC  F018         	call	_ecu_lcd_4_bits_send_command	;wreg free
  2221   001BDA                     
  2222                           ;main.c: 193:                     ecu_lcd_4_bits_send_string_data_pos(&lcd," Welcome to 
      +                          first room",1,1);
  2223   001BDA  0E54               	movlw	low _lcd
  2224   001BDC  6E15               	movwf	ecu_lcd_4_bits_send_string_data_pos@lcd^0,c
  2225   001BDE  0E5F               	movlw	low STR_10
  2226   001BE0  6E16               	movwf	ecu_lcd_4_bits_send_string_data_pos@str^0,c
  2227   001BE2  0EFE               	movlw	high STR_10
  2228   001BE4  6E17               	movwf	(ecu_lcd_4_bits_send_string_data_pos@str+1)^0,c
  2229   001BE6  0E01               	movlw	1
  2230   001BE8  6E18               	movwf	ecu_lcd_4_bits_send_string_data_pos@row^0,c
  2231   001BEA  0E01               	movlw	1
  2232   001BEC  6E19               	movwf	ecu_lcd_4_bits_send_string_data_pos@column^0,c
  2233   001BEE  ECCA  F015         	call	_ecu_lcd_4_bits_send_string_data_pos	;wreg free
  2234   001BF2                     
  2235                           ;main.c: 194:                     room_1();
  2236   001BF2  EC2D  F000         	call	_room_1	;wreg free
  2237                           
  2238                           ;main.c: 195:                     break;
  2239   001BF6  EFAC  F00D         	goto	l12943
  2240   001BFA                     l12961:
  2241                           
  2242                           ;main.c: 197:                     ecu_lcd_4_bits_send_command(&lcd,0X01);
  2243   001BFA  0E54               	movlw	low _lcd
  2244   001BFC  6E0F               	movwf	ecu_lcd_4_bits_send_command@lcd^0,c
  2245   001BFE  0E01               	movlw	1
  2246   001C00  6E10               	movwf	ecu_lcd_4_bits_send_command@command^0,c
  2247   001C02  ECCC  F018         	call	_ecu_lcd_4_bits_send_command	;wreg free
  2248   001C06                     
  2249                           ;main.c: 198:                     ecu_lcd_4_bits_send_string_data_pos(&lcd," Welcome to 
      +                          second room",1,1);
  2250   001C06  0E54               	movlw	low _lcd
  2251   001C08  6E15               	movwf	ecu_lcd_4_bits_send_string_data_pos@lcd^0,c
  2252   001C0A  0E30               	movlw	low STR_11
  2253   001C0C  6E16               	movwf	ecu_lcd_4_bits_send_string_data_pos@str^0,c
  2254   001C0E  0EFE               	movlw	high STR_11
  2255   001C10  6E17               	movwf	(ecu_lcd_4_bits_send_string_data_pos@str+1)^0,c
  2256   001C12  0E01               	movlw	1
  2257   001C14  6E18               	movwf	ecu_lcd_4_bits_send_string_data_pos@row^0,c
  2258   001C16  0E01               	movlw	1
  2259   001C18  6E19               	movwf	ecu_lcd_4_bits_send_string_data_pos@column^0,c
  2260   001C1A  ECCA  F015         	call	_ecu_lcd_4_bits_send_string_data_pos	;wreg free
  2261   001C1E                     
  2262                           ;main.c: 199:                     room_2();
  2263   001C1E  ECC6  F002         	call	_room_2	;wreg free
  2264                           
  2265                           ;main.c: 200:               break;
  2266   001C22  EFAC  F00D         	goto	l12943
  2267   001C26                     l12967:
  2268                           
  2269                           ;main.c: 202:                     ecu_lcd_4_bits_send_command(&lcd,0X01);
  2270   001C26  0E54               	movlw	low _lcd
  2271   001C28  6E0F               	movwf	ecu_lcd_4_bits_send_command@lcd^0,c
  2272   001C2A  0E01               	movlw	1
  2273   001C2C  6E10               	movwf	ecu_lcd_4_bits_send_command@command^0,c
  2274   001C2E  ECCC  F018         	call	_ecu_lcd_4_bits_send_command	;wreg free
  2275   001C32                     
  2276                           ;main.c: 203:                     ecu_lcd_4_bits_send_string_data_pos(&lcd," Welcome to 
      +                          garage",1,1);
  2277   001C32  0E54               	movlw	low _lcd
  2278   001C34  6E15               	movwf	ecu_lcd_4_bits_send_string_data_pos@lcd^0,c
  2279   001C36  0EEF               	movlw	low STR_12
  2280   001C38  6E16               	movwf	ecu_lcd_4_bits_send_string_data_pos@str^0,c
  2281   001C3A  0EFE               	movlw	high STR_12
  2282   001C3C  6E17               	movwf	(ecu_lcd_4_bits_send_string_data_pos@str+1)^0,c
  2283   001C3E  0E01               	movlw	1
  2284   001C40  6E18               	movwf	ecu_lcd_4_bits_send_string_data_pos@row^0,c
  2285   001C42  0E01               	movlw	1
  2286   001C44  6E19               	movwf	ecu_lcd_4_bits_send_string_data_pos@column^0,c
  2287   001C46  ECCA  F015         	call	_ecu_lcd_4_bits_send_string_data_pos	;wreg free
  2288   001C4A                     
  2289                           ;main.c: 204:                     garage();
  2290   001C4A  EC95  F00B         	call	_garage	;wreg free
  2291                           
  2292                           ;main.c: 205:               break;
  2293   001C4E  EFAC  F00D         	goto	l12943
  2294   001C52                     l12975:
  2295                           
  2296                           ;main.c: 213:                     ecu_lcd_4_bits_send_command(&lcd,0X01);
  2297   001C52  0E54               	movlw	low _lcd
  2298   001C54  6E0F               	movwf	ecu_lcd_4_bits_send_command@lcd^0,c
  2299   001C56  0E01               	movlw	1
  2300   001C58  6E10               	movwf	ecu_lcd_4_bits_send_command@command^0,c
  2301   001C5A  ECCC  F018         	call	_ecu_lcd_4_bits_send_command	;wreg free
  2302   001C5E                     
  2303                           ;main.c: 214:                     ecu_lcd_4_bits_send_string_data_pos(&lcd," please Choo
      +                          se Correct Place",1,1);
  2304   001C5E  0E54               	movlw	low _lcd
  2305   001C60  6E15               	movwf	ecu_lcd_4_bits_send_string_data_pos@lcd^0,c
  2306   001C62  0E13               	movlw	low STR_13
  2307   001C64  6E16               	movwf	ecu_lcd_4_bits_send_string_data_pos@str^0,c
  2308   001C66  0EFE               	movlw	high STR_13
  2309   001C68  6E17               	movwf	(ecu_lcd_4_bits_send_string_data_pos@str+1)^0,c
  2310   001C6A  0E01               	movlw	1
  2311   001C6C  6E18               	movwf	ecu_lcd_4_bits_send_string_data_pos@row^0,c
  2312   001C6E  0E01               	movlw	1
  2313   001C70  6E19               	movwf	ecu_lcd_4_bits_send_string_data_pos@column^0,c
  2314   001C72  ECCA  F015         	call	_ecu_lcd_4_bits_send_string_data_pos	;wreg free
  2315                           
  2316                           ;main.c: 215:       }
  2317   001C76  EFAC  F00D         	goto	l12943
  2318   001C7A                     l12979:
  2319   001C7A  504F               	movf	_place^0,w,c
  2320                           
  2321                           ; Switch size 1, requested type "simple"
  2322                           ; Number of cases is 4, Range of values is 252 to 255
  2323                           ; switch strategies available:
  2324                           ; Name         Instructions Cycles
  2325                           ; simple_byte           13     7 (average)
  2326                           ;	Chosen strategy is simple_byte
  2327   001C7C  0AFC               	xorlw	252	; case 252
  2328   001C7E  B4D8               	btfsc	status,2,c
  2329   001C80  EFE7  F00D         	goto	l12955
  2330   001C84  0A01               	xorlw	1	; case 253
  2331   001C86  B4D8               	btfsc	status,2,c
  2332   001C88  EFFD  F00D         	goto	l12961
  2333   001C8C  0A03               	xorlw	3	; case 254
  2334   001C8E  B4D8               	btfsc	status,2,c
  2335   001C90  EF13  F00E         	goto	l12967
  2336   001C94  0A01               	xorlw	1	; case 255
  2337   001C96  B4D8               	btfsc	status,2,c
  2338   001C98  EFAA  F00D         	goto	l12941
  2339   001C9C  EF29  F00E         	goto	l12975
  2340   001CA0  EF2B  F000         	goto	start
  2341   001CA4                     __end_of_main:
  2342                           	callstack 0
  2343                           
  2344 ;; *************** function _room_2 *****************
  2345 ;; Defined at:
  2346 ;;		line 454 in file "main.c"
  2347 ;; Parameters:    Size  Location     Type
  2348 ;;		None
  2349 ;; Auto vars:     Size  Location     Type
  2350 ;;  temp_string     1    4[BANK1 ] unsigned char [1]
  2351 ;;  stat            1    3[BANK1 ] unsigned char 
  2352 ;;  door_status2    1    2[BANK1 ] unsigned char 
  2353 ;;  door_status1    1    1[BANK1 ] unsigned char 
  2354 ;;  room            1    0[BANK1 ] unsigned char 
  2355 ;; Return value:  Size  Location     Type
  2356 ;;                  1    wreg      void 
  2357 ;; Registers used:
  2358 ;;		wreg, fsr0l, fsr0h, fsr1l, fsr1h, fsr2l, fsr2h, status,2, status,0, tblptrl, tblptrh, tblptru, prodl, prodh, cstack
  2359 ;; Tracked objects:
  2360 ;;		On entry : 0/0
  2361 ;;		On exit  : 0/0
  2362 ;;		Unchanged: 0/0
  2363 ;; Data sizes:     COMRAM   BANK0   BANK1   BANK2   BANK3   BANK4   BANK5   BANK6   BANK7   BANK8   BANK9  BANK10  BANK1
      +1  BANK12  BANK13  BANK14  BANK15
  2364 ;;      Params:         0       0       0       0       0       0       0       0       0       0       0       0       
      +0       0       0       0       0
  2365 ;;      Locals:         0       0       5       0       0       0       0       0       0       0       0       0       
      +0       0       0       0       0
  2366 ;;      Temps:          2       0       0       0       0       0       0       0       0       0       0       0       
      +0       0       0       0       0
  2367 ;;      Totals:         2       0       5       0       0       0       0       0       0       0       0       0       
      +0       0       0       0       0
  2368 ;;Total ram usage:        7 bytes
  2369 ;; Hardware stack levels used: 1
  2370 ;; Hardware stack levels required when called: 10
  2371 ;; This function calls:
  2372 ;;		_ADC_GetConversion
  2373 ;;		_EUSART_Read
  2374 ;;		_MSSP_I2C_Send_1_Byte
  2375 ;;		___flmul
  2376 ;;		___fltol
  2377 ;;		___lwdiv
  2378 ;;		___xxtofl
  2379 ;;		_ecu_lcd_4_bits_send_command
  2380 ;;		_ecu_lcd_4_bits_send_string_data_pos
  2381 ;;		_ecu_lcd_conver_16_bits_to_string
  2382 ;; This function is called by:
  2383 ;;		_main
  2384 ;; This function uses a non-reentrant model
  2385 ;;
  2386                           
  2387                           	psect	text1
  2388   00058C                     __ptext1:
  2389                           	callstack 0
  2390   00058C                     _room_2:
  2391                           	callstack 20
  2392   00058C                     
  2393                           ;main.c: 456:     uint8_t room=0;
  2394   00058C  0E00               	movlw	0
  2395   00058E  0101               	movlb	1	; () banked
  2396   000590  6F35               	movwf	room_2@room& (0+255),b
  2397                           
  2398                           ;main.c: 457:     uint8_t stat=0;
  2399   000592  0E00               	movlw	0
  2400   000594  6F38               	movwf	room_2@stat& (0+255),b
  2401                           
  2402                           ;main.c: 458:     uint8_t door_status1=0;
  2403   000596  0E00               	movlw	0
  2404   000598  6F36               	movwf	room_2@door_status1& (0+255),b
  2405                           
  2406                           ;main.c: 459:     uint8_t door_status2=0;
  2407   00059A  0E00               	movlw	0
  2408   00059C  6F37               	movwf	room_2@door_status2& (0+255),b
  2409                           
  2410                           ;main.c: 460:     uint8_t temp_string[]={0};
  2411   00059E  0E00               	movlw	0
  2412   0005A0  6F39               	movwf	room_2@temp_string& (0+255),b
  2413                           
  2414                           ;main.c: 463:     while (!room){
  2415   0005A2  EF49  F005         	goto	l12785
  2416   0005A6                     l12647:
  2417                           
  2418                           ; BSR set to: 1
  2419                           ;main.c: 465:         ecu_lcd_4_bits_send_command(&lcd,0X01);
  2420   0005A6  0E54               	movlw	low _lcd
  2421   0005A8  6E0F               	movwf	ecu_lcd_4_bits_send_command@lcd^0,c
  2422   0005AA  0E01               	movlw	1
  2423   0005AC  6E10               	movwf	ecu_lcd_4_bits_send_command@command^0,c
  2424   0005AE  ECCC  F018         	call	_ecu_lcd_4_bits_send_command	;wreg free
  2425   0005B2                     
  2426                           ;main.c: 466:       ecu_lcd_4_bits_send_string_data_pos(&lcd," 1-Fan",1,1);
  2427   0005B2  0E54               	movlw	low _lcd
  2428   0005B4  6E15               	movwf	ecu_lcd_4_bits_send_string_data_pos@lcd^0,c
  2429   0005B6  0EF4               	movlw	low STR_21
  2430   0005B8  6E16               	movwf	ecu_lcd_4_bits_send_string_data_pos@str^0,c
  2431   0005BA  0EFF               	movlw	high STR_21
  2432   0005BC  6E17               	movwf	(ecu_lcd_4_bits_send_string_data_pos@str+1)^0,c
  2433   0005BE  0E01               	movlw	1
  2434   0005C0  6E18               	movwf	ecu_lcd_4_bits_send_string_data_pos@row^0,c
  2435   0005C2  0E01               	movlw	1
  2436   0005C4  6E19               	movwf	ecu_lcd_4_bits_send_string_data_pos@column^0,c
  2437   0005C6  ECCA  F015         	call	_ecu_lcd_4_bits_send_string_data_pos	;wreg free
  2438   0005CA                     
  2439                           ;main.c: 467:       ecu_lcd_4_bits_send_string_data_pos(&lcd," 2-led",2,1);
  2440   0005CA  0E54               	movlw	low _lcd
  2441   0005CC  6E15               	movwf	ecu_lcd_4_bits_send_string_data_pos@lcd^0,c
  2442   0005CE  0EED               	movlw	low STR_22
  2443   0005D0  6E16               	movwf	ecu_lcd_4_bits_send_string_data_pos@str^0,c
  2444   0005D2  0EFF               	movlw	high STR_22
  2445   0005D4  6E17               	movwf	(ecu_lcd_4_bits_send_string_data_pos@str+1)^0,c
  2446   0005D6  0E02               	movlw	2
  2447   0005D8  6E18               	movwf	ecu_lcd_4_bits_send_string_data_pos@row^0,c
  2448   0005DA  0E01               	movlw	1
  2449   0005DC  6E19               	movwf	ecu_lcd_4_bits_send_string_data_pos@column^0,c
  2450   0005DE  ECCA  F015         	call	_ecu_lcd_4_bits_send_string_data_pos	;wreg free
  2451   0005E2                     
  2452                           ;main.c: 468:       ecu_lcd_4_bits_send_string_data_pos(&lcd," 3-read temperature",3,1);
  2453   0005E2  0E54               	movlw	low _lcd
  2454   0005E4  6E15               	movwf	ecu_lcd_4_bits_send_string_data_pos@lcd^0,c
  2455   0005E6  0EB5               	movlw	low STR_23
  2456   0005E8  6E16               	movwf	ecu_lcd_4_bits_send_string_data_pos@str^0,c
  2457   0005EA  0EFE               	movlw	high STR_23
  2458   0005EC  6E17               	movwf	(ecu_lcd_4_bits_send_string_data_pos@str+1)^0,c
  2459   0005EE  0E03               	movlw	3
  2460   0005F0  6E18               	movwf	ecu_lcd_4_bits_send_string_data_pos@row^0,c
  2461   0005F2  0E01               	movlw	1
  2462   0005F4  6E19               	movwf	ecu_lcd_4_bits_send_string_data_pos@column^0,c
  2463   0005F6  ECCA  F015         	call	_ecu_lcd_4_bits_send_string_data_pos	;wreg free
  2464   0005FA                     
  2465                           ;main.c: 469:       ecu_lcd_4_bits_send_string_data_pos(&lcd," 4-Door ",4,1);
  2466   0005FA  0E54               	movlw	low _lcd
  2467   0005FC  6E15               	movwf	ecu_lcd_4_bits_send_string_data_pos@lcd^0,c
  2468   0005FE  0EE4               	movlw	low STR_24
  2469   000600  6E16               	movwf	ecu_lcd_4_bits_send_string_data_pos@str^0,c
  2470   000602  0EFF               	movlw	high STR_24
  2471   000604  6E17               	movwf	(ecu_lcd_4_bits_send_string_data_pos@str+1)^0,c
  2472   000606  0E04               	movlw	4
  2473   000608  6E18               	movwf	ecu_lcd_4_bits_send_string_data_pos@row^0,c
  2474   00060A  0E01               	movlw	1
  2475   00060C  6E19               	movwf	ecu_lcd_4_bits_send_string_data_pos@column^0,c
  2476   00060E  ECCA  F015         	call	_ecu_lcd_4_bits_send_string_data_pos	;wreg free
  2477   000612                     
  2478                           ;main.c: 470:       ecu_lcd_4_bits_send_string_data_pos(&lcd," 5-RETURN",4,8);
  2479   000612  0E54               	movlw	low _lcd
  2480   000614  6E15               	movwf	ecu_lcd_4_bits_send_string_data_pos@lcd^0,c
  2481   000616  0ED1               	movlw	low STR_25
  2482   000618  6E16               	movwf	ecu_lcd_4_bits_send_string_data_pos@str^0,c
  2483   00061A  0EFF               	movlw	high STR_25
  2484   00061C  6E17               	movwf	(ecu_lcd_4_bits_send_string_data_pos@str+1)^0,c
  2485   00061E  0E04               	movlw	4
  2486   000620  6E18               	movwf	ecu_lcd_4_bits_send_string_data_pos@row^0,c
  2487   000622  0E08               	movlw	8
  2488   000624  6E19               	movwf	ecu_lcd_4_bits_send_string_data_pos@column^0,c
  2489   000626  ECCA  F015         	call	_ecu_lcd_4_bits_send_string_data_pos	;wreg free
  2490   00062A                     
  2491                           ;main.c: 471:       place =EUSART_Read();
  2492   00062A  EC7A  F01A         	call	_EUSART_Read	;wreg free
  2493   00062E  6E4F               	movwf	_place^0,c
  2494                           
  2495                           ;main.c: 473:       switch(place){
  2496   000630  EF32  F005         	goto	l12783
  2497   000634                     l2094:
  2498                           
  2499                           ;main.c: 475:             while(!stat){
  2500   000634  EF8A  F003         	goto	l12691
  2501   000638                     l12661:
  2502                           
  2503                           ; BSR set to: 1
  2504                           ;main.c: 476:               ecu_lcd_4_bits_send_command(&lcd,0X01);
  2505   000638  0E54               	movlw	low _lcd
  2506   00063A  6E0F               	movwf	ecu_lcd_4_bits_send_command@lcd^0,c
  2507   00063C  0E01               	movlw	1
  2508   00063E  6E10               	movwf	ecu_lcd_4_bits_send_command@command^0,c
  2509   000640  ECCC  F018         	call	_ecu_lcd_4_bits_send_command	;wreg free
  2510   000644                     
  2511                           ;main.c: 478:               ecu_lcd_4_bits_send_string_data_pos(&lcd," 1-Fan_ON",1,1);
  2512   000644  0E54               	movlw	low _lcd
  2513   000646  6E15               	movwf	ecu_lcd_4_bits_send_string_data_pos@lcd^0,c
  2514   000648  0EB3               	movlw	low STR_26
  2515   00064A  6E16               	movwf	ecu_lcd_4_bits_send_string_data_pos@str^0,c
  2516   00064C  0EFF               	movlw	high STR_26
  2517   00064E  6E17               	movwf	(ecu_lcd_4_bits_send_string_data_pos@str+1)^0,c
  2518   000650  0E01               	movlw	1
  2519   000652  6E18               	movwf	ecu_lcd_4_bits_send_string_data_pos@row^0,c
  2520   000654  0E01               	movlw	1
  2521   000656  6E19               	movwf	ecu_lcd_4_bits_send_string_data_pos@column^0,c
  2522   000658  ECCA  F015         	call	_ecu_lcd_4_bits_send_string_data_pos	;wreg free
  2523   00065C                     
  2524                           ;main.c: 479:               ecu_lcd_4_bits_send_string_data_pos(&lcd," 2-Fan_OFF",2,1);
  2525   00065C  0E54               	movlw	low _lcd
  2526   00065E  6E15               	movwf	ecu_lcd_4_bits_send_string_data_pos@lcd^0,c
  2527   000660  0E80               	movlw	low STR_27
  2528   000662  6E16               	movwf	ecu_lcd_4_bits_send_string_data_pos@str^0,c
  2529   000664  0EFF               	movlw	high STR_27
  2530   000666  6E17               	movwf	(ecu_lcd_4_bits_send_string_data_pos@str+1)^0,c
  2531   000668  0E02               	movlw	2
  2532   00066A  6E18               	movwf	ecu_lcd_4_bits_send_string_data_pos@row^0,c
  2533   00066C  0E01               	movlw	1
  2534   00066E  6E19               	movwf	ecu_lcd_4_bits_send_string_data_pos@column^0,c
  2535   000670  ECCA  F015         	call	_ecu_lcd_4_bits_send_string_data_pos	;wreg free
  2536   000674                     
  2537                           ;main.c: 480:               ecu_lcd_4_bits_send_string_data_pos(&lcd," 3-RETURN",3,1);
  2538   000674  0E54               	movlw	low _lcd
  2539   000676  6E15               	movwf	ecu_lcd_4_bits_send_string_data_pos@lcd^0,c
  2540   000678  0EBD               	movlw	low STR_28
  2541   00067A  6E16               	movwf	ecu_lcd_4_bits_send_string_data_pos@str^0,c
  2542   00067C  0EFF               	movlw	high STR_28
  2543   00067E  6E17               	movwf	(ecu_lcd_4_bits_send_string_data_pos@str+1)^0,c
  2544   000680  0E03               	movlw	3
  2545   000682  6E18               	movwf	ecu_lcd_4_bits_send_string_data_pos@row^0,c
  2546   000684  0E01               	movlw	1
  2547   000686  6E19               	movwf	ecu_lcd_4_bits_send_string_data_pos@column^0,c
  2548   000688  ECCA  F015         	call	_ecu_lcd_4_bits_send_string_data_pos	;wreg free
  2549   00068C                     
  2550                           ;main.c: 481:               device=0;
  2551   00068C  0E00               	movlw	0
  2552   00068E  6E4D               	movwf	(_device+1)^0,c
  2553   000690  0E00               	movlw	0
  2554   000692  6E4C               	movwf	_device^0,c
  2555   000694                     
  2556                           ;main.c: 482:               device =EUSART_Read();
  2557   000694  EC7A  F01A         	call	_EUSART_Read	;wreg free
  2558   000698  6E45               	movwf	??_room_2^0,c
  2559   00069A  5045               	movf	??_room_2^0,w,c
  2560   00069C  6E4C               	movwf	_device^0,c
  2561   00069E  6A4D               	clrf	(_device+1)^0,c
  2562   0006A0                     
  2563                           ;main.c: 483:               if(252==device){
  2564   0006A0  0EFC               	movlw	252
  2565   0006A2  184C               	xorwf	_device^0,w,c
  2566   0006A4  104D               	iorwf	(_device+1)^0,w,c
  2567   0006A6  A4D8               	btfss	status,2,c
  2568   0006A8  EF58  F003         	goto	u10301
  2569   0006AC  EF5A  F003         	goto	u10300
  2570   0006B0                     u10301:
  2571   0006B0  EF6D  F003         	goto	l12679
  2572   0006B4                     u10300:
  2573   0006B4                     
  2574                           ;main.c: 484:                   MSSP_I2C_Send_1_Byte(0x06, 'a');
  2575   0006B4  0E61               	movlw	97
  2576   0006B6  6E09               	movwf	MSSP_I2C_Send_1_Byte@_data^0,c
  2577   0006B8  0E06               	movlw	6
  2578   0006BA  ECAB  F016         	call	_MSSP_I2C_Send_1_Byte
  2579   0006BE                     l12677:
  2580                           
  2581                           ;main.c: 485:                   _delay((unsigned long)((251)*(8000000/4000.0)));
  2582   0006BE  0E03               	movlw	3
  2583   0006C0  6E46               	movwf	(??_room_2+1)^0,c
  2584   0006C2  0E8C               	movlw	140
  2585   0006C4  6E45               	movwf	??_room_2^0,c
  2586   0006C6  0EEF               	movlw	239
  2587   0006C8                     u10577:
  2588   0006C8  2EE8               	decfsz	wreg,f,c
  2589   0006CA  D7FE               	bra	u10577
  2590   0006CC  2E45               	decfsz	??_room_2^0,f,c
  2591   0006CE  D7FC               	bra	u10577
  2592   0006D0  2E46               	decfsz	(??_room_2+1)^0,f,c
  2593   0006D2  D7FA               	bra	u10577
  2594   0006D4  0000               	nop	
  2595                           
  2596                           ;main.c: 486:               }
  2597   0006D6  EF8A  F003         	goto	l12691
  2598   0006DA                     l12679:
  2599   0006DA  0EFD               	movlw	253
  2600   0006DC  184C               	xorwf	_device^0,w,c
  2601   0006DE  104D               	iorwf	(_device+1)^0,w,c
  2602   0006E0  A4D8               	btfss	status,2,c
  2603   0006E2  EF75  F003         	goto	u10311
  2604   0006E6  EF77  F003         	goto	u10310
  2605   0006EA                     u10311:
  2606   0006EA  EF7E  F003         	goto	l12685
  2607   0006EE                     u10310:
  2608   0006EE                     
  2609                           ;main.c: 488:                   MSSP_I2C_Send_1_Byte(0x06, 'b');
  2610   0006EE  0E62               	movlw	98
  2611   0006F0  6E09               	movwf	MSSP_I2C_Send_1_Byte@_data^0,c
  2612   0006F2  0E06               	movlw	6
  2613   0006F4  ECAB  F016         	call	_MSSP_I2C_Send_1_Byte
  2614   0006F8  EF5F  F003         	goto	l12677
  2615   0006FC                     l12685:
  2616   0006FC  0EFE               	movlw	254
  2617   0006FE  184C               	xorwf	_device^0,w,c
  2618   000700  104D               	iorwf	(_device+1)^0,w,c
  2619   000702  A4D8               	btfss	status,2,c
  2620   000704  EF86  F003         	goto	u10321
  2621   000708  EF88  F003         	goto	u10320
  2622   00070C                     u10321:
  2623   00070C  EF1A  F003         	goto	l2094
  2624   000710                     u10320:
  2625   000710  EF49  F005         	goto	l12785
  2626   000714                     l12691:
  2627                           
  2628                           ;main.c: 475:             while(!stat){
  2629   000714  0101               	movlb	1	; () banked
  2630   000716  5138               	movf	room_2@stat& (0+255),w,b
  2631   000718  B4D8               	btfsc	status,2,c
  2632   00071A  EF91  F003         	goto	u10331
  2633   00071E  EF93  F003         	goto	u10330
  2634   000722                     u10331:
  2635   000722  EF1C  F003         	goto	l12661
  2636   000726                     u10330:
  2637   000726  EF49  F005         	goto	l12785
  2638   00072A                     l12693:
  2639                           
  2640                           ;main.c: 499:               ecu_lcd_4_bits_send_command(&lcd,0X01);
  2641   00072A  0E54               	movlw	low _lcd
  2642   00072C  6E0F               	movwf	ecu_lcd_4_bits_send_command@lcd^0,c
  2643   00072E  0E01               	movlw	1
  2644   000730  6E10               	movwf	ecu_lcd_4_bits_send_command@command^0,c
  2645   000732  ECCC  F018         	call	_ecu_lcd_4_bits_send_command	;wreg free
  2646                           
  2647                           ;main.c: 500:             while(!stat){
  2648   000736  EF05  F004         	goto	l12719
  2649   00073A                     l12695:
  2650                           
  2651                           ; BSR set to: 1
  2652                           ;main.c: 501:               ecu_lcd_4_bits_send_string_data_pos(&lcd," 1-LED_ON",1,1);
  2653   00073A  0E54               	movlw	low _lcd
  2654   00073C  6E15               	movwf	ecu_lcd_4_bits_send_string_data_pos@lcd^0,c
  2655   00073E  0EA9               	movlw	low STR_29
  2656   000740  6E16               	movwf	ecu_lcd_4_bits_send_string_data_pos@str^0,c
  2657   000742  0EFF               	movlw	high STR_29
  2658   000744  6E17               	movwf	(ecu_lcd_4_bits_send_string_data_pos@str+1)^0,c
  2659   000746  0E01               	movlw	1
  2660   000748  6E18               	movwf	ecu_lcd_4_bits_send_string_data_pos@row^0,c
  2661   00074A  0E01               	movlw	1
  2662   00074C  6E19               	movwf	ecu_lcd_4_bits_send_string_data_pos@column^0,c
  2663   00074E  ECCA  F015         	call	_ecu_lcd_4_bits_send_string_data_pos	;wreg free
  2664                           
  2665                           ;main.c: 502:               ecu_lcd_4_bits_send_string_data_pos(&lcd," 2-LED_OFF",2,1);
  2666   000752  0E54               	movlw	low _lcd
  2667   000754  6E15               	movwf	ecu_lcd_4_bits_send_string_data_pos@lcd^0,c
  2668   000756  0E75               	movlw	low STR_30
  2669   000758  6E16               	movwf	ecu_lcd_4_bits_send_string_data_pos@str^0,c
  2670   00075A  0EFF               	movlw	high STR_30
  2671   00075C  6E17               	movwf	(ecu_lcd_4_bits_send_string_data_pos@str+1)^0,c
  2672   00075E  0E02               	movlw	2
  2673   000760  6E18               	movwf	ecu_lcd_4_bits_send_string_data_pos@row^0,c
  2674   000762  0E01               	movlw	1
  2675   000764  6E19               	movwf	ecu_lcd_4_bits_send_string_data_pos@column^0,c
  2676   000766  ECCA  F015         	call	_ecu_lcd_4_bits_send_string_data_pos	;wreg free
  2677                           
  2678                           ;main.c: 503:               ecu_lcd_4_bits_send_string_data_pos(&lcd," 3-RETURN",3,1);
  2679   00076A  0E54               	movlw	low _lcd
  2680   00076C  6E15               	movwf	ecu_lcd_4_bits_send_string_data_pos@lcd^0,c
  2681   00076E  0EBD               	movlw	low STR_28
  2682   000770  6E16               	movwf	ecu_lcd_4_bits_send_string_data_pos@str^0,c
  2683   000772  0EFF               	movlw	high STR_28
  2684   000774  6E17               	movwf	(ecu_lcd_4_bits_send_string_data_pos@str+1)^0,c
  2685   000776  0E03               	movlw	3
  2686   000778  6E18               	movwf	ecu_lcd_4_bits_send_string_data_pos@row^0,c
  2687   00077A  0E01               	movlw	1
  2688   00077C  6E19               	movwf	ecu_lcd_4_bits_send_string_data_pos@column^0,c
  2689   00077E  ECCA  F015         	call	_ecu_lcd_4_bits_send_string_data_pos	;wreg free
  2690   000782                     
  2691                           ;main.c: 504:               device=0;
  2692   000782  0E00               	movlw	0
  2693   000784  6E4D               	movwf	(_device+1)^0,c
  2694   000786  0E00               	movlw	0
  2695   000788  6E4C               	movwf	_device^0,c
  2696   00078A                     
  2697                           ;main.c: 505:               device =EUSART_Read();
  2698   00078A  EC7A  F01A         	call	_EUSART_Read	;wreg free
  2699   00078E  6E45               	movwf	??_room_2^0,c
  2700   000790  5045               	movf	??_room_2^0,w,c
  2701   000792  6E4C               	movwf	_device^0,c
  2702   000794  6A4D               	clrf	(_device+1)^0,c
  2703   000796                     
  2704                           ;main.c: 506:               if(252==device){
  2705   000796  0EFC               	movlw	252
  2706   000798  184C               	xorwf	_device^0,w,c
  2707   00079A  104D               	iorwf	(_device+1)^0,w,c
  2708   00079C  A4D8               	btfss	status,2,c
  2709   00079E  EFD3  F003         	goto	u10341
  2710   0007A2  EFD5  F003         	goto	u10340
  2711   0007A6                     u10341:
  2712   0007A6  EFE8  F003         	goto	l12707
  2713   0007AA                     u10340:
  2714   0007AA                     
  2715                           ;main.c: 507:                   MSSP_I2C_Send_1_Byte(0x06, 'c');
  2716   0007AA  0E63               	movlw	99
  2717   0007AC  6E09               	movwf	MSSP_I2C_Send_1_Byte@_data^0,c
  2718   0007AE  0E06               	movlw	6
  2719   0007B0  ECAB  F016         	call	_MSSP_I2C_Send_1_Byte
  2720   0007B4                     l12705:
  2721                           
  2722                           ;main.c: 508:                   _delay((unsigned long)((251)*(8000000/4000.0)));
  2723   0007B4  0E03               	movlw	3
  2724   0007B6  6E46               	movwf	(??_room_2+1)^0,c
  2725   0007B8  0E8C               	movlw	140
  2726   0007BA  6E45               	movwf	??_room_2^0,c
  2727   0007BC  0EEF               	movlw	239
  2728   0007BE                     u10587:
  2729   0007BE  2EE8               	decfsz	wreg,f,c
  2730   0007C0  D7FE               	bra	u10587
  2731   0007C2  2E45               	decfsz	??_room_2^0,f,c
  2732   0007C4  D7FC               	bra	u10587
  2733   0007C6  2E46               	decfsz	(??_room_2+1)^0,f,c
  2734   0007C8  D7FA               	bra	u10587
  2735   0007CA  0000               	nop	
  2736                           
  2737                           ;main.c: 510:               }
  2738   0007CC  EF05  F004         	goto	l12719
  2739   0007D0                     l12707:
  2740   0007D0  0EFD               	movlw	253
  2741   0007D2  184C               	xorwf	_device^0,w,c
  2742   0007D4  104D               	iorwf	(_device+1)^0,w,c
  2743   0007D6  A4D8               	btfss	status,2,c
  2744   0007D8  EFF0  F003         	goto	u10351
  2745   0007DC  EFF2  F003         	goto	u10350
  2746   0007E0                     u10351:
  2747   0007E0  EFF9  F003         	goto	l12713
  2748   0007E4                     u10350:
  2749   0007E4                     
  2750                           ;main.c: 512:                   MSSP_I2C_Send_1_Byte(0x06, 'd');
  2751   0007E4  0E64               	movlw	100
  2752   0007E6  6E09               	movwf	MSSP_I2C_Send_1_Byte@_data^0,c
  2753   0007E8  0E06               	movlw	6
  2754   0007EA  ECAB  F016         	call	_MSSP_I2C_Send_1_Byte
  2755   0007EE  EFDA  F003         	goto	l12705
  2756   0007F2                     l12713:
  2757   0007F2  0EFE               	movlw	254
  2758   0007F4  184C               	xorwf	_device^0,w,c
  2759   0007F6  104D               	iorwf	(_device+1)^0,w,c
  2760   0007F8  A4D8               	btfss	status,2,c
  2761   0007FA  EF01  F004         	goto	u10361
  2762   0007FE  EF03  F004         	goto	u10360
  2763   000802                     u10361:
  2764   000802  EF05  F004         	goto	l2109
  2765   000806                     u10360:
  2766   000806  EF49  F005         	goto	l12785
  2767   00080A                     l2109:
  2768   00080A                     l12719:
  2769                           
  2770                           ;main.c: 500:             while(!stat){
  2771   00080A  0101               	movlb	1	; () banked
  2772   00080C  5138               	movf	room_2@stat& (0+255),w,b
  2773   00080E  B4D8               	btfsc	status,2,c
  2774   000810  EF0C  F004         	goto	u10371
  2775   000814  EF0E  F004         	goto	u10370
  2776   000818                     u10371:
  2777   000818  EF9D  F003         	goto	l12695
  2778   00081C                     u10370:
  2779   00081C  EF49  F005         	goto	l12785
  2780   000820                     l12721:
  2781                           
  2782                           ;main.c: 523:                device=0;
  2783   000820  0E00               	movlw	0
  2784   000822  6E4D               	movwf	(_device+1)^0,c
  2785   000824  0E00               	movlw	0
  2786   000826  6E4C               	movwf	_device^0,c
  2787   000828                     
  2788                           ;main.c: 525:                   ecu_lcd_4_bits_send_command(&lcd,0X01);
  2789   000828  0E54               	movlw	low _lcd
  2790   00082A  6E0F               	movwf	ecu_lcd_4_bits_send_command@lcd^0,c
  2791   00082C  0E01               	movlw	1
  2792   00082E  6E10               	movwf	ecu_lcd_4_bits_send_command@command^0,c
  2793   000830  ECCC  F018         	call	_ecu_lcd_4_bits_send_command	;wreg free
  2794   000834                     
  2795                           ;main.c: 527:                   ecu_lcd_4_bits_send_string_data_pos(&lcd," Temperature :
      +                           ",1,1);
  2796   000834  0E54               	movlw	low _lcd
  2797   000836  6E15               	movwf	ecu_lcd_4_bits_send_string_data_pos@lcd^0,c
  2798   000838  0E25               	movlw	low STR_32
  2799   00083A  6E16               	movwf	ecu_lcd_4_bits_send_string_data_pos@str^0,c
  2800   00083C  0EFF               	movlw	high STR_32
  2801   00083E  6E17               	movwf	(ecu_lcd_4_bits_send_string_data_pos@str+1)^0,c
  2802   000840  0E01               	movlw	1
  2803   000842  6E18               	movwf	ecu_lcd_4_bits_send_string_data_pos@row^0,c
  2804   000844  0E01               	movlw	1
  2805   000846  6E19               	movwf	ecu_lcd_4_bits_send_string_data_pos@column^0,c
  2806   000848  ECCA  F015         	call	_ecu_lcd_4_bits_send_string_data_pos	;wreg free
  2807   00084C                     
  2808                           ;main.c: 528:                   device=ADC_GetConversion(1);
  2809   00084C  0E01               	movlw	1
  2810   00084E  ECE1  F019         	call	_ADC_GetConversion
  2811   000852  C004  F04C         	movff	?_ADC_GetConversion,_device
  2812   000856  C005  F04D         	movff	?_ADC_GetConversion+1,_device+1
  2813   00085A                     
  2814                           ;main.c: 529:                     lm35_res_1_Celsius_mv = device * 4.88f;
  2815   00085A  0EF6               	movlw	246
  2816   00085C  6E16               	movwf	___flmul@a^0,c
  2817   00085E  0E28               	movlw	40
  2818   000860  6E17               	movwf	(___flmul@a+1)^0,c
  2819   000862  0E9C               	movlw	156
  2820   000864  6E18               	movwf	(___flmul@a+2)^0,c
  2821   000866  0E40               	movlw	64
  2822   000868  6E19               	movwf	(___flmul@a+3)^0,c
  2823   00086A  C04C  F004         	movff	_device,___xxtofl@val
  2824   00086E  C04D  F005         	movff	_device+1,___xxtofl@val+1
  2825   000872  6A06               	clrf	(___xxtofl@val+2)^0,c
  2826   000874  6A07               	clrf	(___xxtofl@val+3)^0,c
  2827   000876  0E00               	movlw	0
  2828   000878  EC2A  F010         	call	___xxtofl
  2829   00087C  C004  F012         	movff	?___xxtofl,___flmul@b
  2830   000880  C005  F013         	movff	?___xxtofl+1,___flmul@b+1
  2831   000884  C006  F014         	movff	?___xxtofl+2,___flmul@b+2
  2832   000888  C007  F015         	movff	?___xxtofl+3,___flmul@b+3
  2833   00088C  ECB3  F007         	call	___flmul	;wreg free
  2834   000890  C012  F03B         	movff	?___flmul,___fltol@f1
  2835   000894  C013  F03C         	movff	?___flmul+1,___fltol@f1+1
  2836   000898  C014  F03D         	movff	?___flmul+2,___fltol@f1+2
  2837   00089C  C015  F03E         	movff	?___flmul+3,___fltol@f1+3
  2838   0008A0  EC57  F013         	call	___fltol	;wreg free
  2839   0008A4  C03B  F04A         	movff	?___fltol,_lm35_res_1_Celsius_mv
  2840   0008A8  C03C  F04B         	movff	?___fltol+1,_lm35_res_1_Celsius_mv+1
  2841   0008AC                     
  2842                           ;main.c: 530:                      lm35_res_1_Celsius_mv /= 620;
  2843   0008AC  C04A  F004         	movff	_lm35_res_1_Celsius_mv,___lwdiv@dividend
  2844   0008B0  C04B  F005         	movff	_lm35_res_1_Celsius_mv+1,___lwdiv@dividend+1
  2845   0008B4  0E02               	movlw	2
  2846   0008B6  6E07               	movwf	(___lwdiv@divisor+1)^0,c
  2847   0008B8  0E6C               	movlw	108
  2848   0008BA  6E06               	movwf	___lwdiv@divisor^0,c
  2849   0008BC  EC2D  F017         	call	___lwdiv	;wreg free
  2850   0008C0  C004  F04A         	movff	?___lwdiv,_lm35_res_1_Celsius_mv
  2851   0008C4  C005  F04B         	movff	?___lwdiv+1,_lm35_res_1_Celsius_mv+1
  2852   0008C8                     
  2853                           ;main.c: 531:                   ecu_lcd_conver_16_bits_to_string(temp_string,lm35_res_1_
      +                          Celsius_mv);
  2854   0008C8  0E39               	movlw	low room_2@temp_string
  2855   0008CA  6E36               	movwf	ecu_lcd_conver_16_bits_to_string@char_arr^0,c
  2856   0008CC  0E01               	movlw	high room_2@temp_string
  2857   0008CE  6E37               	movwf	(ecu_lcd_conver_16_bits_to_string@char_arr+1)^0,c
  2858   0008D0  C04A  F038         	movff	_lm35_res_1_Celsius_mv,ecu_lcd_conver_16_bits_to_string@value
  2859   0008D4  C04B  F039         	movff	_lm35_res_1_Celsius_mv+1,ecu_lcd_conver_16_bits_to_string@value+1
  2860   0008D8  EC6E  F018         	call	_ecu_lcd_conver_16_bits_to_string	;wreg free
  2861   0008DC                     
  2862                           ;main.c: 532:                   ecu_lcd_4_bits_send_string_data_pos(&lcd,temp_string,1,1
      +                          6);
  2863   0008DC  0E54               	movlw	low _lcd
  2864   0008DE  6E15               	movwf	ecu_lcd_4_bits_send_string_data_pos@lcd^0,c
  2865   0008E0  0E39               	movlw	low room_2@temp_string
  2866   0008E2  6E16               	movwf	ecu_lcd_4_bits_send_string_data_pos@str^0,c
  2867   0008E4  0E01               	movlw	high room_2@temp_string
  2868   0008E6  6E17               	movwf	(ecu_lcd_4_bits_send_string_data_pos@str+1)^0,c
  2869   0008E8  0E01               	movlw	1
  2870   0008EA  6E18               	movwf	ecu_lcd_4_bits_send_string_data_pos@row^0,c
  2871   0008EC  0E10               	movlw	16
  2872   0008EE  6E19               	movwf	ecu_lcd_4_bits_send_string_data_pos@column^0,c
  2873   0008F0  ECCA  F015         	call	_ecu_lcd_4_bits_send_string_data_pos	;wreg free
  2874   0008F4                     
  2875                           ;main.c: 533:                   _delay((unsigned long)((3000)*(8000000/4000.0)));
  2876   0008F4  0E1F               	movlw	31
  2877   0008F6  6E46               	movwf	(??_room_2+1)^0,c
  2878   0008F8  0E71               	movlw	113
  2879   0008FA  6E45               	movwf	??_room_2^0,c
  2880   0008FC  0E1E               	movlw	30
  2881   0008FE                     u10597:
  2882   0008FE  2EE8               	decfsz	wreg,f,c
  2883   000900  D7FE               	bra	u10597
  2884   000902  2E45               	decfsz	??_room_2^0,f,c
  2885   000904  D7FC               	bra	u10597
  2886   000906  2E46               	decfsz	(??_room_2+1)^0,f,c
  2887   000908  D7FA               	bra	u10597
  2888   00090A  F000 F000          	nop2	
  2889                           
  2890                           ;main.c: 534:                   break;
  2891   00090E  EF49  F005         	goto	l12785
  2892   000912                     l12739:
  2893                           
  2894                           ;main.c: 537:                   ecu_lcd_4_bits_send_command(&lcd,0X01);
  2895   000912  0E54               	movlw	low _lcd
  2896   000914  6E0F               	movwf	ecu_lcd_4_bits_send_command@lcd^0,c
  2897   000916  0E01               	movlw	1
  2898   000918  6E10               	movwf	ecu_lcd_4_bits_send_command@command^0,c
  2899   00091A  ECCC  F018         	call	_ecu_lcd_4_bits_send_command	;wreg free
  2900                           
  2901                           ;main.c: 539:             while(!stat){
  2902   00091E  EF07  F005         	goto	l12773
  2903   000922                     l12741:
  2904                           
  2905                           ; BSR set to: 1
  2906                           ;main.c: 540:                   ecu_lcd_4_bits_send_string_data_pos(&lcd," 1-OPEN DOOR",
      +                          1,1);
  2907   000922  0E54               	movlw	low _lcd
  2908   000924  6E15               	movwf	ecu_lcd_4_bits_send_string_data_pos@lcd^0,c
  2909   000926  0E52               	movlw	low STR_33
  2910   000928  6E16               	movwf	ecu_lcd_4_bits_send_string_data_pos@str^0,c
  2911   00092A  0EFF               	movlw	high STR_33
  2912   00092C  6E17               	movwf	(ecu_lcd_4_bits_send_string_data_pos@str+1)^0,c
  2913   00092E  0E01               	movlw	1
  2914   000930  6E18               	movwf	ecu_lcd_4_bits_send_string_data_pos@row^0,c
  2915   000932  0E01               	movlw	1
  2916   000934  6E19               	movwf	ecu_lcd_4_bits_send_string_data_pos@column^0,c
  2917   000936  ECCA  F015         	call	_ecu_lcd_4_bits_send_string_data_pos	;wreg free
  2918                           
  2919                           ;main.c: 541:                   ecu_lcd_4_bits_send_string_data_pos(&lcd," 2-CLOSE DOOR"
      +                          ,2,1);
  2920   00093A  0E54               	movlw	low _lcd
  2921   00093C  6E15               	movwf	ecu_lcd_4_bits_send_string_data_pos@lcd^0,c
  2922   00093E  0E44               	movlw	low STR_34
  2923   000940  6E16               	movwf	ecu_lcd_4_bits_send_string_data_pos@str^0,c
  2924   000942  0EFF               	movlw	high STR_34
  2925   000944  6E17               	movwf	(ecu_lcd_4_bits_send_string_data_pos@str+1)^0,c
  2926   000946  0E02               	movlw	2
  2927   000948  6E18               	movwf	ecu_lcd_4_bits_send_string_data_pos@row^0,c
  2928   00094A  0E01               	movlw	1
  2929   00094C  6E19               	movwf	ecu_lcd_4_bits_send_string_data_pos@column^0,c
  2930   00094E  ECCA  F015         	call	_ecu_lcd_4_bits_send_string_data_pos	;wreg free
  2931                           
  2932                           ;main.c: 542:                   ecu_lcd_4_bits_send_string_data_pos(&lcd," 3-RETURN",3,1
      +                          );
  2933   000952  0E54               	movlw	low _lcd
  2934   000954  6E15               	movwf	ecu_lcd_4_bits_send_string_data_pos@lcd^0,c
  2935   000956  0EBD               	movlw	low STR_28
  2936   000958  6E16               	movwf	ecu_lcd_4_bits_send_string_data_pos@str^0,c
  2937   00095A  0EFF               	movlw	high STR_28
  2938   00095C  6E17               	movwf	(ecu_lcd_4_bits_send_string_data_pos@str+1)^0,c
  2939   00095E  0E03               	movlw	3
  2940   000960  6E18               	movwf	ecu_lcd_4_bits_send_string_data_pos@row^0,c
  2941   000962  0E01               	movlw	1
  2942   000964  6E19               	movwf	ecu_lcd_4_bits_send_string_data_pos@column^0,c
  2943   000966  ECCA  F015         	call	_ecu_lcd_4_bits_send_string_data_pos	;wreg free
  2944   00096A                     
  2945                           ;main.c: 543:                     device=0;
  2946   00096A  0E00               	movlw	0
  2947   00096C  6E4D               	movwf	(_device+1)^0,c
  2948   00096E  0E00               	movlw	0
  2949   000970  6E4C               	movwf	_device^0,c
  2950   000972                     
  2951                           ;main.c: 544:                     device =EUSART_Read();
  2952   000972  EC7A  F01A         	call	_EUSART_Read	;wreg free
  2953   000976  6E45               	movwf	??_room_2^0,c
  2954   000978  5045               	movf	??_room_2^0,w,c
  2955   00097A  6E4C               	movwf	_device^0,c
  2956   00097C  6A4D               	clrf	(_device+1)^0,c
  2957   00097E                     
  2958                           ;main.c: 547:                     if(252==device && 0==door_status1 ){
  2959   00097E  0EFC               	movlw	252
  2960   000980  184C               	xorwf	_device^0,w,c
  2961   000982  104D               	iorwf	(_device+1)^0,w,c
  2962   000984  A4D8               	btfss	status,2,c
  2963   000986  EFC7  F004         	goto	u10381
  2964   00098A  EFC9  F004         	goto	u10380
  2965   00098E                     u10381:
  2966   00098E  EFDD  F004         	goto	l12757
  2967   000992                     u10380:
  2968   000992  0101               	movlb	1	; () banked
  2969   000994  5136               	movf	room_2@door_status1& (0+255),w,b
  2970   000996  A4D8               	btfss	status,2,c
  2971   000998  EFD0  F004         	goto	u10391
  2972   00099C  EFD2  F004         	goto	u10390
  2973   0009A0                     u10391:
  2974   0009A0  EFDD  F004         	goto	l12757
  2975   0009A4                     u10390:
  2976   0009A4                     
  2977                           ; BSR set to: 1
  2978                           ;main.c: 548:                         MSSP_I2C_Send_1_Byte(0x06, 'e');
  2979   0009A4  0E65               	movlw	101
  2980   0009A6  6E09               	movwf	MSSP_I2C_Send_1_Byte@_data^0,c
  2981   0009A8  0E06               	movlw	6
  2982   0009AA  ECAB  F016         	call	_MSSP_I2C_Send_1_Byte
  2983   0009AE                     
  2984                           ;main.c: 553:                         door_status2=0;
  2985   0009AE  0E00               	movlw	0
  2986   0009B0  0101               	movlb	1	; () banked
  2987   0009B2  6F37               	movwf	room_2@door_status2& (0+255),b
  2988   0009B4                     
  2989                           ; BSR set to: 1
  2990                           ;main.c: 554:                         door_status1++;
  2991   0009B4  2B36               	incf	room_2@door_status1& (0+255),f,b
  2992                           
  2993                           ;main.c: 556:                     }
  2994   0009B6  EF07  F005         	goto	l12773
  2995   0009BA                     l12757:
  2996   0009BA  0EFD               	movlw	253
  2997   0009BC  184C               	xorwf	_device^0,w,c
  2998   0009BE  104D               	iorwf	(_device+1)^0,w,c
  2999   0009C0  A4D8               	btfss	status,2,c
  3000   0009C2  EFE5  F004         	goto	u10401
  3001   0009C6  EFE7  F004         	goto	u10400
  3002   0009CA                     u10401:
  3003   0009CA  EFFB  F004         	goto	l12767
  3004   0009CE                     u10400:
  3005   0009CE  0101               	movlb	1	; () banked
  3006   0009D0  5137               	movf	room_2@door_status2& (0+255),w,b
  3007   0009D2  A4D8               	btfss	status,2,c
  3008   0009D4  EFEE  F004         	goto	u10411
  3009   0009D8  EFF0  F004         	goto	u10410
  3010   0009DC                     u10411:
  3011   0009DC  EFFB  F004         	goto	l12767
  3012   0009E0                     u10410:
  3013   0009E0                     
  3014                           ; BSR set to: 1
  3015                           ;main.c: 558:                         MSSP_I2C_Send_1_Byte(0x06, 'q');
  3016   0009E0  0E71               	movlw	113
  3017   0009E2  6E09               	movwf	MSSP_I2C_Send_1_Byte@_data^0,c
  3018   0009E4  0E06               	movlw	6
  3019   0009E6  ECAB  F016         	call	_MSSP_I2C_Send_1_Byte
  3020   0009EA                     
  3021                           ;main.c: 563:                          door_status2++;
  3022   0009EA  0101               	movlb	1	; () banked
  3023   0009EC  2B37               	incf	room_2@door_status2& (0+255),f,b
  3024   0009EE                     
  3025                           ; BSR set to: 1
  3026                           ;main.c: 564:                         door_status1=0;
  3027   0009EE  0E00               	movlw	0
  3028   0009F0  6F36               	movwf	room_2@door_status1& (0+255),b
  3029                           
  3030                           ;main.c: 566:                     }
  3031   0009F2  EF07  F005         	goto	l12773
  3032   0009F6                     l12767:
  3033   0009F6  0EFE               	movlw	254
  3034   0009F8  184C               	xorwf	_device^0,w,c
  3035   0009FA  104D               	iorwf	(_device+1)^0,w,c
  3036   0009FC  A4D8               	btfss	status,2,c
  3037   0009FE  EF03  F005         	goto	u10421
  3038   000A02  EF05  F005         	goto	u10420
  3039   000A06                     u10421:
  3040   000A06  EF07  F005         	goto	l2120
  3041   000A0A                     u10420:
  3042   000A0A  EF49  F005         	goto	l12785
  3043   000A0E                     l2120:
  3044   000A0E                     l12773:
  3045                           
  3046                           ;main.c: 539:             while(!stat){
  3047   000A0E  0101               	movlb	1	; () banked
  3048   000A10  5138               	movf	room_2@stat& (0+255),w,b
  3049   000A12  B4D8               	btfsc	status,2,c
  3050   000A14  EF0E  F005         	goto	u10431
  3051   000A18  EF10  F005         	goto	u10430
  3052   000A1C                     u10431:
  3053   000A1C  EF91  F004         	goto	l12741
  3054   000A20                     u10430:
  3055   000A20  EF49  F005         	goto	l12785
  3056   000A24                     l12775:
  3057                           
  3058                           ;main.c: 576:                  _delay((unsigned long)((5)*(8000000/4000.0)));
  3059   000A24  0E0D               	movlw	13
  3060   000A26  6E45               	movwf	??_room_2^0,c
  3061   000A28  0EFC               	movlw	252
  3062   000A2A                     u10607:
  3063   000A2A  2EE8               	decfsz	wreg,f,c
  3064   000A2C  D7FE               	bra	u10607
  3065   000A2E  2E45               	decfsz	??_room_2^0,f,c
  3066   000A30  D7FC               	bra	u10607
  3067   000A32                     
  3068                           ;main.c: 577:                  room=1;
  3069   000A32  0E01               	movlw	1
  3070   000A34  0101               	movlb	1	; () banked
  3071   000A36  6F35               	movwf	room_2@room& (0+255),b
  3072                           
  3073                           ;main.c: 578:               break;
  3074   000A38  EF49  F005         	goto	l12785
  3075   000A3C                     l12779:
  3076                           
  3077                           ;main.c: 580:                     ecu_lcd_4_bits_send_command(&lcd,0X01);
  3078   000A3C  0E54               	movlw	low _lcd
  3079   000A3E  6E0F               	movwf	ecu_lcd_4_bits_send_command@lcd^0,c
  3080   000A40  0E01               	movlw	1
  3081   000A42  6E10               	movwf	ecu_lcd_4_bits_send_command@command^0,c
  3082   000A44  ECCC  F018         	call	_ecu_lcd_4_bits_send_command	;wreg free
  3083   000A48                     
  3084                           ;main.c: 581:                     ecu_lcd_4_bits_send_string_data_pos(&lcd," please Choo
      +                          se Correct Device",1,1);
  3085   000A48  0E54               	movlw	low _lcd
  3086   000A4A  6E15               	movwf	ecu_lcd_4_bits_send_string_data_pos@lcd^0,c
  3087   000A4C  0EF5               	movlw	low STR_36
  3088   000A4E  6E16               	movwf	ecu_lcd_4_bits_send_string_data_pos@str^0,c
  3089   000A50  0EFD               	movlw	high STR_36
  3090   000A52  6E17               	movwf	(ecu_lcd_4_bits_send_string_data_pos@str+1)^0,c
  3091   000A54  0E01               	movlw	1
  3092   000A56  6E18               	movwf	ecu_lcd_4_bits_send_string_data_pos@row^0,c
  3093   000A58  0E01               	movlw	1
  3094   000A5A  6E19               	movwf	ecu_lcd_4_bits_send_string_data_pos@column^0,c
  3095   000A5C  ECCA  F015         	call	_ecu_lcd_4_bits_send_string_data_pos	;wreg free
  3096                           
  3097                           ;main.c: 582:       }
  3098   000A60  EF49  F005         	goto	l12785
  3099   000A64                     l12783:
  3100   000A64  504F               	movf	_place^0,w,c
  3101                           
  3102                           ; Switch size 1, requested type "simple"
  3103                           ; Number of cases is 5, Range of values is 250 to 255
  3104                           ; switch strategies available:
  3105                           ; Name         Instructions Cycles
  3106                           ; simple_byte           16     9 (average)
  3107                           ;	Chosen strategy is simple_byte
  3108   000A66  0AFA               	xorlw	250	; case 250
  3109   000A68  B4D8               	btfsc	status,2,c
  3110   000A6A  EF12  F005         	goto	l12775
  3111   000A6E  0A06               	xorlw	6	; case 252
  3112   000A70  B4D8               	btfsc	status,2,c
  3113   000A72  EF8A  F003         	goto	l12691
  3114   000A76  0A01               	xorlw	1	; case 253
  3115   000A78  B4D8               	btfsc	status,2,c
  3116   000A7A  EF95  F003         	goto	l12693
  3117   000A7E  0A03               	xorlw	3	; case 254
  3118   000A80  B4D8               	btfsc	status,2,c
  3119   000A82  EF10  F004         	goto	l12721
  3120   000A86  0A01               	xorlw	1	; case 255
  3121   000A88  B4D8               	btfsc	status,2,c
  3122   000A8A  EF89  F004         	goto	l12739
  3123   000A8E  EF1E  F005         	goto	l12779
  3124   000A92                     l12785:
  3125                           
  3126                           ;main.c: 463:     while (!room){
  3127   000A92  0101               	movlb	1	; () banked
  3128   000A94  5135               	movf	room_2@room& (0+255),w,b
  3129   000A96  B4D8               	btfsc	status,2,c
  3130   000A98  EF50  F005         	goto	u10441
  3131   000A9C  EF52  F005         	goto	u10440
  3132   000AA0                     u10441:
  3133   000AA0  EFD3  F002         	goto	l12647
  3134   000AA4                     u10440:
  3135   000AA4                     
  3136                           ; BSR set to: 1
  3137   000AA4  0012               	return		;funcret
  3138   000AA6                     __end_of_room_2:
  3139                           	callstack 0
  3140                           
  3141 ;; *************** function _room_1 *****************
  3142 ;; Defined at:
  3143 ;;		line 327 in file "main.c"
  3144 ;; Parameters:    Size  Location     Type
  3145 ;;		None
  3146 ;; Auto vars:     Size  Location     Type
  3147 ;;  temp_string     1    4[BANK1 ] unsigned char [1]
  3148 ;;  stat            1    3[BANK1 ] unsigned char 
  3149 ;;  door_status2    1    2[BANK1 ] unsigned char 
  3150 ;;  door_status1    1    1[BANK1 ] unsigned char 
  3151 ;;  room            1    0[BANK1 ] unsigned char 
  3152 ;; Return value:  Size  Location     Type
  3153 ;;                  1    wreg      void 
  3154 ;; Registers used:
  3155 ;;		wreg, fsr0l, fsr0h, fsr1l, fsr1h, fsr2l, fsr2h, status,2, status,0, tblptrl, tblptrh, tblptru, prodl, prodh, cstack
  3156 ;; Tracked objects:
  3157 ;;		On entry : 0/0
  3158 ;;		On exit  : 0/0
  3159 ;;		Unchanged: 0/0
  3160 ;; Data sizes:     COMRAM   BANK0   BANK1   BANK2   BANK3   BANK4   BANK5   BANK6   BANK7   BANK8   BANK9  BANK10  BANK1
      +1  BANK12  BANK13  BANK14  BANK15
  3161 ;;      Params:         0       0       0       0       0       0       0       0       0       0       0       0       
      +0       0       0       0       0
  3162 ;;      Locals:         0       0       5       0       0       0       0       0       0       0       0       0       
      +0       0       0       0       0
  3163 ;;      Temps:          2       0       0       0       0       0       0       0       0       0       0       0       
      +0       0       0       0       0
  3164 ;;      Totals:         2       0       5       0       0       0       0       0       0       0       0       0       
      +0       0       0       0       0
  3165 ;;Total ram usage:        7 bytes
  3166 ;; Hardware stack levels used: 1
  3167 ;; Hardware stack levels required when called: 10
  3168 ;; This function calls:
  3169 ;;		_ADC_GetConversion
  3170 ;;		_EUSART_Read
  3171 ;;		___flmul
  3172 ;;		___fltol
  3173 ;;		___lwdiv
  3174 ;;		___xxtofl
  3175 ;;		_ecu_lcd_4_bits_send_command
  3176 ;;		_ecu_lcd_4_bits_send_string_data_pos
  3177 ;;		_ecu_lcd_conver_16_bits_to_string
  3178 ;;		_ecu_led_initialization
  3179 ;;		_ecu_led_off
  3180 ;;		_ecu_led_on
  3181 ;;		_ecu_motor_initialization
  3182 ;;		_ecu_motor_move_right
  3183 ;;		_ecu_motor_stop
  3184 ;;		_fire_check
  3185 ;; This function is called by:
  3186 ;;		_main
  3187 ;; This function uses a non-reentrant model
  3188 ;;
  3189                           
  3190                           	psect	text2
  3191   00005A                     __ptext2:
  3192                           	callstack 0
  3193   00005A                     _room_1:
  3194                           	callstack 20
  3195   00005A                     
  3196                           ;main.c: 328:     uint8_t room=0;
  3197   00005A  0E00               	movlw	0
  3198   00005C  0101               	movlb	1	; () banked
  3199   00005E  6F35               	movwf	room_1@room& (0+255),b
  3200                           
  3201                           ;main.c: 329:     uint8_t stat=0;
  3202   000060  0E00               	movlw	0
  3203   000062  6F38               	movwf	room_1@stat& (0+255),b
  3204                           
  3205                           ;main.c: 330:     uint8_t door_status1=0;
  3206   000064  0E00               	movlw	0
  3207   000066  6F36               	movwf	room_1@door_status1& (0+255),b
  3208                           
  3209                           ;main.c: 331:     uint8_t door_status2=0;
  3210   000068  0E00               	movlw	0
  3211   00006A  6F37               	movwf	room_1@door_status2& (0+255),b
  3212                           
  3213                           ;main.c: 332:     uint8_t temp_string[]={0};
  3214   00006C  0E00               	movlw	0
  3215   00006E  6F39               	movwf	room_1@temp_string& (0+255),b
  3216                           
  3217                           ;main.c: 335:     while (!room){
  3218   000070  EFBC  F002         	goto	l12643
  3219   000074                     l12499:
  3220                           
  3221                           ; BSR set to: 1
  3222                           ;main.c: 337:       ecu_lcd_4_bits_send_command(&lcd,0X01);
  3223   000074  0E54               	movlw	low _lcd
  3224   000076  6E0F               	movwf	ecu_lcd_4_bits_send_command@lcd^0,c
  3225   000078  0E01               	movlw	1
  3226   00007A  6E10               	movwf	ecu_lcd_4_bits_send_command@command^0,c
  3227   00007C  ECCC  F018         	call	_ecu_lcd_4_bits_send_command	;wreg free
  3228   000080                     
  3229                           ;main.c: 338:       ecu_lcd_4_bits_send_string_data_pos(&lcd," 1-Fan",1,1);
  3230   000080  0E54               	movlw	low _lcd
  3231   000082  6E15               	movwf	ecu_lcd_4_bits_send_string_data_pos@lcd^0,c
  3232   000084  0EF4               	movlw	low STR_21
  3233   000086  6E16               	movwf	ecu_lcd_4_bits_send_string_data_pos@str^0,c
  3234   000088  0EFF               	movlw	high STR_21
  3235   00008A  6E17               	movwf	(ecu_lcd_4_bits_send_string_data_pos@str+1)^0,c
  3236   00008C  0E01               	movlw	1
  3237   00008E  6E18               	movwf	ecu_lcd_4_bits_send_string_data_pos@row^0,c
  3238   000090  0E01               	movlw	1
  3239   000092  6E19               	movwf	ecu_lcd_4_bits_send_string_data_pos@column^0,c
  3240   000094  ECCA  F015         	call	_ecu_lcd_4_bits_send_string_data_pos	;wreg free
  3241   000098                     
  3242                           ;main.c: 339:       ecu_lcd_4_bits_send_string_data_pos(&lcd," 2-led",2,1);
  3243   000098  0E54               	movlw	low _lcd
  3244   00009A  6E15               	movwf	ecu_lcd_4_bits_send_string_data_pos@lcd^0,c
  3245   00009C  0EED               	movlw	low STR_22
  3246   00009E  6E16               	movwf	ecu_lcd_4_bits_send_string_data_pos@str^0,c
  3247   0000A0  0EFF               	movlw	high STR_22
  3248   0000A2  6E17               	movwf	(ecu_lcd_4_bits_send_string_data_pos@str+1)^0,c
  3249   0000A4  0E02               	movlw	2
  3250   0000A6  6E18               	movwf	ecu_lcd_4_bits_send_string_data_pos@row^0,c
  3251   0000A8  0E01               	movlw	1
  3252   0000AA  6E19               	movwf	ecu_lcd_4_bits_send_string_data_pos@column^0,c
  3253   0000AC  ECCA  F015         	call	_ecu_lcd_4_bits_send_string_data_pos	;wreg free
  3254   0000B0                     
  3255                           ;main.c: 340:       ecu_lcd_4_bits_send_string_data_pos(&lcd," 3-read temperature",3,1);
  3256   0000B0  0E54               	movlw	low _lcd
  3257   0000B2  6E15               	movwf	ecu_lcd_4_bits_send_string_data_pos@lcd^0,c
  3258   0000B4  0EB5               	movlw	low STR_23
  3259   0000B6  6E16               	movwf	ecu_lcd_4_bits_send_string_data_pos@str^0,c
  3260   0000B8  0EFE               	movlw	high STR_23
  3261   0000BA  6E17               	movwf	(ecu_lcd_4_bits_send_string_data_pos@str+1)^0,c
  3262   0000BC  0E03               	movlw	3
  3263   0000BE  6E18               	movwf	ecu_lcd_4_bits_send_string_data_pos@row^0,c
  3264   0000C0  0E01               	movlw	1
  3265   0000C2  6E19               	movwf	ecu_lcd_4_bits_send_string_data_pos@column^0,c
  3266   0000C4  ECCA  F015         	call	_ecu_lcd_4_bits_send_string_data_pos	;wreg free
  3267   0000C8                     
  3268                           ;main.c: 341:       ecu_lcd_4_bits_send_string_data_pos(&lcd," 4-Door ",4,1);
  3269   0000C8  0E54               	movlw	low _lcd
  3270   0000CA  6E15               	movwf	ecu_lcd_4_bits_send_string_data_pos@lcd^0,c
  3271   0000CC  0EE4               	movlw	low STR_24
  3272   0000CE  6E16               	movwf	ecu_lcd_4_bits_send_string_data_pos@str^0,c
  3273   0000D0  0EFF               	movlw	high STR_24
  3274   0000D2  6E17               	movwf	(ecu_lcd_4_bits_send_string_data_pos@str+1)^0,c
  3275   0000D4  0E04               	movlw	4
  3276   0000D6  6E18               	movwf	ecu_lcd_4_bits_send_string_data_pos@row^0,c
  3277   0000D8  0E01               	movlw	1
  3278   0000DA  6E19               	movwf	ecu_lcd_4_bits_send_string_data_pos@column^0,c
  3279   0000DC  ECCA  F015         	call	_ecu_lcd_4_bits_send_string_data_pos	;wreg free
  3280   0000E0                     
  3281                           ;main.c: 342:       ecu_lcd_4_bits_send_string_data_pos(&lcd," 5-RETURN",4,8);
  3282   0000E0  0E54               	movlw	low _lcd
  3283   0000E2  6E15               	movwf	ecu_lcd_4_bits_send_string_data_pos@lcd^0,c
  3284   0000E4  0ED1               	movlw	low STR_25
  3285   0000E6  6E16               	movwf	ecu_lcd_4_bits_send_string_data_pos@str^0,c
  3286   0000E8  0EFF               	movlw	high STR_25
  3287   0000EA  6E17               	movwf	(ecu_lcd_4_bits_send_string_data_pos@str+1)^0,c
  3288   0000EC  0E04               	movlw	4
  3289   0000EE  6E18               	movwf	ecu_lcd_4_bits_send_string_data_pos@row^0,c
  3290   0000F0  0E08               	movlw	8
  3291   0000F2  6E19               	movwf	ecu_lcd_4_bits_send_string_data_pos@column^0,c
  3292   0000F4  ECCA  F015         	call	_ecu_lcd_4_bits_send_string_data_pos	;wreg free
  3293   0000F8                     
  3294                           ;main.c: 343:       place =EUSART_Read();
  3295   0000F8  EC7A  F01A         	call	_EUSART_Read	;wreg free
  3296   0000FC  6E4F               	movwf	_place^0,c
  3297                           
  3298                           ;main.c: 345:       switch(place){
  3299   0000FE  EFA5  F002         	goto	l12641
  3300   000102                     l12513:
  3301                           
  3302                           ;main.c: 347:               ecu_motor_initialization(&motor);
  3303   000102  0EFE               	movlw	low _motor
  3304   000104  6E0B               	movwf	ecu_motor_initialization@my_motor^0,c
  3305   000106  ECA4  F01A         	call	_ecu_motor_initialization	;wreg free
  3306                           
  3307                           ;main.c: 348:             while(!stat){
  3308   00010A  EFE9  F000         	goto	l12543
  3309   00010E                     l12515:
  3310                           
  3311                           ; BSR set to: 1
  3312                           ;main.c: 349:                 fire_check();
  3313   00010E  EC4A  F014         	call	_fire_check	;wreg free
  3314   000112                     
  3315                           ;main.c: 351:               ecu_lcd_4_bits_send_command(&lcd,0X01);
  3316   000112  0E54               	movlw	low _lcd
  3317   000114  6E0F               	movwf	ecu_lcd_4_bits_send_command@lcd^0,c
  3318   000116  0E01               	movlw	1
  3319   000118  6E10               	movwf	ecu_lcd_4_bits_send_command@command^0,c
  3320   00011A  ECCC  F018         	call	_ecu_lcd_4_bits_send_command	;wreg free
  3321   00011E                     
  3322                           ;main.c: 353:               ecu_lcd_4_bits_send_string_data_pos(&lcd," 1-Fan_ON",1,1);
  3323   00011E  0E54               	movlw	low _lcd
  3324   000120  6E15               	movwf	ecu_lcd_4_bits_send_string_data_pos@lcd^0,c
  3325   000122  0EB3               	movlw	low STR_26
  3326   000124  6E16               	movwf	ecu_lcd_4_bits_send_string_data_pos@str^0,c
  3327   000126  0EFF               	movlw	high STR_26
  3328   000128  6E17               	movwf	(ecu_lcd_4_bits_send_string_data_pos@str+1)^0,c
  3329   00012A  0E01               	movlw	1
  3330   00012C  6E18               	movwf	ecu_lcd_4_bits_send_string_data_pos@row^0,c
  3331   00012E  0E01               	movlw	1
  3332   000130  6E19               	movwf	ecu_lcd_4_bits_send_string_data_pos@column^0,c
  3333   000132  ECCA  F015         	call	_ecu_lcd_4_bits_send_string_data_pos	;wreg free
  3334   000136                     
  3335                           ;main.c: 354:               ecu_lcd_4_bits_send_string_data_pos(&lcd," 2-Fan_OFF",2,1);
  3336   000136  0E54               	movlw	low _lcd
  3337   000138  6E15               	movwf	ecu_lcd_4_bits_send_string_data_pos@lcd^0,c
  3338   00013A  0E80               	movlw	low STR_27
  3339   00013C  6E16               	movwf	ecu_lcd_4_bits_send_string_data_pos@str^0,c
  3340   00013E  0EFF               	movlw	high STR_27
  3341   000140  6E17               	movwf	(ecu_lcd_4_bits_send_string_data_pos@str+1)^0,c
  3342   000142  0E02               	movlw	2
  3343   000144  6E18               	movwf	ecu_lcd_4_bits_send_string_data_pos@row^0,c
  3344   000146  0E01               	movlw	1
  3345   000148  6E19               	movwf	ecu_lcd_4_bits_send_string_data_pos@column^0,c
  3346   00014A  ECCA  F015         	call	_ecu_lcd_4_bits_send_string_data_pos	;wreg free
  3347   00014E                     
  3348                           ;main.c: 355:               ecu_lcd_4_bits_send_string_data_pos(&lcd," 3-RETURN",3,1);
  3349   00014E  0E54               	movlw	low _lcd
  3350   000150  6E15               	movwf	ecu_lcd_4_bits_send_string_data_pos@lcd^0,c
  3351   000152  0EBD               	movlw	low STR_28
  3352   000154  6E16               	movwf	ecu_lcd_4_bits_send_string_data_pos@str^0,c
  3353   000156  0EFF               	movlw	high STR_28
  3354   000158  6E17               	movwf	(ecu_lcd_4_bits_send_string_data_pos@str+1)^0,c
  3355   00015A  0E03               	movlw	3
  3356   00015C  6E18               	movwf	ecu_lcd_4_bits_send_string_data_pos@row^0,c
  3357   00015E  0E01               	movlw	1
  3358   000160  6E19               	movwf	ecu_lcd_4_bits_send_string_data_pos@column^0,c
  3359   000162  ECCA  F015         	call	_ecu_lcd_4_bits_send_string_data_pos	;wreg free
  3360   000166                     
  3361                           ;main.c: 356:               device=0;
  3362   000166  0E00               	movlw	0
  3363   000168  6E4D               	movwf	(_device+1)^0,c
  3364   00016A  0E00               	movlw	0
  3365   00016C  6E4C               	movwf	_device^0,c
  3366   00016E                     
  3367                           ;main.c: 357:               device =EUSART_Read();
  3368   00016E  EC7A  F01A         	call	_EUSART_Read	;wreg free
  3369   000172  6E45               	movwf	??_room_1^0,c
  3370   000174  5045               	movf	??_room_1^0,w,c
  3371   000176  6E4C               	movwf	_device^0,c
  3372   000178  6A4D               	clrf	(_device+1)^0,c
  3373   00017A                     
  3374                           ;main.c: 358:               if(252==device){
  3375   00017A  0EFC               	movlw	252
  3376   00017C  184C               	xorwf	_device^0,w,c
  3377   00017E  104D               	iorwf	(_device+1)^0,w,c
  3378   000180  A4D8               	btfss	status,2,c
  3379   000182  EFC5  F000         	goto	u10151
  3380   000186  EFC7  F000         	goto	u10150
  3381   00018A                     u10151:
  3382   00018A  EFCD  F000         	goto	l12533
  3383   00018E                     u10150:
  3384   00018E                     
  3385                           ;main.c: 359:                   ecu_motor_move_right(&motor);
  3386   00018E  0EFE               	movlw	low _motor
  3387   000190  6E0C               	movwf	ecu_motor_move_right@my_motor^0,c
  3388   000192  EC63  F01A         	call	_ecu_motor_move_right	;wreg free
  3389                           
  3390                           ;main.c: 360:               }
  3391   000196  EFE9  F000         	goto	l12543
  3392   00019A                     l12533:
  3393   00019A  0EFD               	movlw	253
  3394   00019C  184C               	xorwf	_device^0,w,c
  3395   00019E  104D               	iorwf	(_device+1)^0,w,c
  3396   0001A0  A4D8               	btfss	status,2,c
  3397   0001A2  EFD5  F000         	goto	u10161
  3398   0001A6  EFD7  F000         	goto	u10160
  3399   0001AA                     u10161:
  3400   0001AA  EFDD  F000         	goto	l12537
  3401   0001AE                     u10160:
  3402   0001AE                     
  3403                           ;main.c: 362:                   ecu_motor_stop(&motor);
  3404   0001AE  0EFE               	movlw	low _motor
  3405   0001B0  6E0C               	movwf	ecu_motor_stop@my_motor^0,c
  3406   0001B2  EC4C  F01A         	call	_ecu_motor_stop	;wreg free
  3407                           
  3408                           ;main.c: 363:               }
  3409   0001B6  EFE9  F000         	goto	l12543
  3410   0001BA                     l12537:
  3411   0001BA  0EFE               	movlw	254
  3412   0001BC  184C               	xorwf	_device^0,w,c
  3413   0001BE  104D               	iorwf	(_device+1)^0,w,c
  3414   0001C0  A4D8               	btfss	status,2,c
  3415   0001C2  EFE5  F000         	goto	u10171
  3416   0001C6  EFE7  F000         	goto	u10170
  3417   0001CA                     u10171:
  3418   0001CA  EFE9  F000         	goto	l2055
  3419   0001CE                     u10170:
  3420   0001CE  EFBC  F002         	goto	l12643
  3421   0001D2                     l2055:
  3422   0001D2                     l12543:
  3423                           
  3424                           ;main.c: 348:             while(!stat){
  3425   0001D2  0101               	movlb	1	; () banked
  3426   0001D4  5138               	movf	room_1@stat& (0+255),w,b
  3427   0001D6  B4D8               	btfsc	status,2,c
  3428   0001D8  EFF0  F000         	goto	u10181
  3429   0001DC  EFF2  F000         	goto	u10180
  3430   0001E0                     u10181:
  3431   0001E0  EF87  F000         	goto	l12515
  3432   0001E4                     u10180:
  3433   0001E4  EFBC  F002         	goto	l12643
  3434   0001E8                     l12545:
  3435                           
  3436                           ;main.c: 372:               ecu_lcd_4_bits_send_command(&lcd,0X01);
  3437   0001E8  0E54               	movlw	low _lcd
  3438   0001EA  6E0F               	movwf	ecu_lcd_4_bits_send_command@lcd^0,c
  3439   0001EC  0E01               	movlw	1
  3440   0001EE  6E10               	movwf	ecu_lcd_4_bits_send_command@command^0,c
  3441   0001F0  ECCC  F018         	call	_ecu_lcd_4_bits_send_command	;wreg free
  3442                           
  3443                           ;main.c: 373:               ecu_led_initialization(&led);
  3444   0001F4  0E5A               	movlw	low _led
  3445   0001F6  6E0B               	movwf	ecu_led_initialization@led^0,c
  3446   0001F8  EC3B  F018         	call	_ecu_led_initialization	;wreg free
  3447                           
  3448                           ;main.c: 374:             while(!stat){
  3449   0001FC  EF5A  F001         	goto	l12567
  3450   000200                     l12547:
  3451                           
  3452                           ; BSR set to: 1
  3453                           ;main.c: 375:               ecu_lcd_4_bits_send_string_data_pos(&lcd," 1-LED_ON",1,1);
  3454   000200  0E54               	movlw	low _lcd
  3455   000202  6E15               	movwf	ecu_lcd_4_bits_send_string_data_pos@lcd^0,c
  3456   000204  0EA9               	movlw	low STR_29
  3457   000206  6E16               	movwf	ecu_lcd_4_bits_send_string_data_pos@str^0,c
  3458   000208  0EFF               	movlw	high STR_29
  3459   00020A  6E17               	movwf	(ecu_lcd_4_bits_send_string_data_pos@str+1)^0,c
  3460   00020C  0E01               	movlw	1
  3461   00020E  6E18               	movwf	ecu_lcd_4_bits_send_string_data_pos@row^0,c
  3462   000210  0E01               	movlw	1
  3463   000212  6E19               	movwf	ecu_lcd_4_bits_send_string_data_pos@column^0,c
  3464   000214  ECCA  F015         	call	_ecu_lcd_4_bits_send_string_data_pos	;wreg free
  3465                           
  3466                           ;main.c: 376:               ecu_lcd_4_bits_send_string_data_pos(&lcd," 2-LED_OFF",2,1);
  3467   000218  0E54               	movlw	low _lcd
  3468   00021A  6E15               	movwf	ecu_lcd_4_bits_send_string_data_pos@lcd^0,c
  3469   00021C  0E75               	movlw	low STR_30
  3470   00021E  6E16               	movwf	ecu_lcd_4_bits_send_string_data_pos@str^0,c
  3471   000220  0EFF               	movlw	high STR_30
  3472   000222  6E17               	movwf	(ecu_lcd_4_bits_send_string_data_pos@str+1)^0,c
  3473   000224  0E02               	movlw	2
  3474   000226  6E18               	movwf	ecu_lcd_4_bits_send_string_data_pos@row^0,c
  3475   000228  0E01               	movlw	1
  3476   00022A  6E19               	movwf	ecu_lcd_4_bits_send_string_data_pos@column^0,c
  3477   00022C  ECCA  F015         	call	_ecu_lcd_4_bits_send_string_data_pos	;wreg free
  3478                           
  3479                           ;main.c: 377:               ecu_lcd_4_bits_send_string_data_pos(&lcd," 3-RETURN",3,1);
  3480   000230  0E54               	movlw	low _lcd
  3481   000232  6E15               	movwf	ecu_lcd_4_bits_send_string_data_pos@lcd^0,c
  3482   000234  0EBD               	movlw	low STR_28
  3483   000236  6E16               	movwf	ecu_lcd_4_bits_send_string_data_pos@str^0,c
  3484   000238  0EFF               	movlw	high STR_28
  3485   00023A  6E17               	movwf	(ecu_lcd_4_bits_send_string_data_pos@str+1)^0,c
  3486   00023C  0E03               	movlw	3
  3487   00023E  6E18               	movwf	ecu_lcd_4_bits_send_string_data_pos@row^0,c
  3488   000240  0E01               	movlw	1
  3489   000242  6E19               	movwf	ecu_lcd_4_bits_send_string_data_pos@column^0,c
  3490   000244  ECCA  F015         	call	_ecu_lcd_4_bits_send_string_data_pos	;wreg free
  3491   000248                     
  3492                           ;main.c: 378:               device=0;
  3493   000248  0E00               	movlw	0
  3494   00024A  6E4D               	movwf	(_device+1)^0,c
  3495   00024C  0E00               	movlw	0
  3496   00024E  6E4C               	movwf	_device^0,c
  3497   000250                     
  3498                           ;main.c: 379:               device =EUSART_Read();
  3499   000250  EC7A  F01A         	call	_EUSART_Read	;wreg free
  3500   000254  6E45               	movwf	??_room_1^0,c
  3501   000256  5045               	movf	??_room_1^0,w,c
  3502   000258  6E4C               	movwf	_device^0,c
  3503   00025A  6A4D               	clrf	(_device+1)^0,c
  3504   00025C                     
  3505                           ;main.c: 380:               if(252==device){
  3506   00025C  0EFC               	movlw	252
  3507   00025E  184C               	xorwf	_device^0,w,c
  3508   000260  104D               	iorwf	(_device+1)^0,w,c
  3509   000262  A4D8               	btfss	status,2,c
  3510   000264  EF36  F001         	goto	u10191
  3511   000268  EF38  F001         	goto	u10190
  3512   00026C                     u10191:
  3513   00026C  EF3E  F001         	goto	l12557
  3514   000270                     u10190:
  3515   000270                     
  3516                           ;main.c: 381:                   ecu_led_on(&led);
  3517   000270  0E5A               	movlw	low _led
  3518   000272  6E0C               	movwf	ecu_led_on@led^0,c
  3519   000274  EC9D  F017         	call	_ecu_led_on	;wreg free
  3520                           
  3521                           ;main.c: 382:               }
  3522   000278  EF5A  F001         	goto	l12567
  3523   00027C                     l12557:
  3524   00027C  0EFD               	movlw	253
  3525   00027E  184C               	xorwf	_device^0,w,c
  3526   000280  104D               	iorwf	(_device+1)^0,w,c
  3527   000282  A4D8               	btfss	status,2,c
  3528   000284  EF46  F001         	goto	u10201
  3529   000288  EF48  F001         	goto	u10200
  3530   00028C                     u10201:
  3531   00028C  EF4E  F001         	goto	l12561
  3532   000290                     u10200:
  3533   000290                     
  3534                           ;main.c: 384:                   ecu_led_off(&led);
  3535   000290  0E5A               	movlw	low _led
  3536   000292  6E0C               	movwf	ecu_led_off@led^0,c
  3537   000294  ECD2  F017         	call	_ecu_led_off	;wreg free
  3538                           
  3539                           ;main.c: 385:               }
  3540   000298  EF5A  F001         	goto	l12567
  3541   00029C                     l12561:
  3542   00029C  0EFE               	movlw	254
  3543   00029E  184C               	xorwf	_device^0,w,c
  3544   0002A0  104D               	iorwf	(_device+1)^0,w,c
  3545   0002A2  A4D8               	btfss	status,2,c
  3546   0002A4  EF56  F001         	goto	u10211
  3547   0002A8  EF58  F001         	goto	u10210
  3548   0002AC                     u10211:
  3549   0002AC  EF5A  F001         	goto	l2066
  3550   0002B0                     u10210:
  3551   0002B0  EFBC  F002         	goto	l12643
  3552   0002B4                     l2066:
  3553   0002B4                     l12567:
  3554                           
  3555                           ;main.c: 374:             while(!stat){
  3556   0002B4  0101               	movlb	1	; () banked
  3557   0002B6  5138               	movf	room_1@stat& (0+255),w,b
  3558   0002B8  B4D8               	btfsc	status,2,c
  3559   0002BA  EF61  F001         	goto	u10221
  3560   0002BE  EF63  F001         	goto	u10220
  3561   0002C2                     u10221:
  3562   0002C2  EF00  F001         	goto	l12547
  3563   0002C6                     u10220:
  3564   0002C6  EFBC  F002         	goto	l12643
  3565   0002CA                     l12569:
  3566                           
  3567                           ;main.c: 393:                device=0;
  3568   0002CA  0E00               	movlw	0
  3569   0002CC  6E4D               	movwf	(_device+1)^0,c
  3570   0002CE  0E00               	movlw	0
  3571   0002D0  6E4C               	movwf	_device^0,c
  3572   0002D2                     
  3573                           ;main.c: 395:                   ecu_lcd_4_bits_send_command(&lcd,0X01);
  3574   0002D2  0E54               	movlw	low _lcd
  3575   0002D4  6E0F               	movwf	ecu_lcd_4_bits_send_command@lcd^0,c
  3576   0002D6  0E01               	movlw	1
  3577   0002D8  6E10               	movwf	ecu_lcd_4_bits_send_command@command^0,c
  3578   0002DA  ECCC  F018         	call	_ecu_lcd_4_bits_send_command	;wreg free
  3579   0002DE                     
  3580                           ;main.c: 396:                   ecu_lcd_4_bits_send_string_data_pos(&lcd," Temperature :
      +                           ",1,1);
  3581   0002DE  0E54               	movlw	low _lcd
  3582   0002E0  6E15               	movwf	ecu_lcd_4_bits_send_string_data_pos@lcd^0,c
  3583   0002E2  0E25               	movlw	low STR_32
  3584   0002E4  6E16               	movwf	ecu_lcd_4_bits_send_string_data_pos@str^0,c
  3585   0002E6  0EFF               	movlw	high STR_32
  3586   0002E8  6E17               	movwf	(ecu_lcd_4_bits_send_string_data_pos@str+1)^0,c
  3587   0002EA  0E01               	movlw	1
  3588   0002EC  6E18               	movwf	ecu_lcd_4_bits_send_string_data_pos@row^0,c
  3589   0002EE  0E01               	movlw	1
  3590   0002F0  6E19               	movwf	ecu_lcd_4_bits_send_string_data_pos@column^0,c
  3591   0002F2  ECCA  F015         	call	_ecu_lcd_4_bits_send_string_data_pos	;wreg free
  3592   0002F6                     
  3593                           ;main.c: 397:                   device=ADC_GetConversion(0);
  3594   0002F6  0E00               	movlw	0
  3595   0002F8  ECE1  F019         	call	_ADC_GetConversion
  3596   0002FC  C004  F04C         	movff	?_ADC_GetConversion,_device
  3597   000300  C005  F04D         	movff	?_ADC_GetConversion+1,_device+1
  3598   000304                     
  3599                           ;main.c: 398:                     lm35_res_1_Celsius_mv = device * 4.88f;
  3600   000304  0EF6               	movlw	246
  3601   000306  6E16               	movwf	___flmul@a^0,c
  3602   000308  0E28               	movlw	40
  3603   00030A  6E17               	movwf	(___flmul@a+1)^0,c
  3604   00030C  0E9C               	movlw	156
  3605   00030E  6E18               	movwf	(___flmul@a+2)^0,c
  3606   000310  0E40               	movlw	64
  3607   000312  6E19               	movwf	(___flmul@a+3)^0,c
  3608   000314  C04C  F004         	movff	_device,___xxtofl@val
  3609   000318  C04D  F005         	movff	_device+1,___xxtofl@val+1
  3610   00031C  6A06               	clrf	(___xxtofl@val+2)^0,c
  3611   00031E  6A07               	clrf	(___xxtofl@val+3)^0,c
  3612   000320  0E00               	movlw	0
  3613   000322  EC2A  F010         	call	___xxtofl
  3614   000326  C004  F012         	movff	?___xxtofl,___flmul@b
  3615   00032A  C005  F013         	movff	?___xxtofl+1,___flmul@b+1
  3616   00032E  C006  F014         	movff	?___xxtofl+2,___flmul@b+2
  3617   000332  C007  F015         	movff	?___xxtofl+3,___flmul@b+3
  3618   000336  ECB3  F007         	call	___flmul	;wreg free
  3619   00033A  C012  F03B         	movff	?___flmul,___fltol@f1
  3620   00033E  C013  F03C         	movff	?___flmul+1,___fltol@f1+1
  3621   000342  C014  F03D         	movff	?___flmul+2,___fltol@f1+2
  3622   000346  C015  F03E         	movff	?___flmul+3,___fltol@f1+3
  3623   00034A  EC57  F013         	call	___fltol	;wreg free
  3624   00034E  C03B  F04A         	movff	?___fltol,_lm35_res_1_Celsius_mv
  3625   000352  C03C  F04B         	movff	?___fltol+1,_lm35_res_1_Celsius_mv+1
  3626   000356                     
  3627                           ;main.c: 399:                      lm35_res_1_Celsius_mv /= 620;
  3628   000356  C04A  F004         	movff	_lm35_res_1_Celsius_mv,___lwdiv@dividend
  3629   00035A  C04B  F005         	movff	_lm35_res_1_Celsius_mv+1,___lwdiv@dividend+1
  3630   00035E  0E02               	movlw	2
  3631   000360  6E07               	movwf	(___lwdiv@divisor+1)^0,c
  3632   000362  0E6C               	movlw	108
  3633   000364  6E06               	movwf	___lwdiv@divisor^0,c
  3634   000366  EC2D  F017         	call	___lwdiv	;wreg free
  3635   00036A  C004  F04A         	movff	?___lwdiv,_lm35_res_1_Celsius_mv
  3636   00036E  C005  F04B         	movff	?___lwdiv+1,_lm35_res_1_Celsius_mv+1
  3637   000372                     
  3638                           ;main.c: 400:                   ecu_lcd_conver_16_bits_to_string(temp_string,lm35_res_1_
      +                          Celsius_mv);
  3639   000372  0E39               	movlw	low room_1@temp_string
  3640   000374  6E36               	movwf	ecu_lcd_conver_16_bits_to_string@char_arr^0,c
  3641   000376  0E01               	movlw	high room_1@temp_string
  3642   000378  6E37               	movwf	(ecu_lcd_conver_16_bits_to_string@char_arr+1)^0,c
  3643   00037A  C04A  F038         	movff	_lm35_res_1_Celsius_mv,ecu_lcd_conver_16_bits_to_string@value
  3644   00037E  C04B  F039         	movff	_lm35_res_1_Celsius_mv+1,ecu_lcd_conver_16_bits_to_string@value+1
  3645   000382  EC6E  F018         	call	_ecu_lcd_conver_16_bits_to_string	;wreg free
  3646   000386                     
  3647                           ;main.c: 401:                   ecu_lcd_4_bits_send_string_data_pos(&lcd,temp_string,1,1
      +                          6);
  3648   000386  0E54               	movlw	low _lcd
  3649   000388  6E15               	movwf	ecu_lcd_4_bits_send_string_data_pos@lcd^0,c
  3650   00038A  0E39               	movlw	low room_1@temp_string
  3651   00038C  6E16               	movwf	ecu_lcd_4_bits_send_string_data_pos@str^0,c
  3652   00038E  0E01               	movlw	high room_1@temp_string
  3653   000390  6E17               	movwf	(ecu_lcd_4_bits_send_string_data_pos@str+1)^0,c
  3654   000392  0E01               	movlw	1
  3655   000394  6E18               	movwf	ecu_lcd_4_bits_send_string_data_pos@row^0,c
  3656   000396  0E10               	movlw	16
  3657   000398  6E19               	movwf	ecu_lcd_4_bits_send_string_data_pos@column^0,c
  3658   00039A  ECCA  F015         	call	_ecu_lcd_4_bits_send_string_data_pos	;wreg free
  3659   00039E                     
  3660                           ;main.c: 402:                   _delay((unsigned long)((3000)*(8000000/4000.0)));
  3661   00039E  0E1F               	movlw	31
  3662   0003A0  6E46               	movwf	(??_room_1+1)^0,c
  3663   0003A2  0E71               	movlw	113
  3664   0003A4  6E45               	movwf	??_room_1^0,c
  3665   0003A6  0E1E               	movlw	30
  3666   0003A8                     u10617:
  3667   0003A8  2EE8               	decfsz	wreg,f,c
  3668   0003AA  D7FE               	bra	u10617
  3669   0003AC  2E45               	decfsz	??_room_1^0,f,c
  3670   0003AE  D7FC               	bra	u10617
  3671   0003B0  2E46               	decfsz	(??_room_1+1)^0,f,c
  3672   0003B2  D7FA               	bra	u10617
  3673   0003B4  F000 F000          	nop2	
  3674                           
  3675                           ;main.c: 404:                   break;
  3676   0003B8  EFBC  F002         	goto	l12643
  3677   0003BC                     l12587:
  3678                           
  3679                           ;main.c: 407:                   ecu_lcd_4_bits_send_command(&lcd,0X01);
  3680   0003BC  0E54               	movlw	low _lcd
  3681   0003BE  6E0F               	movwf	ecu_lcd_4_bits_send_command@lcd^0,c
  3682   0003C0  0E01               	movlw	1
  3683   0003C2  6E10               	movwf	ecu_lcd_4_bits_send_command@command^0,c
  3684   0003C4  ECCC  F018         	call	_ecu_lcd_4_bits_send_command	;wreg free
  3685                           
  3686                           ;main.c: 409:             while(!stat){
  3687   0003C8  EF7A  F002         	goto	l12631
  3688   0003CC                     l12589:
  3689                           
  3690                           ; BSR set to: 1
  3691                           ;main.c: 411:                 ecu_lcd_4_bits_send_string_data_pos(&lcd," 1-OPEN DOOR",1,
      +                          1);
  3692   0003CC  0E54               	movlw	low _lcd
  3693   0003CE  6E15               	movwf	ecu_lcd_4_bits_send_string_data_pos@lcd^0,c
  3694   0003D0  0E52               	movlw	low STR_33
  3695   0003D2  6E16               	movwf	ecu_lcd_4_bits_send_string_data_pos@str^0,c
  3696   0003D4  0EFF               	movlw	high STR_33
  3697   0003D6  6E17               	movwf	(ecu_lcd_4_bits_send_string_data_pos@str+1)^0,c
  3698   0003D8  0E01               	movlw	1
  3699   0003DA  6E18               	movwf	ecu_lcd_4_bits_send_string_data_pos@row^0,c
  3700   0003DC  0E01               	movlw	1
  3701   0003DE  6E19               	movwf	ecu_lcd_4_bits_send_string_data_pos@column^0,c
  3702   0003E0  ECCA  F015         	call	_ecu_lcd_4_bits_send_string_data_pos	;wreg free
  3703                           
  3704                           ;main.c: 412:                   ecu_lcd_4_bits_send_string_data_pos(&lcd," 2-CLOSE DOOR"
      +                          ,2,1);
  3705   0003E4  0E54               	movlw	low _lcd
  3706   0003E6  6E15               	movwf	ecu_lcd_4_bits_send_string_data_pos@lcd^0,c
  3707   0003E8  0E44               	movlw	low STR_34
  3708   0003EA  6E16               	movwf	ecu_lcd_4_bits_send_string_data_pos@str^0,c
  3709   0003EC  0EFF               	movlw	high STR_34
  3710   0003EE  6E17               	movwf	(ecu_lcd_4_bits_send_string_data_pos@str+1)^0,c
  3711   0003F0  0E02               	movlw	2
  3712   0003F2  6E18               	movwf	ecu_lcd_4_bits_send_string_data_pos@row^0,c
  3713   0003F4  0E01               	movlw	1
  3714   0003F6  6E19               	movwf	ecu_lcd_4_bits_send_string_data_pos@column^0,c
  3715   0003F8  ECCA  F015         	call	_ecu_lcd_4_bits_send_string_data_pos	;wreg free
  3716                           
  3717                           ;main.c: 413:                   ecu_lcd_4_bits_send_string_data_pos(&lcd," 3-RETURN",3,1
      +                          );
  3718   0003FC  0E54               	movlw	low _lcd
  3719   0003FE  6E15               	movwf	ecu_lcd_4_bits_send_string_data_pos@lcd^0,c
  3720   000400  0EBD               	movlw	low STR_28
  3721   000402  6E16               	movwf	ecu_lcd_4_bits_send_string_data_pos@str^0,c
  3722   000404  0EFF               	movlw	high STR_28
  3723   000406  6E17               	movwf	(ecu_lcd_4_bits_send_string_data_pos@str+1)^0,c
  3724   000408  0E03               	movlw	3
  3725   00040A  6E18               	movwf	ecu_lcd_4_bits_send_string_data_pos@row^0,c
  3726   00040C  0E01               	movlw	1
  3727   00040E  6E19               	movwf	ecu_lcd_4_bits_send_string_data_pos@column^0,c
  3728   000410  ECCA  F015         	call	_ecu_lcd_4_bits_send_string_data_pos	;wreg free
  3729   000414                     
  3730                           ;main.c: 414:                     device=0;
  3731   000414  0E00               	movlw	0
  3732   000416  6E4D               	movwf	(_device+1)^0,c
  3733   000418  0E00               	movlw	0
  3734   00041A  6E4C               	movwf	_device^0,c
  3735   00041C                     
  3736                           ;main.c: 415:                     device =EUSART_Read();
  3737   00041C  EC7A  F01A         	call	_EUSART_Read	;wreg free
  3738   000420  6E45               	movwf	??_room_1^0,c
  3739   000422  5045               	movf	??_room_1^0,w,c
  3740   000424  6E4C               	movwf	_device^0,c
  3741   000426  6A4D               	clrf	(_device+1)^0,c
  3742   000428                     
  3743                           ;main.c: 416:                          (TRISE &= ~((uint8)1 << 1));
  3744   000428  9296               	bcf	150,1,c	;volatile
  3745   00042A                     
  3746                           ;main.c: 418:                     if(252==device && 0==door_status1 ){
  3747   00042A  0EFC               	movlw	252
  3748   00042C  184C               	xorwf	_device^0,w,c
  3749   00042E  104D               	iorwf	(_device+1)^0,w,c
  3750   000430  A4D8               	btfss	status,2,c
  3751   000432  EF1D  F002         	goto	u10231
  3752   000436  EF1F  F002         	goto	u10230
  3753   00043A                     u10231:
  3754   00043A  EF40  F002         	goto	l12611
  3755   00043E                     u10230:
  3756   00043E  0101               	movlb	1	; () banked
  3757   000440  5136               	movf	room_1@door_status1& (0+255),w,b
  3758   000442  A4D8               	btfss	status,2,c
  3759   000444  EF26  F002         	goto	u10241
  3760   000448  EF28  F002         	goto	u10240
  3761   00044C                     u10241:
  3762   00044C  EF40  F002         	goto	l12611
  3763   000450                     u10240:
  3764   000450                     
  3765                           ; BSR set to: 1
  3766                           ;main.c: 419:                         (LATE |= ((uint8)1 << 1));
  3767   000450  828D               	bsf	141,1,c	;volatile
  3768   000452                     
  3769                           ; BSR set to: 1
  3770                           ;main.c: 420:                         _delay((unsigned long)((.5)*(8000000/4000.0)));
  3771   000452  0EC8               	movlw	200
  3772   000454                     u10627:
  3773   000454  F000 F000          	nop2	
  3774   000458  2EE8               	decfsz	wreg,f,c
  3775   00045A  D7FC               	bra	u10627
  3776   00045C                     
  3777                           ;main.c: 421:                         (LATE &= ~((uint8)1 << 1));
  3778   00045C  928D               	bcf	141,1,c	;volatile
  3779                           
  3780                           ;main.c: 422:                        _delay((unsigned long)((1000)*(8000000/4000.0)));
  3781   00045E  0E0B               	movlw	11
  3782   000460  6E46               	movwf	(??_room_1+1)^0,c
  3783   000462  0E26               	movlw	38
  3784   000464  6E45               	movwf	??_room_1^0,c
  3785   000466  0E5E               	movlw	94
  3786   000468                     u10637:
  3787   000468  2EE8               	decfsz	wreg,f,c
  3788   00046A  D7FE               	bra	u10637
  3789   00046C  2E45               	decfsz	??_room_1^0,f,c
  3790   00046E  D7FC               	bra	u10637
  3791   000470  2E46               	decfsz	(??_room_1+1)^0,f,c
  3792   000472  D7FA               	bra	u10637
  3793   000474                     
  3794                           ;main.c: 423:                         door_status2=0;
  3795   000474  0E00               	movlw	0
  3796   000476  0101               	movlb	1	; () banked
  3797   000478  6F37               	movwf	room_1@door_status2& (0+255),b
  3798   00047A                     
  3799                           ; BSR set to: 1
  3800                           ;main.c: 424:                         door_status1++;
  3801   00047A  2B36               	incf	room_1@door_status1& (0+255),f,b
  3802                           
  3803                           ;main.c: 426:                     }
  3804   00047C  EF7A  F002         	goto	l12631
  3805   000480                     l12611:
  3806   000480  0EFD               	movlw	253
  3807   000482  184C               	xorwf	_device^0,w,c
  3808   000484  104D               	iorwf	(_device+1)^0,w,c
  3809   000486  A4D8               	btfss	status,2,c
  3810   000488  EF48  F002         	goto	u10251
  3811   00048C  EF4A  F002         	goto	u10250
  3812   000490                     u10251:
  3813   000490  EF6E  F002         	goto	l12625
  3814   000494                     u10250:
  3815   000494  0101               	movlb	1	; () banked
  3816   000496  5137               	movf	room_1@door_status2& (0+255),w,b
  3817   000498  A4D8               	btfss	status,2,c
  3818   00049A  EF51  F002         	goto	u10261
  3819   00049E  EF53  F002         	goto	u10260
  3820   0004A2                     u10261:
  3821   0004A2  EF6E  F002         	goto	l12625
  3822   0004A6                     u10260:
  3823   0004A6                     
  3824                           ; BSR set to: 1
  3825                           ;main.c: 428:                             (LATE |= ((uint8)1 << 1));
  3826   0004A6  828D               	bsf	141,1,c	;volatile
  3827   0004A8                     
  3828                           ; BSR set to: 1
  3829                           ;main.c: 429:                        _delay((unsigned long)((10.4999)*(8000000/4000.0)))
      +                          ;
  3830   0004A8  0E1C               	movlw	28
  3831   0004AA  6E45               	movwf	??_room_1^0,c
  3832   0004AC  0E44               	movlw	68
  3833   0004AE                     u10647:
  3834   0004AE  2EE8               	decfsz	wreg,f,c
  3835   0004B0  D7FE               	bra	u10647
  3836   0004B2  2E45               	decfsz	??_room_1^0,f,c
  3837   0004B4  D7FC               	bra	u10647
  3838   0004B6  0000               	nop	
  3839   0004B8                     
  3840                           ;main.c: 430:                        (LATE &= ~((uint8)1 << 1));
  3841   0004B8  928D               	bcf	141,1,c	;volatile
  3842                           
  3843                           ;main.c: 431:                        _delay((unsigned long)((1000)*(8000000/4000.0)));
  3844   0004BA  0E0B               	movlw	11
  3845   0004BC  6E46               	movwf	(??_room_1+1)^0,c
  3846   0004BE  0E26               	movlw	38
  3847   0004C0  6E45               	movwf	??_room_1^0,c
  3848   0004C2  0E5E               	movlw	94
  3849   0004C4                     u10657:
  3850   0004C4  2EE8               	decfsz	wreg,f,c
  3851   0004C6  D7FE               	bra	u10657
  3852   0004C8  2E45               	decfsz	??_room_1^0,f,c
  3853   0004CA  D7FC               	bra	u10657
  3854   0004CC  2E46               	decfsz	(??_room_1+1)^0,f,c
  3855   0004CE  D7FA               	bra	u10657
  3856   0004D0                     
  3857                           ;main.c: 432:                          door_status2++;
  3858   0004D0  0101               	movlb	1	; () banked
  3859   0004D2  2B37               	incf	room_1@door_status2& (0+255),f,b
  3860   0004D4                     
  3861                           ; BSR set to: 1
  3862                           ;main.c: 433:                         door_status1=0;
  3863   0004D4  0E00               	movlw	0
  3864   0004D6  6F36               	movwf	room_1@door_status1& (0+255),b
  3865                           
  3866                           ;main.c: 435:                     }
  3867   0004D8  EF7A  F002         	goto	l12631
  3868   0004DC                     l12625:
  3869   0004DC  0EFE               	movlw	254
  3870   0004DE  184C               	xorwf	_device^0,w,c
  3871   0004E0  104D               	iorwf	(_device+1)^0,w,c
  3872   0004E2  A4D8               	btfss	status,2,c
  3873   0004E4  EF76  F002         	goto	u10271
  3874   0004E8  EF78  F002         	goto	u10270
  3875   0004EC                     u10271:
  3876   0004EC  EF7A  F002         	goto	l2077
  3877   0004F0                     u10270:
  3878   0004F0  EFBC  F002         	goto	l12643
  3879   0004F4                     l2077:
  3880   0004F4                     l12631:
  3881                           
  3882                           ;main.c: 409:             while(!stat){
  3883   0004F4  0101               	movlb	1	; () banked
  3884   0004F6  5138               	movf	room_1@stat& (0+255),w,b
  3885   0004F8  B4D8               	btfsc	status,2,c
  3886   0004FA  EF81  F002         	goto	u10281
  3887   0004FE  EF83  F002         	goto	u10280
  3888   000502                     u10281:
  3889   000502  EFE6  F001         	goto	l12589
  3890   000506                     u10280:
  3891   000506  EFBC  F002         	goto	l12643
  3892   00050A                     l12633:
  3893                           
  3894                           ;main.c: 444:                  _delay((unsigned long)((5)*(8000000/4000.0)));
  3895   00050A  0E0D               	movlw	13
  3896   00050C  6E45               	movwf	??_room_1^0,c
  3897   00050E  0EFC               	movlw	252
  3898   000510                     u10667:
  3899   000510  2EE8               	decfsz	wreg,f,c
  3900   000512  D7FE               	bra	u10667
  3901   000514  2E45               	decfsz	??_room_1^0,f,c
  3902   000516  D7FC               	bra	u10667
  3903   000518                     
  3904                           ;main.c: 445:                  room=1;
  3905   000518  0E01               	movlw	1
  3906   00051A  0101               	movlb	1	; () banked
  3907   00051C  6F35               	movwf	room_1@room& (0+255),b
  3908                           
  3909                           ;main.c: 446:               break;
  3910   00051E  EFBC  F002         	goto	l12643
  3911   000522                     l12637:
  3912                           
  3913                           ;main.c: 448:                      ecu_lcd_4_bits_send_command(&lcd,0X01);
  3914   000522  0E54               	movlw	low _lcd
  3915   000524  6E0F               	movwf	ecu_lcd_4_bits_send_command@lcd^0,c
  3916   000526  0E01               	movlw	1
  3917   000528  6E10               	movwf	ecu_lcd_4_bits_send_command@command^0,c
  3918   00052A  ECCC  F018         	call	_ecu_lcd_4_bits_send_command	;wreg free
  3919   00052E                     
  3920                           ;main.c: 449:                     ecu_lcd_4_bits_send_string_data_pos(&lcd," please Choo
      +                          se Correct Device",1,1);
  3921   00052E  0E54               	movlw	low _lcd
  3922   000530  6E15               	movwf	ecu_lcd_4_bits_send_string_data_pos@lcd^0,c
  3923   000532  0EF5               	movlw	low STR_36
  3924   000534  6E16               	movwf	ecu_lcd_4_bits_send_string_data_pos@str^0,c
  3925   000536  0EFD               	movlw	high STR_36
  3926   000538  6E17               	movwf	(ecu_lcd_4_bits_send_string_data_pos@str+1)^0,c
  3927   00053A  0E01               	movlw	1
  3928   00053C  6E18               	movwf	ecu_lcd_4_bits_send_string_data_pos@row^0,c
  3929   00053E  0E01               	movlw	1
  3930   000540  6E19               	movwf	ecu_lcd_4_bits_send_string_data_pos@column^0,c
  3931   000542  ECCA  F015         	call	_ecu_lcd_4_bits_send_string_data_pos	;wreg free
  3932                           
  3933                           ;main.c: 450:       }
  3934   000546  EFBC  F002         	goto	l12643
  3935   00054A                     l12641:
  3936   00054A  504F               	movf	_place^0,w,c
  3937                           
  3938                           ; Switch size 1, requested type "simple"
  3939                           ; Number of cases is 5, Range of values is 250 to 255
  3940                           ; switch strategies available:
  3941                           ; Name         Instructions Cycles
  3942                           ; simple_byte           16     9 (average)
  3943                           ;	Chosen strategy is simple_byte
  3944   00054C  0AFA               	xorlw	250	; case 250
  3945   00054E  B4D8               	btfsc	status,2,c
  3946   000550  EF85  F002         	goto	l12633
  3947   000554  0A06               	xorlw	6	; case 252
  3948   000556  B4D8               	btfsc	status,2,c
  3949   000558  EF81  F000         	goto	l12513
  3950   00055C  0A01               	xorlw	1	; case 253
  3951   00055E  B4D8               	btfsc	status,2,c
  3952   000560  EFF4  F000         	goto	l12545
  3953   000564  0A03               	xorlw	3	; case 254
  3954   000566  B4D8               	btfsc	status,2,c
  3955   000568  EF65  F001         	goto	l12569
  3956   00056C  0A01               	xorlw	1	; case 255
  3957   00056E  B4D8               	btfsc	status,2,c
  3958   000570  EFDE  F001         	goto	l12587
  3959   000574  EF91  F002         	goto	l12637
  3960   000578                     l12643:
  3961                           
  3962                           ;main.c: 335:     while (!room){
  3963   000578  0101               	movlb	1	; () banked
  3964   00057A  5135               	movf	room_1@room& (0+255),w,b
  3965   00057C  B4D8               	btfsc	status,2,c
  3966   00057E  EFC3  F002         	goto	u10291
  3967   000582  EFC5  F002         	goto	u10290
  3968   000586                     u10291:
  3969   000586  EF3A  F000         	goto	l12499
  3970   00058A                     u10290:
  3971   00058A                     
  3972                           ; BSR set to: 1
  3973   00058A  0012               	return		;funcret
  3974   00058C                     __end_of_room_1:
  3975                           	callstack 0
  3976                           
  3977 ;; *************** function _fire_check *****************
  3978 ;; Defined at:
  3979 ;;		line 677 in file "main.c"
  3980 ;; Parameters:    Size  Location     Type
  3981 ;;		None
  3982 ;; Auto vars:     Size  Location     Type
  3983 ;;		None
  3984 ;; Return value:  Size  Location     Type
  3985 ;;                  1    wreg      void 
  3986 ;; Registers used:
  3987 ;;		wreg, fsr0l, fsr0h, fsr2l, fsr2h, status,2, status,0, tblptrl, tblptrh, tblptru, prodl, prodh, cstack
  3988 ;; Tracked objects:
  3989 ;;		On entry : 0/0
  3990 ;;		On exit  : 0/0
  3991 ;;		Unchanged: 0/0
  3992 ;; Data sizes:     COMRAM   BANK0   BANK1   BANK2   BANK3   BANK4   BANK5   BANK6   BANK7   BANK8   BANK9  BANK10  BANK1
      +1  BANK12  BANK13  BANK14  BANK15
  3993 ;;      Params:         0       0       0       0       0       0       0       0       0       0       0       0       
      +0       0       0       0       0
  3994 ;;      Locals:         0       0       0       0       0       0       0       0       0       0       0       0       
      +0       0       0       0       0
  3995 ;;      Temps:          1       0       0       0       0       0       0       0       0       0       0       0       
      +0       0       0       0       0
  3996 ;;      Totals:         1       0       0       0       0       0       0       0       0       0       0       0       
      +0       0       0       0       0
  3997 ;;Total ram usage:        1 bytes
  3998 ;; Hardware stack levels used: 1
  3999 ;; Hardware stack levels required when called: 9
  4000 ;; This function calls:
  4001 ;;		_ADC_GetConversion
  4002 ;;		_MSSP_I2C_Send_1_Byte
  4003 ;;		_ecu_lcd_4_bits_send_command
  4004 ;;		_ecu_lcd_4_bits_send_string_data_pos
  4005 ;; This function is called by:
  4006 ;;		_room_1
  4007 ;; This function uses a non-reentrant model
  4008 ;;
  4009                           
  4010                           	psect	text3
  4011   002894                     __ptext3:
  4012                           	callstack 0
  4013   002894                     _fire_check:
  4014                           	callstack 20
  4015   002894                     
  4016                           ;main.c: 678:     t_check=0;
  4017   002894  0E00               	movlw	0
  4018   002896  0100               	movlb	0	; () banked
  4019   002898  6F84               	movwf	_t_check& (0+255),b
  4020   00289A  0E00               	movlw	0
  4021   00289C  6F85               	movwf	(_t_check+1)& (0+255),b
  4022   00289E  0E00               	movlw	0
  4023   0028A0  6F86               	movwf	(_t_check+2)& (0+255),b
  4024   0028A2  0E00               	movlw	0
  4025   0028A4  6F87               	movwf	(_t_check+3)& (0+255),b
  4026   0028A6                     
  4027                           ; BSR set to: 0
  4028                           ;main.c: 679:     t_check = ADC_GetConversion(3);
  4029   0028A6  0E03               	movlw	3
  4030   0028A8  ECE1  F019         	call	_ADC_GetConversion
  4031   0028AC  C004  F084         	movff	?_ADC_GetConversion,_t_check
  4032   0028B0  C005  F085         	movff	?_ADC_GetConversion+1,_t_check+1
  4033   0028B4  0100               	movlb	0	; () banked
  4034   0028B6  6B86               	clrf	(_t_check+2)& (0+255),b
  4035   0028B8  6B87               	clrf	(_t_check+3)& (0+255),b
  4036   0028BA                     
  4037                           ; BSR set to: 0
  4038                           ;main.c: 683:     if(24128<=t_check){
  4039   0028BA  5187               	movf	(_t_check+3)& (0+255),w,b
  4040   0028BC  1186               	iorwf	(_t_check+2)& (0+255),w,b
  4041   0028BE  E10B               	bnz	u8880
  4042   0028C0  0E40               	movlw	64
  4043   0028C2  5D84               	subwf	_t_check& (0+255),w,b
  4044   0028C4  0E5E               	movlw	94
  4045   0028C6  5985               	subwfb	(_t_check+1)& (0+255),w,b
  4046   0028C8  A0D8               	btfss	status,0,c
  4047   0028CA  EF69  F014         	goto	u8881
  4048   0028CE  EF6B  F014         	goto	u8880
  4049   0028D2                     u8881:
  4050   0028D2  EFA7  F014         	goto	l11117
  4051   0028D6                     u8880:
  4052   0028D6                     
  4053                           ; BSR set to: 0
  4054                           ;main.c: 684:         MSSP_I2C_Send_1_Byte(0x06, 'm');
  4055   0028D6  0E6D               	movlw	109
  4056   0028D8  6E09               	movwf	MSSP_I2C_Send_1_Byte@_data^0,c
  4057   0028DA  0E06               	movlw	6
  4058   0028DC  ECAB  F016         	call	_MSSP_I2C_Send_1_Byte
  4059   0028E0                     
  4060                           ;main.c: 685:         _delay((unsigned long)((15)*(8000000/4000.0)));
  4061   0028E0  0E27               	movlw	39
  4062   0028E2  6E1A               	movwf	??_fire_check^0,c
  4063   0028E4  0EF5               	movlw	245
  4064   0028E6                     u10677:
  4065   0028E6  2EE8               	decfsz	wreg,f,c
  4066   0028E8  D7FE               	bra	u10677
  4067   0028EA  2E1A               	decfsz	??_fire_check^0,f,c
  4068   0028EC  D7FC               	bra	u10677
  4069   0028EE  0000               	nop	
  4070                           
  4071                           ;main.c: 686:         while(t_check>=24128){
  4072   0028F0  EF96  F014         	goto	l11115
  4073   0028F4                     l11109:
  4074                           
  4075                           ; BSR set to: 0
  4076                           ;main.c: 687:         t_check = ADC_GetConversion(3);
  4077   0028F4  0E03               	movlw	3
  4078   0028F6  ECE1  F019         	call	_ADC_GetConversion
  4079   0028FA  C004  F084         	movff	?_ADC_GetConversion,_t_check
  4080   0028FE  C005  F085         	movff	?_ADC_GetConversion+1,_t_check+1
  4081   002902  0100               	movlb	0	; () banked
  4082   002904  6B86               	clrf	(_t_check+2)& (0+255),b
  4083   002906  6B87               	clrf	(_t_check+3)& (0+255),b
  4084   002908                     
  4085                           ; BSR set to: 0
  4086                           ;main.c: 688:         ecu_lcd_4_bits_send_command(&lcd,0X01);
  4087   002908  0E54               	movlw	low _lcd
  4088   00290A  6E0F               	movwf	ecu_lcd_4_bits_send_command@lcd^0,c
  4089   00290C  0E01               	movlw	1
  4090   00290E  6E10               	movwf	ecu_lcd_4_bits_send_command@command^0,c
  4091   002910  ECCC  F018         	call	_ecu_lcd_4_bits_send_command	;wreg free
  4092   002914                     
  4093                           ;main.c: 689:         ecu_lcd_4_bits_send_string_data_pos(&lcd," FIRE................!",
      +                          1,1);
  4094   002914  0E54               	movlw	low _lcd
  4095   002916  6E15               	movwf	ecu_lcd_4_bits_send_string_data_pos@lcd^0,c
  4096   002918  0E48               	movlw	low STR_61
  4097   00291A  6E16               	movwf	ecu_lcd_4_bits_send_string_data_pos@str^0,c
  4098   00291C  0EFE               	movlw	high STR_61
  4099   00291E  6E17               	movwf	(ecu_lcd_4_bits_send_string_data_pos@str+1)^0,c
  4100   002920  0E01               	movlw	1
  4101   002922  6E18               	movwf	ecu_lcd_4_bits_send_string_data_pos@row^0,c
  4102   002924  0E01               	movlw	1
  4103   002926  6E19               	movwf	ecu_lcd_4_bits_send_string_data_pos@column^0,c
  4104   002928  ECCA  F015         	call	_ecu_lcd_4_bits_send_string_data_pos	;wreg free
  4105   00292C                     l11115:
  4106                           
  4107                           ;main.c: 686:         while(t_check>=24128){
  4108   00292C  0100               	movlb	0	; () banked
  4109   00292E  5187               	movf	(_t_check+3)& (0+255),w,b
  4110   002930  1186               	iorwf	(_t_check+2)& (0+255),w,b
  4111   002932  E109               	bnz	u8891
  4112   002934  0E40               	movlw	64
  4113   002936  5D84               	subwf	_t_check& (0+255),w,b
  4114   002938  0E5E               	movlw	94
  4115   00293A  5985               	subwfb	(_t_check+1)& (0+255),w,b
  4116   00293C  B0D8               	btfsc	status,0,c
  4117   00293E  EFA3  F014         	goto	u8891
  4118   002942  EFA5  F014         	goto	u8890
  4119   002946                     u8891:
  4120   002946  EF7A  F014         	goto	l11109
  4121   00294A                     u8890:
  4122   00294A  EFB2  F014         	goto	l2160
  4123   00294E                     l11117:
  4124                           
  4125                           ; BSR set to: 0
  4126                           ;main.c: 693:         ecu_lcd_4_bits_send_command(&lcd,0X01);
  4127   00294E  0E54               	movlw	low _lcd
  4128   002950  6E0F               	movwf	ecu_lcd_4_bits_send_command@lcd^0,c
  4129   002952  0E01               	movlw	1
  4130   002954  6E10               	movwf	ecu_lcd_4_bits_send_command@command^0,c
  4131   002956  ECCC  F018         	call	_ecu_lcd_4_bits_send_command	;wreg free
  4132   00295A                     
  4133                           ;main.c: 694:         MSSP_I2C_Send_1_Byte(0x06, 'l');
  4134   00295A  0E6C               	movlw	108
  4135   00295C  6E09               	movwf	MSSP_I2C_Send_1_Byte@_data^0,c
  4136   00295E  0E06               	movlw	6
  4137   002960  ECAB  F016         	call	_MSSP_I2C_Send_1_Byte
  4138   002964                     l2160:
  4139   002964  0012               	return		;funcret
  4140   002966                     __end_of_fire_check:
  4141                           	callstack 0
  4142                           
  4143 ;; *************** function _ecu_motor_stop *****************
  4144 ;; Defined at:
  4145 ;;		line 67 in file "DC_MOTOR/ecu_dc_motor.c"
  4146 ;; Parameters:    Size  Location     Type
  4147 ;;  my_motor        1   11[COMRAM] PTR const struct .
  4148 ;;		 -> motor(2), 
  4149 ;; Auto vars:     Size  Location     Type
  4150 ;;  ret             1    0        unsigned char 
  4151 ;; Return value:  Size  Location     Type
  4152 ;;                  1    wreg      unsigned char 
  4153 ;; Registers used:
  4154 ;;		wreg, fsr2l, fsr2h, status,2, status,0, prodl, prodh, cstack
  4155 ;; Tracked objects:
  4156 ;;		On entry : 0/0
  4157 ;;		On exit  : 0/0
  4158 ;;		Unchanged: 0/0
  4159 ;; Data sizes:     COMRAM   BANK0   BANK1   BANK2   BANK3   BANK4   BANK5   BANK6   BANK7   BANK8   BANK9  BANK10  BANK1
      +1  BANK12  BANK13  BANK14  BANK15
  4160 ;;      Params:         1       0       0       0       0       0       0       0       0       0       0       0       
      +0       0       0       0       0
  4161 ;;      Locals:         0       0       0       0       0       0       0       0       0       0       0       0       
      +0       0       0       0       0
  4162 ;;      Temps:          0       0       0       0       0       0       0       0       0       0       0       0       
      +0       0       0       0       0
  4163 ;;      Totals:         1       0       0       0       0       0       0       0       0       0       0       0       
      +0       0       0       0       0
  4164 ;;Total ram usage:        1 bytes
  4165 ;; Hardware stack levels used: 1
  4166 ;; Hardware stack levels required when called: 5
  4167 ;; This function calls:
  4168 ;;		_gpio_pin_write_logic
  4169 ;; This function is called by:
  4170 ;;		_room_1
  4171 ;; This function uses a non-reentrant model
  4172 ;;
  4173                           
  4174                           	psect	text4
  4175   003498                     __ptext4:
  4176                           	callstack 0
  4177   003498                     _ecu_motor_stop:
  4178                           	callstack 24
  4179   003498                     
  4180                           ;DC_MOTOR/ecu_dc_motor.c: 69:     if(((void*)0) == my_motor){
  4181   003498  500C               	movf	ecu_motor_stop@my_motor^0,w,c
  4182   00349A  A4D8               	btfss	status,2,c
  4183   00349C  EF52  F01A         	goto	u8751
  4184   0034A0  EF54  F01A         	goto	u8750
  4185   0034A4                     u8751:
  4186   0034A4  EF56  F01A         	goto	l10929
  4187   0034A8                     u8750:
  4188   0034A8                     
  4189                           ;DC_MOTOR/ecu_dc_motor.c: 71:     }
  4190   0034A8  EF62  F01A         	goto	l94
  4191   0034AC                     l10929:
  4192                           
  4193                           ;DC_MOTOR/ecu_dc_motor.c: 74:         gpio_pin_write_logic (&(my_motor->motor[0]), GPIO_
      +                          LOW);
  4194   0034AC  C00C  F004         	movff	ecu_motor_stop@my_motor,gpio_pin_write_logic@_pin_config
  4195   0034B0  0E00               	movlw	0
  4196   0034B2  6E05               	movwf	gpio_pin_write_logic@logic^0,c
  4197   0034B4  ECCF  F012         	call	_gpio_pin_write_logic	;wreg free
  4198                           
  4199                           ;DC_MOTOR/ecu_dc_motor.c: 75:         gpio_pin_write_logic (&(my_motor->motor[1]), GPIO_
      +                          LOW);
  4200   0034B8  280C               	incf	ecu_motor_stop@my_motor^0,w,c
  4201   0034BA  6E04               	movwf	gpio_pin_write_logic@_pin_config^0,c
  4202   0034BC  0E00               	movlw	0
  4203   0034BE  6E05               	movwf	gpio_pin_write_logic@logic^0,c
  4204   0034C0  ECCF  F012         	call	_gpio_pin_write_logic	;wreg free
  4205   0034C4                     l94:
  4206   0034C4  0012               	return		;funcret
  4207   0034C6                     __end_of_ecu_motor_stop:
  4208                           	callstack 0
  4209                           
  4210 ;; *************** function _ecu_motor_move_right *****************
  4211 ;; Defined at:
  4212 ;;		line 35 in file "DC_MOTOR/ecu_dc_motor.c"
  4213 ;; Parameters:    Size  Location     Type
  4214 ;;  my_motor        1   11[COMRAM] PTR const struct .
  4215 ;;		 -> motor(2), 
  4216 ;; Auto vars:     Size  Location     Type
  4217 ;;  ret             1    0        unsigned char 
  4218 ;; Return value:  Size  Location     Type
  4219 ;;                  1    wreg      unsigned char 
  4220 ;; Registers used:
  4221 ;;		wreg, fsr2l, fsr2h, status,2, status,0, prodl, prodh, cstack
  4222 ;; Tracked objects:
  4223 ;;		On entry : 0/0
  4224 ;;		On exit  : 0/0
  4225 ;;		Unchanged: 0/0
  4226 ;; Data sizes:     COMRAM   BANK0   BANK1   BANK2   BANK3   BANK4   BANK5   BANK6   BANK7   BANK8   BANK9  BANK10  BANK1
      +1  BANK12  BANK13  BANK14  BANK15
  4227 ;;      Params:         1       0       0       0       0       0       0       0       0       0       0       0       
      +0       0       0       0       0
  4228 ;;      Locals:         0       0       0       0       0       0       0       0       0       0       0       0       
      +0       0       0       0       0
  4229 ;;      Temps:          0       0       0       0       0       0       0       0       0       0       0       0       
      +0       0       0       0       0
  4230 ;;      Totals:         1       0       0       0       0       0       0       0       0       0       0       0       
      +0       0       0       0       0
  4231 ;;Total ram usage:        1 bytes
  4232 ;; Hardware stack levels used: 1
  4233 ;; Hardware stack levels required when called: 5
  4234 ;; This function calls:
  4235 ;;		_gpio_pin_write_logic
  4236 ;; This function is called by:
  4237 ;;		_room_1
  4238 ;; This function uses a non-reentrant model
  4239 ;;
  4240                           
  4241                           	psect	text5
  4242   0034C6                     __ptext5:
  4243                           	callstack 0
  4244   0034C6                     _ecu_motor_move_right:
  4245                           	callstack 24
  4246   0034C6                     
  4247                           ;DC_MOTOR/ecu_dc_motor.c: 37:     if(((void*)0) == my_motor){
  4248   0034C6  500C               	movf	ecu_motor_move_right@my_motor^0,w,c
  4249   0034C8  A4D8               	btfss	status,2,c
  4250   0034CA  EF69  F01A         	goto	u8741
  4251   0034CE  EF6B  F01A         	goto	u8740
  4252   0034D2                     u8741:
  4253   0034D2  EF6D  F01A         	goto	l10921
  4254   0034D6                     u8740:
  4255   0034D6                     
  4256                           ;DC_MOTOR/ecu_dc_motor.c: 39:     }
  4257   0034D6  EF79  F01A         	goto	l84
  4258   0034DA                     l10921:
  4259                           
  4260                           ;DC_MOTOR/ecu_dc_motor.c: 42:         gpio_pin_write_logic (&(my_motor->motor[0]), GPIO_
      +                          HIGH);
  4261   0034DA  C00C  F004         	movff	ecu_motor_move_right@my_motor,gpio_pin_write_logic@_pin_config
  4262   0034DE  0E01               	movlw	1
  4263   0034E0  6E05               	movwf	gpio_pin_write_logic@logic^0,c
  4264   0034E2  ECCF  F012         	call	_gpio_pin_write_logic	;wreg free
  4265                           
  4266                           ;DC_MOTOR/ecu_dc_motor.c: 43:         gpio_pin_write_logic (&(my_motor->motor[1]), GPIO_
      +                          LOW);
  4267   0034E6  280C               	incf	ecu_motor_move_right@my_motor^0,w,c
  4268   0034E8  6E04               	movwf	gpio_pin_write_logic@_pin_config^0,c
  4269   0034EA  0E00               	movlw	0
  4270   0034EC  6E05               	movwf	gpio_pin_write_logic@logic^0,c
  4271   0034EE  ECCF  F012         	call	_gpio_pin_write_logic	;wreg free
  4272   0034F2                     l84:
  4273   0034F2  0012               	return		;funcret
  4274   0034F4                     __end_of_ecu_motor_move_right:
  4275                           	callstack 0
  4276                           
  4277 ;; *************** function _ecu_motor_initialization *****************
  4278 ;; Defined at:
  4279 ;;		line 18 in file "DC_MOTOR/ecu_dc_motor.c"
  4280 ;; Parameters:    Size  Location     Type
  4281 ;;  my_motor        1   10[COMRAM] PTR const struct .
  4282 ;;		 -> motor(2), 
  4283 ;; Auto vars:     Size  Location     Type
  4284 ;;  ret             1    0        unsigned char 
  4285 ;; Return value:  Size  Location     Type
  4286 ;;                  1    wreg      unsigned char 
  4287 ;; Registers used:
  4288 ;;		wreg, fsr2l, fsr2h, status,2, status,0, prodl, prodh, cstack
  4289 ;; Tracked objects:
  4290 ;;		On entry : 0/0
  4291 ;;		On exit  : 0/0
  4292 ;;		Unchanged: 0/0
  4293 ;; Data sizes:     COMRAM   BANK0   BANK1   BANK2   BANK3   BANK4   BANK5   BANK6   BANK7   BANK8   BANK9  BANK10  BANK1
      +1  BANK12  BANK13  BANK14  BANK15
  4294 ;;      Params:         1       0       0       0       0       0       0       0       0       0       0       0       
      +0       0       0       0       0
  4295 ;;      Locals:         0       0       0       0       0       0       0       0       0       0       0       0       
      +0       0       0       0       0
  4296 ;;      Temps:          0       0       0       0       0       0       0       0       0       0       0       0       
      +0       0       0       0       0
  4297 ;;      Totals:         1       0       0       0       0       0       0       0       0       0       0       0       
      +0       0       0       0       0
  4298 ;;Total ram usage:        1 bytes
  4299 ;; Hardware stack levels used: 1
  4300 ;; Hardware stack levels required when called: 5
  4301 ;; This function calls:
  4302 ;;		_gpio_pin_direction_intialization
  4303 ;; This function is called by:
  4304 ;;		_room_1
  4305 ;; This function uses a non-reentrant model
  4306 ;;
  4307                           
  4308                           	psect	text6
  4309   003548                     __ptext6:
  4310                           	callstack 0
  4311   003548                     _ecu_motor_initialization:
  4312                           	callstack 24
  4313   003548                     
  4314                           ;DC_MOTOR/ecu_dc_motor.c: 20:     if(((void*)0) == my_motor){
  4315   003548  500B               	movf	ecu_motor_initialization@my_motor^0,w,c
  4316   00354A  A4D8               	btfss	status,2,c
  4317   00354C  EFAA  F01A         	goto	u8731
  4318   003550  EFAC  F01A         	goto	u8730
  4319   003554                     u8731:
  4320   003554  EFAE  F01A         	goto	l10913
  4321   003558                     u8730:
  4322   003558                     
  4323                           ;DC_MOTOR/ecu_dc_motor.c: 22:     }
  4324   003558  EFB6  F01A         	goto	l79
  4325   00355C                     l10913:
  4326                           
  4327                           ;DC_MOTOR/ecu_dc_motor.c: 26:          gpio_pin_direction_intialization (&(my_motor->mot
      +                          or[0]));
  4328   00355C  C00B  F004         	movff	ecu_motor_initialization@my_motor,gpio_pin_direction_intialization@_pin_config
  4329   003560  EC46  F012         	call	_gpio_pin_direction_intialization	;wreg free
  4330                           
  4331                           ;DC_MOTOR/ecu_dc_motor.c: 27:          gpio_pin_direction_intialization (&(my_motor->mot
      +                          or[1]));
  4332   003564  280B               	incf	ecu_motor_initialization@my_motor^0,w,c
  4333   003566  6E04               	movwf	gpio_pin_direction_intialization@_pin_config^0,c
  4334   003568  EC46  F012         	call	_gpio_pin_direction_intialization	;wreg free
  4335   00356C                     l79:
  4336   00356C  0012               	return		;funcret
  4337   00356E                     __end_of_ecu_motor_initialization:
  4338                           	callstack 0
  4339                           
  4340 ;; *************** function _ecu_led_on *****************
  4341 ;; Defined at:
  4342 ;;		line 37 in file "LED/ecu_led.c"
  4343 ;; Parameters:    Size  Location     Type
  4344 ;;  led             1   11[COMRAM] PTR const struct .
  4345 ;;		 -> led(1), 
  4346 ;; Auto vars:     Size  Location     Type
  4347 ;;  mid_term        1   13[COMRAM] struct .
  4348 ;;  ret             1    0        unsigned char 
  4349 ;; Return value:  Size  Location     Type
  4350 ;;                  1    wreg      unsigned char 
  4351 ;; Registers used:
  4352 ;;		wreg, fsr2l, fsr2h, status,2, status,0, prodl, prodh, cstack
  4353 ;; Tracked objects:
  4354 ;;		On entry : 0/0
  4355 ;;		On exit  : 0/0
  4356 ;;		Unchanged: 0/0
  4357 ;; Data sizes:     COMRAM   BANK0   BANK1   BANK2   BANK3   BANK4   BANK5   BANK6   BANK7   BANK8   BANK9  BANK10  BANK1
      +1  BANK12  BANK13  BANK14  BANK15
  4358 ;;      Params:         1       0       0       0       0       0       0       0       0       0       0       0       
      +0       0       0       0       0
  4359 ;;      Locals:         1       0       0       0       0       0       0       0       0       0       0       0       
      +0       0       0       0       0
  4360 ;;      Temps:          1       0       0       0       0       0       0       0       0       0       0       0       
      +0       0       0       0       0
  4361 ;;      Totals:         3       0       0       0       0       0       0       0       0       0       0       0       
      +0       0       0       0       0
  4362 ;;Total ram usage:        3 bytes
  4363 ;; Hardware stack levels used: 1
  4364 ;; Hardware stack levels required when called: 5
  4365 ;; This function calls:
  4366 ;;		_gpio_pin_write_logic
  4367 ;; This function is called by:
  4368 ;;		_room_1
  4369 ;; This function uses a non-reentrant model
  4370 ;;
  4371                           
  4372                           	psect	text7
  4373   002F3A                     __ptext7:
  4374                           	callstack 0
  4375   002F3A                     _ecu_led_on:
  4376                           	callstack 24
  4377   002F3A                     
  4378                           ;LED/ecu_led.c: 40:     if(((void*)0)==led){
  4379   002F3A  500C               	movf	ecu_led_on@led^0,w,c
  4380   002F3C  A4D8               	btfss	status,2,c
  4381   002F3E  EFA3  F017         	goto	u8801
  4382   002F42  EFA5  F017         	goto	u8800
  4383   002F46                     u8801:
  4384   002F46  EFA7  F017         	goto	l849
  4385   002F4A                     u8800:
  4386   002F4A                     
  4387                           ;LED/ecu_led.c: 42:     }
  4388   002F4A  EFD1  F017         	goto	l853
  4389   002F4E                     l849:
  4390                           
  4391                           ;LED/ecu_led.c: 44:         pin_config_t mid_term={.port=led->port ,.pin=led->pin, .dire
      +                          ction=GPIO_DIRECTION_OUTPUT, .logic=led->led_logic};
  4392   002F4E  C0CC  F00E         	movff	ecu_led_on@F3739,ecu_led_on@mid_term
  4393   002F52  500C               	movf	ecu_led_on@led^0,w,c
  4394   002F54  6ED9               	movwf	fsr2l,c
  4395   002F56  6ADA               	clrf	fsr2h,c
  4396   002F58  50DF               	movf	223,w,c
  4397   002F5A  0B0F               	andlw	15
  4398   002F5C  6E0D               	movwf	??_ecu_led_on^0,c
  4399   002F5E  500E               	movf	ecu_led_on@mid_term^0,w,c
  4400   002F60  180D               	xorwf	??_ecu_led_on^0,w,c
  4401   002F62  0BF8               	andlw	-8
  4402   002F64  180D               	xorwf	??_ecu_led_on^0,w,c
  4403   002F66  6E0E               	movwf	ecu_led_on@mid_term^0,c
  4404   002F68  500C               	movf	ecu_led_on@led^0,w,c
  4405   002F6A  6ED9               	movwf	fsr2l,c
  4406   002F6C  6ADA               	clrf	fsr2h,c
  4407   002F6E  38DF               	swapf	223,w,c
  4408   002F70  0B07               	andlw	7
  4409   002F72  6E0D               	movwf	??_ecu_led_on^0,c
  4410   002F74  460D               	rlncf	??_ecu_led_on^0,f,c
  4411   002F76  460D               	rlncf	??_ecu_led_on^0,f,c
  4412   002F78  460D               	rlncf	??_ecu_led_on^0,f,c
  4413   002F7A  500E               	movf	ecu_led_on@mid_term^0,w,c
  4414   002F7C  180D               	xorwf	??_ecu_led_on^0,w,c
  4415   002F7E  0BC7               	andlw	-57
  4416   002F80  180D               	xorwf	??_ecu_led_on^0,w,c
  4417   002F82  6E0E               	movwf	ecu_led_on@mid_term^0,c
  4418   002F84  9C0E               	bcf	ecu_led_on@mid_term^0,6,c
  4419   002F86  500C               	movf	ecu_led_on@led^0,w,c
  4420   002F88  6ED9               	movwf	fsr2l,c
  4421   002F8A  6ADA               	clrf	fsr2h,c
  4422   002F8C  AEDF               	btfss	indf2,7,c
  4423   002F8E  D002               	bra	u8815
  4424   002F90  8E0E               	bsf	ecu_led_on@mid_term^0,7,c
  4425   002F92  D001               	bra	u8817
  4426   002F94                     u8815:
  4427   002F94  9E0E               	bcf	ecu_led_on@mid_term^0,7,c
  4428   002F96                     u8817:
  4429   002F96                     
  4430                           ;LED/ecu_led.c: 45:         gpio_pin_write_logic(&mid_term,GPIO_HIGH);
  4431   002F96  0E0E               	movlw	low ecu_led_on@mid_term
  4432   002F98  6E04               	movwf	gpio_pin_write_logic@_pin_config^0,c
  4433   002F9A  0E01               	movlw	1
  4434   002F9C  6E05               	movwf	gpio_pin_write_logic@logic^0,c
  4435   002F9E  ECCF  F012         	call	_gpio_pin_write_logic	;wreg free
  4436   002FA2                     l853:
  4437   002FA2  0012               	return		;funcret
  4438   002FA4                     __end_of_ecu_led_on:
  4439                           	callstack 0
  4440                           
  4441 ;; *************** function _ecu_led_off *****************
  4442 ;; Defined at:
  4443 ;;		line 54 in file "LED/ecu_led.c"
  4444 ;; Parameters:    Size  Location     Type
  4445 ;;  led             1   11[COMRAM] PTR const struct .
  4446 ;;		 -> led(1), 
  4447 ;; Auto vars:     Size  Location     Type
  4448 ;;  mid_term        1   13[COMRAM] struct .
  4449 ;;  ret             1    0        unsigned char 
  4450 ;; Return value:  Size  Location     Type
  4451 ;;                  1    wreg      unsigned char 
  4452 ;; Registers used:
  4453 ;;		wreg, fsr2l, fsr2h, status,2, status,0, prodl, prodh, cstack
  4454 ;; Tracked objects:
  4455 ;;		On entry : 0/0
  4456 ;;		On exit  : 0/0
  4457 ;;		Unchanged: 0/0
  4458 ;; Data sizes:     COMRAM   BANK0   BANK1   BANK2   BANK3   BANK4   BANK5   BANK6   BANK7   BANK8   BANK9  BANK10  BANK1
      +1  BANK12  BANK13  BANK14  BANK15
  4459 ;;      Params:         1       0       0       0       0       0       0       0       0       0       0       0       
      +0       0       0       0       0
  4460 ;;      Locals:         1       0       0       0       0       0       0       0       0       0       0       0       
      +0       0       0       0       0
  4461 ;;      Temps:          1       0       0       0       0       0       0       0       0       0       0       0       
      +0       0       0       0       0
  4462 ;;      Totals:         3       0       0       0       0       0       0       0       0       0       0       0       
      +0       0       0       0       0
  4463 ;;Total ram usage:        3 bytes
  4464 ;; Hardware stack levels used: 1
  4465 ;; Hardware stack levels required when called: 5
  4466 ;; This function calls:
  4467 ;;		_gpio_pin_write_logic
  4468 ;; This function is called by:
  4469 ;;		_room_1
  4470 ;; This function uses a non-reentrant model
  4471 ;;
  4472                           
  4473                           	psect	text8
  4474   002FA4                     __ptext8:
  4475                           	callstack 0
  4476   002FA4                     _ecu_led_off:
  4477                           	callstack 24
  4478   002FA4                     
  4479                           ;LED/ecu_led.c: 57:     if(((void*)0)==led){
  4480   002FA4  500C               	movf	ecu_led_off@led^0,w,c
  4481   002FA6  A4D8               	btfss	status,2,c
  4482   002FA8  EFD8  F017         	goto	u8821
  4483   002FAC  EFDA  F017         	goto	u8820
  4484   002FB0                     u8821:
  4485   002FB0  EFDC  F017         	goto	l856
  4486   002FB4                     u8820:
  4487   002FB4                     
  4488                           ;LED/ecu_led.c: 59:     }
  4489   002FB4  EF06  F018         	goto	l860
  4490   002FB8                     l856:
  4491                           
  4492                           ;LED/ecu_led.c: 61:         pin_config_t mid_term={.port=led->port ,.pin=led->pin, .dire
      +                          ction=GPIO_DIRECTION_OUTPUT, .logic=led->led_logic};
  4493   002FB8  C0CB  F00E         	movff	ecu_led_off@F3744,ecu_led_off@mid_term
  4494   002FBC  500C               	movf	ecu_led_off@led^0,w,c
  4495   002FBE  6ED9               	movwf	fsr2l,c
  4496   002FC0  6ADA               	clrf	fsr2h,c
  4497   002FC2  50DF               	movf	223,w,c
  4498   002FC4  0B0F               	andlw	15
  4499   002FC6  6E0D               	movwf	??_ecu_led_off^0,c
  4500   002FC8  500E               	movf	ecu_led_off@mid_term^0,w,c
  4501   002FCA  180D               	xorwf	??_ecu_led_off^0,w,c
  4502   002FCC  0BF8               	andlw	-8
  4503   002FCE  180D               	xorwf	??_ecu_led_off^0,w,c
  4504   002FD0  6E0E               	movwf	ecu_led_off@mid_term^0,c
  4505   002FD2  500C               	movf	ecu_led_off@led^0,w,c
  4506   002FD4  6ED9               	movwf	fsr2l,c
  4507   002FD6  6ADA               	clrf	fsr2h,c
  4508   002FD8  38DF               	swapf	223,w,c
  4509   002FDA  0B07               	andlw	7
  4510   002FDC  6E0D               	movwf	??_ecu_led_off^0,c
  4511   002FDE  460D               	rlncf	??_ecu_led_off^0,f,c
  4512   002FE0  460D               	rlncf	??_ecu_led_off^0,f,c
  4513   002FE2  460D               	rlncf	??_ecu_led_off^0,f,c
  4514   002FE4  500E               	movf	ecu_led_off@mid_term^0,w,c
  4515   002FE6  180D               	xorwf	??_ecu_led_off^0,w,c
  4516   002FE8  0BC7               	andlw	-57
  4517   002FEA  180D               	xorwf	??_ecu_led_off^0,w,c
  4518   002FEC  6E0E               	movwf	ecu_led_off@mid_term^0,c
  4519   002FEE  9C0E               	bcf	ecu_led_off@mid_term^0,6,c
  4520   002FF0  500C               	movf	ecu_led_off@led^0,w,c
  4521   002FF2  6ED9               	movwf	fsr2l,c
  4522   002FF4  6ADA               	clrf	fsr2h,c
  4523   002FF6  AEDF               	btfss	indf2,7,c
  4524   002FF8  D002               	bra	u8835
  4525   002FFA  8E0E               	bsf	ecu_led_off@mid_term^0,7,c
  4526   002FFC  D001               	bra	u8837
  4527   002FFE                     u8835:
  4528   002FFE  9E0E               	bcf	ecu_led_off@mid_term^0,7,c
  4529   003000                     u8837:
  4530   003000                     
  4531                           ;LED/ecu_led.c: 62:         gpio_pin_write_logic(&mid_term,GPIO_LOW);
  4532   003000  0E0E               	movlw	low ecu_led_off@mid_term
  4533   003002  6E04               	movwf	gpio_pin_write_logic@_pin_config^0,c
  4534   003004  0E00               	movlw	0
  4535   003006  6E05               	movwf	gpio_pin_write_logic@logic^0,c
  4536   003008  ECCF  F012         	call	_gpio_pin_write_logic	;wreg free
  4537   00300C                     l860:
  4538   00300C  0012               	return		;funcret
  4539   00300E                     __end_of_ecu_led_off:
  4540                           	callstack 0
  4541                           
  4542 ;; *************** function _ecu_led_initialization *****************
  4543 ;; Defined at:
  4544 ;;		line 20 in file "LED/ecu_led.c"
  4545 ;; Parameters:    Size  Location     Type
  4546 ;;  led             1   10[COMRAM] PTR const struct .
  4547 ;;		 -> led(1), 
  4548 ;; Auto vars:     Size  Location     Type
  4549 ;;  mid_term        1   12[COMRAM] struct .
  4550 ;;  ret             1    0        unsigned char 
  4551 ;; Return value:  Size  Location     Type
  4552 ;;                  1    wreg      unsigned char 
  4553 ;; Registers used:
  4554 ;;		wreg, fsr2l, fsr2h, status,2, status,0, prodl, prodh, cstack
  4555 ;; Tracked objects:
  4556 ;;		On entry : 0/0
  4557 ;;		On exit  : 0/0
  4558 ;;		Unchanged: 0/0
  4559 ;; Data sizes:     COMRAM   BANK0   BANK1   BANK2   BANK3   BANK4   BANK5   BANK6   BANK7   BANK8   BANK9  BANK10  BANK1
      +1  BANK12  BANK13  BANK14  BANK15
  4560 ;;      Params:         1       0       0       0       0       0       0       0       0       0       0       0       
      +0       0       0       0       0
  4561 ;;      Locals:         1       0       0       0       0       0       0       0       0       0       0       0       
      +0       0       0       0       0
  4562 ;;      Temps:          1       0       0       0       0       0       0       0       0       0       0       0       
      +0       0       0       0       0
  4563 ;;      Totals:         3       0       0       0       0       0       0       0       0       0       0       0       
      +0       0       0       0       0
  4564 ;;Total ram usage:        3 bytes
  4565 ;; Hardware stack levels used: 1
  4566 ;; Hardware stack levels required when called: 5
  4567 ;; This function calls:
  4568 ;;		_gpio_pin_direction_intialization
  4569 ;; This function is called by:
  4570 ;;		_room_1
  4571 ;; This function uses a non-reentrant model
  4572 ;;
  4573                           
  4574                           	psect	text9
  4575   003076                     __ptext9:
  4576                           	callstack 0
  4577   003076                     _ecu_led_initialization:
  4578                           	callstack 24
  4579   003076                     
  4580                           ;LED/ecu_led.c: 23:     if(((void*)0)==led){
  4581   003076  500B               	movf	ecu_led_initialization@led^0,w,c
  4582   003078  A4D8               	btfss	status,2,c
  4583   00307A  EF41  F018         	goto	u8781
  4584   00307E  EF43  F018         	goto	u8780
  4585   003082                     u8781:
  4586   003082  EF45  F018         	goto	l842
  4587   003086                     u8780:
  4588   003086                     
  4589                           ;LED/ecu_led.c: 25:     }
  4590   003086  EF6D  F018         	goto	l846
  4591   00308A                     l842:
  4592                           
  4593                           ;LED/ecu_led.c: 27:         pin_config_t mid_term={.port=led->port ,.pin=led->pin, .dire
      +                          ction=GPIO_DIRECTION_OUTPUT, .logic=led->led_logic};
  4594   00308A  C0CD  F00D         	movff	ecu_led_initialization@F3734,ecu_led_initialization@mid_term
  4595   00308E  500B               	movf	ecu_led_initialization@led^0,w,c
  4596   003090  6ED9               	movwf	fsr2l,c
  4597   003092  6ADA               	clrf	fsr2h,c
  4598   003094  50DF               	movf	223,w,c
  4599   003096  0B0F               	andlw	15
  4600   003098  6E0C               	movwf	??_ecu_led_initialization^0,c
  4601   00309A  500D               	movf	ecu_led_initialization@mid_term^0,w,c
  4602   00309C  180C               	xorwf	??_ecu_led_initialization^0,w,c
  4603   00309E  0BF8               	andlw	-8
  4604   0030A0  180C               	xorwf	??_ecu_led_initialization^0,w,c
  4605   0030A2  6E0D               	movwf	ecu_led_initialization@mid_term^0,c
  4606   0030A4  500B               	movf	ecu_led_initialization@led^0,w,c
  4607   0030A6  6ED9               	movwf	fsr2l,c
  4608   0030A8  6ADA               	clrf	fsr2h,c
  4609   0030AA  38DF               	swapf	223,w,c
  4610   0030AC  0B07               	andlw	7
  4611   0030AE  6E0C               	movwf	??_ecu_led_initialization^0,c
  4612   0030B0  460C               	rlncf	??_ecu_led_initialization^0,f,c
  4613   0030B2  460C               	rlncf	??_ecu_led_initialization^0,f,c
  4614   0030B4  460C               	rlncf	??_ecu_led_initialization^0,f,c
  4615   0030B6  500D               	movf	ecu_led_initialization@mid_term^0,w,c
  4616   0030B8  180C               	xorwf	??_ecu_led_initialization^0,w,c
  4617   0030BA  0BC7               	andlw	-57
  4618   0030BC  180C               	xorwf	??_ecu_led_initialization^0,w,c
  4619   0030BE  6E0D               	movwf	ecu_led_initialization@mid_term^0,c
  4620   0030C0  9C0D               	bcf	ecu_led_initialization@mid_term^0,6,c
  4621   0030C2  500B               	movf	ecu_led_initialization@led^0,w,c
  4622   0030C4  6ED9               	movwf	fsr2l,c
  4623   0030C6  6ADA               	clrf	fsr2h,c
  4624   0030C8  AEDF               	btfss	indf2,7,c
  4625   0030CA  D002               	bra	u8795
  4626   0030CC  8E0D               	bsf	ecu_led_initialization@mid_term^0,7,c
  4627   0030CE  D001               	bra	u8797
  4628   0030D0                     u8795:
  4629   0030D0  9E0D               	bcf	ecu_led_initialization@mid_term^0,7,c
  4630   0030D2                     u8797:
  4631   0030D2                     
  4632                           ;LED/ecu_led.c: 28:         gpio_pin_direction_intialization(&mid_term);
  4633   0030D2  0E0D               	movlw	low ecu_led_initialization@mid_term
  4634   0030D4  6E04               	movwf	gpio_pin_direction_intialization@_pin_config^0,c
  4635   0030D6  EC46  F012         	call	_gpio_pin_direction_intialization	;wreg free
  4636   0030DA                     l846:
  4637   0030DA  0012               	return		;funcret
  4638   0030DC                     __end_of_ecu_led_initialization:
  4639                           	callstack 0
  4640                           
  4641 ;; *************** function _home_page *****************
  4642 ;; Defined at:
  4643 ;;		line 225 in file "main.c"
  4644 ;; Parameters:    Size  Location     Type
  4645 ;;		None
  4646 ;; Auto vars:     Size  Location     Type
  4647 ;;		None
  4648 ;; Return value:  Size  Location     Type
  4649 ;;                  1    wreg      void 
  4650 ;; Registers used:
  4651 ;;		wreg, fsr0l, fsr0h, fsr1l, fsr1h, fsr2l, fsr2h, status,2, status,0, tblptrl, tblptrh, tblptru, prodl, prodh, cstack
  4652 ;; Tracked objects:
  4653 ;;		On entry : 0/0
  4654 ;;		On exit  : 0/0
  4655 ;;		Unchanged: 0/0
  4656 ;; Data sizes:     COMRAM   BANK0   BANK1   BANK2   BANK3   BANK4   BANK5   BANK6   BANK7   BANK8   BANK9  BANK10  BANK1
      +1  BANK12  BANK13  BANK14  BANK15
  4657 ;;      Params:         0       0       0       0       0       0       0       0       0       0       0       0       
      +0       0       0       0       0
  4658 ;;      Locals:         0       0       0       0       0       0       0       0       0       0       0       0       
      +0       0       0       0       0
  4659 ;;      Temps:          0       0       0       0       0       0       0       0       0       0       0       0       
      +0       0       0       0       0
  4660 ;;      Totals:         0       0       0       0       0       0       0       0       0       0       0       0       
      +0       0       0       0       0
  4661 ;;Total ram usage:        0 bytes
  4662 ;; Hardware stack levels used: 1
  4663 ;; Hardware stack levels required when called: 10
  4664 ;; This function calls:
  4665 ;;		_EUSART_Read
  4666 ;;		_check_password
  4667 ;;		_ecu_lcd_4_bits_send_char_data_pos
  4668 ;;		_ecu_lcd_4_bits_send_command
  4669 ;;		_ecu_lcd_4_bits_send_string_data_pos
  4670 ;;		_memset
  4671 ;; This function is called by:
  4672 ;;		_main
  4673 ;; This function uses a non-reentrant model
  4674 ;;
  4675                           
  4676                           	psect	text10
  4677   001E8E                     __ptext10:
  4678                           	callstack 0
  4679   001E8E                     _home_page:
  4680                           	callstack 20
  4681   001E8E                     
  4682                           ;main.c: 226:      ecu_lcd_4_bits_send_command(&lcd,0X01);
  4683   001E8E  0E54               	movlw	low _lcd
  4684   001E90  6E0F               	movwf	ecu_lcd_4_bits_send_command@lcd^0,c
  4685   001E92  0E01               	movlw	1
  4686   001E94  6E10               	movwf	ecu_lcd_4_bits_send_command@command^0,c
  4687   001E96  ECCC  F018         	call	_ecu_lcd_4_bits_send_command	;wreg free
  4688   001E9A                     
  4689                           ;main.c: 227:      inter=0;
  4690   001E9A  0E00               	movlw	0
  4691   001E9C  6E4E               	movwf	_inter^0,c
  4692                           
  4693                           ;main.c: 228:                      while(inter==0){
  4694   001E9E  EF1F  F010         	goto	l12493
  4695   001EA2                     l12431:
  4696                           
  4697                           ;main.c: 230:                             ecu_lcd_4_bits_send_string_data_pos(&lcd," Cho
      +                          ose : ",1,5);
  4698   001EA2  0E54               	movlw	low _lcd
  4699   001EA4  6E15               	movwf	ecu_lcd_4_bits_send_string_data_pos@lcd^0,c
  4700   001EA6  0E5F               	movlw	low STR_14
  4701   001EA8  6E16               	movwf	ecu_lcd_4_bits_send_string_data_pos@str^0,c
  4702   001EAA  0EFF               	movlw	high STR_14
  4703   001EAC  6E17               	movwf	(ecu_lcd_4_bits_send_string_data_pos@str+1)^0,c
  4704   001EAE  0E01               	movlw	1
  4705   001EB0  6E18               	movwf	ecu_lcd_4_bits_send_string_data_pos@row^0,c
  4706   001EB2  0E05               	movlw	5
  4707   001EB4  6E19               	movwf	ecu_lcd_4_bits_send_string_data_pos@column^0,c
  4708   001EB6  ECCA  F015         	call	_ecu_lcd_4_bits_send_string_data_pos	;wreg free
  4709                           
  4710                           ;main.c: 231:                             ecu_lcd_4_bits_send_string_data_pos(&lcd,"1-Co
      +                          ntrol Home",2,2);
  4711   001EBA  0E54               	movlw	low _lcd
  4712   001EBC  6E15               	movwf	ecu_lcd_4_bits_send_string_data_pos@lcd^0,c
  4713   001EBE  0E35               	movlw	low STR_15
  4714   001EC0  6E16               	movwf	ecu_lcd_4_bits_send_string_data_pos@str^0,c
  4715   001EC2  0EFF               	movlw	high STR_15
  4716   001EC4  6E17               	movwf	(ecu_lcd_4_bits_send_string_data_pos@str+1)^0,c
  4717   001EC6  0E02               	movlw	2
  4718   001EC8  6E18               	movwf	ecu_lcd_4_bits_send_string_data_pos@row^0,c
  4719   001ECA  0E02               	movlw	2
  4720   001ECC  6E19               	movwf	ecu_lcd_4_bits_send_string_data_pos@column^0,c
  4721   001ECE  ECCA  F015         	call	_ecu_lcd_4_bits_send_string_data_pos	;wreg free
  4722                           
  4723                           ;main.c: 232:                             ecu_lcd_4_bits_send_string_data_pos(&lcd,"2-Ch
      +                          ange Password : ",3,2);
  4724   001ED2  0E54               	movlw	low _lcd
  4725   001ED4  6E15               	movwf	ecu_lcd_4_bits_send_string_data_pos@lcd^0,c
  4726   001ED6  0E8C               	movlw	low STR_16
  4727   001ED8  6E16               	movwf	ecu_lcd_4_bits_send_string_data_pos@str^0,c
  4728   001EDA  0EFE               	movlw	high STR_16
  4729   001EDC  6E17               	movwf	(ecu_lcd_4_bits_send_string_data_pos@str+1)^0,c
  4730   001EDE  0E03               	movlw	3
  4731   001EE0  6E18               	movwf	ecu_lcd_4_bits_send_string_data_pos@row^0,c
  4732   001EE2  0E02               	movlw	2
  4733   001EE4  6E19               	movwf	ecu_lcd_4_bits_send_string_data_pos@column^0,c
  4734   001EE6  ECCA  F015         	call	_ecu_lcd_4_bits_send_string_data_pos	;wreg free
  4735   001EEA                     
  4736                           ;main.c: 233:                             inter =EUSART_Read();
  4737   001EEA  EC7A  F01A         	call	_EUSART_Read	;wreg free
  4738   001EEE  6E4E               	movwf	_inter^0,c
  4739   001EF0                     
  4740                           ;main.c: 234:                            if(inter == 252){
  4741   001EF0  0EFC               	movlw	252
  4742   001EF2  184E               	xorwf	_inter^0,w,c
  4743   001EF4  A4D8               	btfss	status,2,c
  4744   001EF6  EF7F  F00F         	goto	u10101
  4745   001EFA  EF81  F00F         	goto	u10100
  4746   001EFE                     u10101:
  4747   001EFE  EF83  F00F         	goto	l12441
  4748   001F02                     u10100:
  4749   001F02  EF27  F010         	goto	l12495
  4750   001F06                     l12441:
  4751   001F06  0EFD               	movlw	253
  4752   001F08  184E               	xorwf	_inter^0,w,c
  4753   001F0A  A4D8               	btfss	status,2,c
  4754   001F0C  EF8A  F00F         	goto	u10111
  4755   001F10  EF8C  F00F         	goto	u10110
  4756   001F14                     u10111:
  4757   001F14  EF1F  F010         	goto	l2014
  4758   001F18                     u10110:
  4759   001F18                     
  4760                           ;main.c: 238:                                     ecu_lcd_4_bits_send_command(&lcd,0X01)
      +                          ;
  4761   001F18  0E54               	movlw	low _lcd
  4762   001F1A  6E0F               	movwf	ecu_lcd_4_bits_send_command@lcd^0,c
  4763   001F1C  0E01               	movlw	1
  4764   001F1E  6E10               	movwf	ecu_lcd_4_bits_send_command@command^0,c
  4765   001F20  ECCC  F018         	call	_ecu_lcd_4_bits_send_command	;wreg free
  4766   001F24                     
  4767                           ;main.c: 239:                                     memset(astrik, ' ', 5);
  4768   001F24  0ED7               	movlw	low _astrik
  4769   001F26  6E04               	movwf	memset@dest^0,c
  4770   001F28  6A05               	clrf	(memset@dest+1)^0,c
  4771   001F2A  0E00               	movlw	0
  4772   001F2C  6E07               	movwf	(memset@c+1)^0,c
  4773   001F2E  0E20               	movlw	32
  4774   001F30  6E06               	movwf	memset@c^0,c
  4775   001F32  0E00               	movlw	0
  4776   001F34  6E09               	movwf	(memset@n+1)^0,c
  4777   001F36  0E05               	movlw	5
  4778   001F38  6E08               	movwf	memset@n^0,c
  4779   001F3A  ECFE  F019         	call	_memset	;wreg free
  4780   001F3E                     
  4781                           ;main.c: 241:                                     check_password();
  4782   001F3E  EC04  F011         	call	_check_password	;wreg free
  4783   001F42                     
  4784                           ;main.c: 242:                                     read_irritation=0;
  4785   001F42  0E00               	movlw	0
  4786   001F44  6E51               	movwf	_read_irritation^0,c
  4787   001F46                     
  4788                           ;main.c: 243:                                     ecu_lcd_4_bits_send_command(&lcd,0X01)
      +                          ;
  4789   001F46  0E54               	movlw	low _lcd
  4790   001F48  6E0F               	movwf	ecu_lcd_4_bits_send_command@lcd^0,c
  4791   001F4A  0E01               	movlw	1
  4792   001F4C  6E10               	movwf	ecu_lcd_4_bits_send_command@command^0,c
  4793   001F4E  ECCC  F018         	call	_ecu_lcd_4_bits_send_command	;wreg free
  4794   001F52                     
  4795                           ;main.c: 244:                                     ecu_lcd_4_bits_send_string_data_pos(&l
      +                          cd,"enter new password : ",1,1);
  4796   001F52  0E54               	movlw	low _lcd
  4797   001F54  6E15               	movwf	ecu_lcd_4_bits_send_string_data_pos@lcd^0,c
  4798   001F56  0E76               	movlw	low STR_17
  4799   001F58  6E16               	movwf	ecu_lcd_4_bits_send_string_data_pos@str^0,c
  4800   001F5A  0EFE               	movlw	high STR_17
  4801   001F5C  6E17               	movwf	(ecu_lcd_4_bits_send_string_data_pos@str+1)^0,c
  4802   001F5E  0E01               	movlw	1
  4803   001F60  6E18               	movwf	ecu_lcd_4_bits_send_string_data_pos@row^0,c
  4804   001F62  0E01               	movlw	1
  4805   001F64  6E19               	movwf	ecu_lcd_4_bits_send_string_data_pos@column^0,c
  4806   001F66  ECCA  F015         	call	_ecu_lcd_4_bits_send_string_data_pos	;wreg free
  4807   001F6A                     
  4808                           ;main.c: 245:                                      memset(astrik, ' ',5);
  4809   001F6A  0ED7               	movlw	low _astrik
  4810   001F6C  6E04               	movwf	memset@dest^0,c
  4811   001F6E  6A05               	clrf	(memset@dest+1)^0,c
  4812   001F70  0E00               	movlw	0
  4813   001F72  6E07               	movwf	(memset@c+1)^0,c
  4814   001F74  0E20               	movlw	32
  4815   001F76  6E06               	movwf	memset@c^0,c
  4816   001F78  0E00               	movlw	0
  4817   001F7A  6E09               	movwf	(memset@n+1)^0,c
  4818   001F7C  0E05               	movlw	5
  4819   001F7E  6E08               	movwf	memset@n^0,c
  4820   001F80  ECFE  F019         	call	_memset	;wreg free
  4821   001F84                     
  4822                           ;main.c: 247:                               for(read_irritation=0;read_irritation<5;read
      +                          _irritation++){
  4823   001F84  0E00               	movlw	0
  4824   001F86  6E51               	movwf	_read_irritation^0,c
  4825   001F88                     l12459:
  4826   001F88  0E04               	movlw	4
  4827   001F8A  6451               	cpfsgt	_read_irritation^0,c
  4828   001F8C  EFCA  F00F         	goto	u10121
  4829   001F90  EFCC  F00F         	goto	u10120
  4830   001F94                     u10121:
  4831   001F94  EFCE  F00F         	goto	l12463
  4832   001F98                     u10120:
  4833   001F98  EFEB  F00F         	goto	l12473
  4834   001F9C                     l12463:
  4835                           
  4836                           ;main.c: 249:                                     new_password[read_irritation] =EUSART_
      +                          Read();
  4837   001F9C  0E20               	movlw	low _new_password
  4838   001F9E  2451               	addwf	_read_irritation^0,w,c
  4839   001FA0  6ED9               	movwf	fsr2l,c
  4840   001FA2  6ADA               	clrf	fsr2h,c
  4841   001FA4  0E01               	movlw	high _new_password
  4842   001FA6  22DA               	addwfc	fsr2h,f,c
  4843   001FA8  EC7A  F01A         	call	_EUSART_Read	;wreg free
  4844   001FAC  6EDF               	movwf	indf2,c
  4845   001FAE                     
  4846                           ;main.c: 250:                                     astrik[read_irritation]='*';
  4847   001FAE  5051               	movf	_read_irritation^0,w,c
  4848   001FB0  0FD7               	addlw	low _astrik
  4849   001FB2  6ED9               	movwf	fsr2l,c
  4850   001FB4  6ADA               	clrf	fsr2h,c
  4851   001FB6  0E2A               	movlw	42
  4852   001FB8  6EDF               	movwf	indf2,c
  4853   001FBA                     
  4854                           ;main.c: 251:                                     ecu_lcd_4_bits_send_char_data_pos(&lcd
      +                          ,'*',2,read_irritation+16);
  4855   001FBA  0E54               	movlw	low _lcd
  4856   001FBC  6E15               	movwf	ecu_lcd_4_bits_send_char_data_pos@lcd^0,c
  4857   001FBE  0E2A               	movlw	42
  4858   001FC0  6E16               	movwf	ecu_lcd_4_bits_send_char_data_pos@data^0,c
  4859   001FC2  0E02               	movlw	2
  4860   001FC4  6E17               	movwf	ecu_lcd_4_bits_send_char_data_pos@row^0,c
  4861   001FC6  5051               	movf	_read_irritation^0,w,c
  4862   001FC8  0F10               	addlw	16
  4863   001FCA  6E18               	movwf	ecu_lcd_4_bits_send_char_data_pos@column^0,c
  4864   001FCC  ECC3  F019         	call	_ecu_lcd_4_bits_send_char_data_pos	;wreg free
  4865   001FD0                     
  4866                           ;main.c: 253:                                }
  4867   001FD0  2A51               	incf	_read_irritation^0,f,c
  4868   001FD2  EFC4  F00F         	goto	l12459
  4869   001FD6                     l12473:
  4870                           
  4871                           ;main.c: 255:                               read_irritation=0;
  4872   001FD6  0E00               	movlw	0
  4873   001FD8  6E51               	movwf	_read_irritation^0,c
  4874   001FDA                     
  4875                           ;main.c: 256:                               ecu_lcd_4_bits_send_command(&lcd,0X01);
  4876   001FDA  0E54               	movlw	low _lcd
  4877   001FDC  6E0F               	movwf	ecu_lcd_4_bits_send_command@lcd^0,c
  4878   001FDE  0E01               	movlw	1
  4879   001FE0  6E10               	movwf	ecu_lcd_4_bits_send_command@command^0,c
  4880   001FE2  ECCC  F018         	call	_ecu_lcd_4_bits_send_command	;wreg free
  4881   001FE6                     
  4882                           ;main.c: 257:                               for(read_irritation=0;read_irritation<5;read
      +                          _irritation++){
  4883   001FE6  0E00               	movlw	0
  4884   001FE8  6E51               	movwf	_read_irritation^0,c
  4885   001FEA                     l12479:
  4886   001FEA  0E04               	movlw	4
  4887   001FEC  6451               	cpfsgt	_read_irritation^0,c
  4888   001FEE  EFFB  F00F         	goto	u10131
  4889   001FF2  EFFD  F00F         	goto	u10130
  4890   001FF6                     u10131:
  4891   001FF6  EFFF  F00F         	goto	l12483
  4892   001FFA                     u10130:
  4893   001FFA  EF0E  F010         	goto	l12489
  4894   001FFE                     l12483:
  4895                           
  4896                           ;main.c: 258:                                   valid_password[read_irritation]=new_pass
      +                          word[read_irritation];
  4897   001FFE  0E20               	movlw	low _new_password
  4898   002000  2451               	addwf	_read_irritation^0,w,c
  4899   002002  6ED9               	movwf	fsr2l,c
  4900   002004  6ADA               	clrf	fsr2h,c
  4901   002006  0E01               	movlw	high _new_password
  4902   002008  22DA               	addwfc	fsr2h,f,c
  4903   00200A  5051               	movf	_read_irritation^0,w,c
  4904   00200C  0FF9               	addlw	low _valid_password
  4905   00200E  6EE1               	movwf	fsr1l,c
  4906   002010  6AE2               	clrf	fsr1h,c
  4907   002012  CFDF FFE7          	movff	indf2,indf1
  4908   002016                     
  4909                           ;main.c: 259:                                }
  4910   002016  2A51               	incf	_read_irritation^0,f,c
  4911   002018  EFF5  F00F         	goto	l12479
  4912   00201C                     l12489:
  4913                           
  4914                           ;main.c: 260:                                 memset(astrik, ' ', 5);
  4915   00201C  0ED7               	movlw	low _astrik
  4916   00201E  6E04               	movwf	memset@dest^0,c
  4917   002020  6A05               	clrf	(memset@dest+1)^0,c
  4918   002022  0E00               	movlw	0
  4919   002024  6E07               	movwf	(memset@c+1)^0,c
  4920   002026  0E20               	movlw	32
  4921   002028  6E06               	movwf	memset@c^0,c
  4922   00202A  0E00               	movlw	0
  4923   00202C  6E09               	movwf	(memset@n+1)^0,c
  4924   00202E  0E05               	movlw	5
  4925   002030  6E08               	movwf	memset@n^0,c
  4926   002032  ECFE  F019         	call	_memset	;wreg free
  4927   002036                     
  4928                           ;main.c: 262:                                 check_password();
  4929   002036  EC04  F011         	call	_check_password	;wreg free
  4930                           
  4931                           ;main.c: 263:                            }
  4932   00203A  EF1F  F010         	goto	l12493
  4933   00203E                     l2014:
  4934   00203E                     l12493:
  4935                           
  4936                           ;main.c: 228:                      while(inter==0){
  4937   00203E  504E               	movf	_inter^0,w,c
  4938   002040  B4D8               	btfsc	status,2,c
  4939   002042  EF25  F010         	goto	u10141
  4940   002046  EF27  F010         	goto	u10140
  4941   00204A                     u10141:
  4942   00204A  EF51  F00F         	goto	l12431
  4943   00204E                     u10140:
  4944   00204E                     l12495:
  4945                           
  4946                           ;main.c: 267:                             inter=0;
  4947   00204E  0E00               	movlw	0
  4948   002050  6E4E               	movwf	_inter^0,c
  4949   002052  0012               	return		;funcret
  4950   002054                     __end_of_home_page:
  4951                           	callstack 0
  4952                           
  4953 ;; *************** function _check_password *****************
  4954 ;; Defined at:
  4955 ;;		line 285 in file "main.c"
  4956 ;; Parameters:    Size  Location     Type
  4957 ;;		None
  4958 ;; Auto vars:     Size  Location     Type
  4959 ;;  ma              1    0        unsigned char 
  4960 ;; Return value:  Size  Location     Type
  4961 ;;                  1    wreg      void 
  4962 ;; Registers used:
  4963 ;;		wreg, fsr0l, fsr0h, fsr1l, fsr1h, fsr2l, fsr2h, status,2, status,0, tblptrl, tblptrh, tblptru, prodl, prodh, cstack
  4964 ;; Tracked objects:
  4965 ;;		On entry : 0/0
  4966 ;;		On exit  : 0/0
  4967 ;;		Unchanged: 0/0
  4968 ;; Data sizes:     COMRAM   BANK0   BANK1   BANK2   BANK3   BANK4   BANK5   BANK6   BANK7   BANK8   BANK9  BANK10  BANK1
      +1  BANK12  BANK13  BANK14  BANK15
  4969 ;;      Params:         0       0       0       0       0       0       0       0       0       0       0       0       
      +0       0       0       0       0
  4970 ;;      Locals:         0       0       0       0       0       0       0       0       0       0       0       0       
      +0       0       0       0       0
  4971 ;;      Temps:          2       0       0       0       0       0       0       0       0       0       0       0       
      +0       0       0       0       0
  4972 ;;      Totals:         2       0       0       0       0       0       0       0       0       0       0       0       
      +0       0       0       0       0
  4973 ;;Total ram usage:        2 bytes
  4974 ;; Hardware stack levels used: 1
  4975 ;; Hardware stack levels required when called: 9
  4976 ;; This function calls:
  4977 ;;		_EUSART_Read
  4978 ;;		_arr_compare
  4979 ;;		_ecu_lcd_4_bits_send_char_data_pos
  4980 ;;		_ecu_lcd_4_bits_send_command
  4981 ;;		_ecu_lcd_4_bits_send_string_data_pos
  4982 ;; This function is called by:
  4983 ;;		_main
  4984 ;;		_home_page
  4985 ;; This function uses a non-reentrant model
  4986 ;;
  4987                           
  4988                           	psect	text11
  4989   002208                     __ptext11:
  4990                           	callstack 0
  4991   002208                     _check_password:
  4992                           	callstack 20
  4993   002208                     
  4994                           ;main.c: 286:         for(i=0;i<3;i++){
  4995   002208  0E00               	movlw	0
  4996   00220A  6E50               	movwf	_i^0,c
  4997   00220C                     l11043:
  4998                           
  4999                           ;main.c: 287:          ecu_lcd_4_bits_send_string_data_pos(&lcd," Enter password : ",1,1
      +                          );
  5000   00220C  0E54               	movlw	low _lcd
  5001   00220E  6E15               	movwf	ecu_lcd_4_bits_send_string_data_pos@lcd^0,c
  5002   002210  0EDC               	movlw	low STR_18
  5003   002212  6E16               	movwf	ecu_lcd_4_bits_send_string_data_pos@str^0,c
  5004   002214  0EFE               	movlw	high STR_18
  5005   002216  6E17               	movwf	(ecu_lcd_4_bits_send_string_data_pos@str+1)^0,c
  5006   002218  0E01               	movlw	1
  5007   00221A  6E18               	movwf	ecu_lcd_4_bits_send_string_data_pos@row^0,c
  5008   00221C  0E01               	movlw	1
  5009   00221E  6E19               	movwf	ecu_lcd_4_bits_send_string_data_pos@column^0,c
  5010   002220  ECCA  F015         	call	_ecu_lcd_4_bits_send_string_data_pos	;wreg free
  5011   002224                     
  5012                           ;main.c: 288:             read_irritation=0;
  5013   002224  0E00               	movlw	0
  5014   002226  6E51               	movwf	_read_irritation^0,c
  5015   002228                     
  5016                           ;main.c: 290:             for(read_irritation=0;read_irritation<5;read_irritation++){
  5017   002228  0E00               	movlw	0
  5018   00222A  6E51               	movwf	_read_irritation^0,c
  5019   00222C                     l11051:
  5020   00222C  0E04               	movlw	4
  5021   00222E  6451               	cpfsgt	_read_irritation^0,c
  5022   002230  EF1C  F011         	goto	u8841
  5023   002234  EF1E  F011         	goto	u8840
  5024   002238                     u8841:
  5025   002238  EF20  F011         	goto	l11055
  5026   00223C                     u8840:
  5027   00223C  EF3B  F011         	goto	l11065
  5028   002240                     l11055:
  5029                           
  5030                           ;main.c: 292:                        password[read_irritation] =EUSART_Read();
  5031   002240  5051               	movf	_read_irritation^0,w,c
  5032   002242  0FDC               	addlw	low _password
  5033   002244  6ED9               	movwf	fsr2l,c
  5034   002246  6ADA               	clrf	fsr2h,c
  5035   002248  EC7A  F01A         	call	_EUSART_Read	;wreg free
  5036   00224C  6EDF               	movwf	indf2,c
  5037   00224E                     
  5038                           ;main.c: 293:                        astrik[read_irritation]='*';
  5039   00224E  5051               	movf	_read_irritation^0,w,c
  5040   002250  0FD7               	addlw	low _astrik
  5041   002252  6ED9               	movwf	fsr2l,c
  5042   002254  6ADA               	clrf	fsr2h,c
  5043   002256  0E2A               	movlw	42
  5044   002258  6EDF               	movwf	indf2,c
  5045   00225A                     
  5046                           ;main.c: 295:                        ecu_lcd_4_bits_send_char_data_pos(&lcd,'*',2,read_i
      +                          rritation+16);
  5047   00225A  0E54               	movlw	low _lcd
  5048   00225C  6E15               	movwf	ecu_lcd_4_bits_send_char_data_pos@lcd^0,c
  5049   00225E  0E2A               	movlw	42
  5050   002260  6E16               	movwf	ecu_lcd_4_bits_send_char_data_pos@data^0,c
  5051   002262  0E02               	movlw	2
  5052   002264  6E17               	movwf	ecu_lcd_4_bits_send_char_data_pos@row^0,c
  5053   002266  5051               	movf	_read_irritation^0,w,c
  5054   002268  0F10               	addlw	16
  5055   00226A  6E18               	movwf	ecu_lcd_4_bits_send_char_data_pos@column^0,c
  5056   00226C  ECC3  F019         	call	_ecu_lcd_4_bits_send_char_data_pos	;wreg free
  5057   002270                     
  5058                           ;main.c: 297:             }
  5059   002270  2A51               	incf	_read_irritation^0,f,c
  5060   002272  EF16  F011         	goto	l11051
  5061   002276                     l11065:
  5062                           
  5063                           ;main.c: 300:             return_val = arr_compare(password,valid_password,5);
  5064   002276  0EDC               	movlw	low _password
  5065   002278  6E04               	movwf	arr_compare@arr1^0,c
  5066   00227A  0EF9               	movlw	low _valid_password
  5067   00227C  6E05               	movwf	arr_compare@arr2^0,c
  5068   00227E  0E05               	movlw	5
  5069   002280  6E06               	movwf	arr_compare@length^0,c
  5070   002282  EC67  F017         	call	_arr_compare	;wreg free
  5071   002286  0100               	movlb	0	; () banked
  5072   002288  6FC6               	movwf	_return_val& (0+255),b
  5073   00228A                     
  5074                           ; BSR set to: 0
  5075                           ;main.c: 301:                 if(1==return_val){
  5076   00228A  05C6               	decf	_return_val& (0+255),w,b
  5077   00228C  A4D8               	btfss	status,2,c
  5078   00228E  EF4B  F011         	goto	u8851
  5079   002292  EF4D  F011         	goto	u8850
  5080   002296                     u8851:
  5081   002296  EF55  F011         	goto	l11073
  5082   00229A                     u8850:
  5083   00229A                     
  5084                           ; BSR set to: 0
  5085                           ;main.c: 302:                         ecu_lcd_4_bits_send_command(&lcd,0X01);
  5086   00229A  0E54               	movlw	low _lcd
  5087   00229C  6E0F               	movwf	ecu_lcd_4_bits_send_command@lcd^0,c
  5088   00229E  0E01               	movlw	1
  5089   0022A0  6E10               	movwf	ecu_lcd_4_bits_send_command@command^0,c
  5090   0022A2  ECCC  F018         	call	_ecu_lcd_4_bits_send_command	;wreg free
  5091                           
  5092                           ;main.c: 303:                         break;
  5093   0022A6  EFB4  F011         	goto	l2043
  5094   0022AA                     l11073:
  5095                           
  5096                           ; BSR set to: 0
  5097                           ;main.c: 306:                         password_irritation++;
  5098   0022AA  2BC7               	incf	_password_irritation& (0+255),f,b
  5099   0022AC                     
  5100                           ; BSR set to: 0
  5101                           ;main.c: 307:                         ecu_lcd_4_bits_send_command(&lcd,0X01);
  5102   0022AC  0E54               	movlw	low _lcd
  5103   0022AE  6E0F               	movwf	ecu_lcd_4_bits_send_command@lcd^0,c
  5104   0022B0  0E01               	movlw	1
  5105   0022B2  6E10               	movwf	ecu_lcd_4_bits_send_command@command^0,c
  5106   0022B4  ECCC  F018         	call	_ecu_lcd_4_bits_send_command	;wreg free
  5107   0022B8                     
  5108                           ;main.c: 308:                         ecu_lcd_4_bits_send_string_data_pos(&lcd," Wrong p
      +                          assword ! ",2,1);
  5109   0022B8  0E54               	movlw	low _lcd
  5110   0022BA  6E15               	movwf	ecu_lcd_4_bits_send_string_data_pos@lcd^0,c
  5111   0022BC  0EC9               	movlw	low STR_19
  5112   0022BE  6E16               	movwf	ecu_lcd_4_bits_send_string_data_pos@str^0,c
  5113   0022C0  0EFE               	movlw	high STR_19
  5114   0022C2  6E17               	movwf	(ecu_lcd_4_bits_send_string_data_pos@str+1)^0,c
  5115   0022C4  0E02               	movlw	2
  5116   0022C6  6E18               	movwf	ecu_lcd_4_bits_send_string_data_pos@row^0,c
  5117   0022C8  0E01               	movlw	1
  5118   0022CA  6E19               	movwf	ecu_lcd_4_bits_send_string_data_pos@column^0,c
  5119   0022CC  ECCA  F015         	call	_ecu_lcd_4_bits_send_string_data_pos	;wreg free
  5120   0022D0                     
  5121                           ;main.c: 309:                             _delay((unsigned long)((2500)*(8000000/4000.0)
      +                          ));
  5122   0022D0  0E1A               	movlw	26
  5123   0022D2  6E1B               	movwf	(??_check_password+1)^0,c
  5124   0022D4  0E5E               	movlw	94
  5125   0022D6  6E1A               	movwf	??_check_password^0,c
  5126   0022D8  0E6E               	movlw	110
  5127   0022DA                     u10687:
  5128   0022DA  2EE8               	decfsz	wreg,f,c
  5129   0022DC  D7FE               	bra	u10687
  5130   0022DE  2E1A               	decfsz	??_check_password^0,f,c
  5131   0022E0  D7FC               	bra	u10687
  5132   0022E2  2E1B               	decfsz	(??_check_password+1)^0,f,c
  5133   0022E4  D7FA               	bra	u10687
  5134   0022E6  F000 F000          	nop2	
  5135   0022EA                     
  5136                           ;main.c: 310:                             ecu_lcd_4_bits_send_command(&lcd,0X01);
  5137   0022EA  0E54               	movlw	low _lcd
  5138   0022EC  6E0F               	movwf	ecu_lcd_4_bits_send_command@lcd^0,c
  5139   0022EE  0E01               	movlw	1
  5140   0022F0  6E10               	movwf	ecu_lcd_4_bits_send_command@command^0,c
  5141   0022F2  ECCC  F018         	call	_ecu_lcd_4_bits_send_command	;wreg free
  5142   0022F6                     
  5143                           ;main.c: 311:                         if(password_irritation==3){
  5144   0022F6  0E03               	movlw	3
  5145   0022F8  0100               	movlb	0	; () banked
  5146   0022FA  19C7               	xorwf	_password_irritation& (0+255),w,b
  5147   0022FC  A4D8               	btfss	status,2,c
  5148   0022FE  EF83  F011         	goto	u8861
  5149   002302  EF85  F011         	goto	u8860
  5150   002306                     u8861:
  5151   002306  EFAB  F011         	goto	l11095
  5152   00230A                     u8860:
  5153   00230A                     
  5154                           ; BSR set to: 0
  5155                           ;main.c: 313:                             ecu_lcd_4_bits_send_command(&lcd,0X01);
  5156   00230A  0E54               	movlw	low _lcd
  5157   00230C  6E0F               	movwf	ecu_lcd_4_bits_send_command@lcd^0,c
  5158   00230E  0E01               	movlw	1
  5159   002310  6E10               	movwf	ecu_lcd_4_bits_send_command@command^0,c
  5160   002312  ECCC  F018         	call	_ecu_lcd_4_bits_send_command	;wreg free
  5161   002316                     
  5162                           ;main.c: 314:                            ecu_lcd_4_bits_send_string_data_pos(&lcd," Wait
      +                           10s to try!",2,1);
  5163   002316  0E54               	movlw	low _lcd
  5164   002318  6E15               	movwf	ecu_lcd_4_bits_send_string_data_pos@lcd^0,c
  5165   00231A  0E02               	movlw	low STR_20
  5166   00231C  6E16               	movwf	ecu_lcd_4_bits_send_string_data_pos@str^0,c
  5167   00231E  0EFF               	movlw	high STR_20
  5168   002320  6E17               	movwf	(ecu_lcd_4_bits_send_string_data_pos@str+1)^0,c
  5169   002322  0E02               	movlw	2
  5170   002324  6E18               	movwf	ecu_lcd_4_bits_send_string_data_pos@row^0,c
  5171   002326  0E01               	movlw	1
  5172   002328  6E19               	movwf	ecu_lcd_4_bits_send_string_data_pos@column^0,c
  5173   00232A  ECCA  F015         	call	_ecu_lcd_4_bits_send_string_data_pos	;wreg free
  5174   00232E                     
  5175                           ;main.c: 317:                             _delay((unsigned long)((10000)*(8000000/4000.0
      +                          )));
  5176   00232E  0E66               	movlw	102
  5177   002330  6E1B               	movwf	(??_check_password+1)^0,c
  5178   002332  0E76               	movlw	118
  5179   002334  6E1A               	movwf	??_check_password^0,c
  5180   002336  0EC1               	movlw	193
  5181   002338                     u10697:
  5182   002338  2EE8               	decfsz	wreg,f,c
  5183   00233A  D7FE               	bra	u10697
  5184   00233C  2E1A               	decfsz	??_check_password^0,f,c
  5185   00233E  D7FC               	bra	u10697
  5186   002340  2E1B               	decfsz	(??_check_password+1)^0,f,c
  5187   002342  D7FA               	bra	u10697
  5188   002344  0000               	nop	
  5189   002346                     
  5190                           ;main.c: 318:                             ecu_lcd_4_bits_send_command(&lcd,0X01);
  5191   002346  0E54               	movlw	low _lcd
  5192   002348  6E0F               	movwf	ecu_lcd_4_bits_send_command@lcd^0,c
  5193   00234A  0E01               	movlw	1
  5194   00234C  6E10               	movwf	ecu_lcd_4_bits_send_command@command^0,c
  5195   00234E  ECCC  F018         	call	_ecu_lcd_4_bits_send_command	;wreg free
  5196   002352                     
  5197                           ;main.c: 319:                             i=0;
  5198   002352  0E00               	movlw	0
  5199   002354  6E50               	movwf	_i^0,c
  5200   002356                     l11095:
  5201                           
  5202                           ;main.c: 325:     }
  5203   002356  2A50               	incf	_i^0,f,c
  5204   002358  0E02               	movlw	2
  5205   00235A  6450               	cpfsgt	_i^0,c
  5206   00235C  EFB2  F011         	goto	u8871
  5207   002360  EFB4  F011         	goto	u8870
  5208   002364                     u8871:
  5209   002364  EF06  F011         	goto	l11043
  5210   002368                     u8870:
  5211   002368                     l2043:
  5212   002368  0012               	return		;funcret
  5213   00236A                     __end_of_check_password:
  5214                           	callstack 0
  5215                           
  5216 ;; *************** function _ecu_lcd_4_bits_send_char_data_pos *****************
  5217 ;; Defined at:
  5218 ;;		line 93 in file "LCD/ecu_chr_lcd.c"
  5219 ;; Parameters:    Size  Location     Type
  5220 ;;  lcd             1   20[COMRAM] PTR const struct .
  5221 ;;		 -> lcd(6), 
  5222 ;;  data            1   21[COMRAM] unsigned char 
  5223 ;;  row             1   22[COMRAM] unsigned char 
  5224 ;;  column          1   23[COMRAM] unsigned char 
  5225 ;; Auto vars:     Size  Location     Type
  5226 ;;  ret             1   24[COMRAM] unsigned char 
  5227 ;; Return value:  Size  Location     Type
  5228 ;;                  1    wreg      unsigned char 
  5229 ;; Registers used:
  5230 ;;		wreg, fsr2l, fsr2h, status,2, status,0, prodl, prodh, cstack
  5231 ;; Tracked objects:
  5232 ;;		On entry : 0/0
  5233 ;;		On exit  : 0/0
  5234 ;;		Unchanged: 0/0
  5235 ;; Data sizes:     COMRAM   BANK0   BANK1   BANK2   BANK3   BANK4   BANK5   BANK6   BANK7   BANK8   BANK9  BANK10  BANK1
      +1  BANK12  BANK13  BANK14  BANK15
  5236 ;;      Params:         4       0       0       0       0       0       0       0       0       0       0       0       
      +0       0       0       0       0
  5237 ;;      Locals:         1       0       0       0       0       0       0       0       0       0       0       0       
      +0       0       0       0       0
  5238 ;;      Temps:          0       0       0       0       0       0       0       0       0       0       0       0       
      +0       0       0       0       0
  5239 ;;      Totals:         5       0       0       0       0       0       0       0       0       0       0       0       
      +0       0       0       0       0
  5240 ;;Total ram usage:        5 bytes
  5241 ;; Hardware stack levels used: 1
  5242 ;; Hardware stack levels required when called: 8
  5243 ;; This function calls:
  5244 ;;		_ecu_lcd_4_bits_send_char_data
  5245 ;;		_send_4bits_set_cursor
  5246 ;; This function is called by:
  5247 ;;		_home_page
  5248 ;;		_check_password
  5249 ;;		_ecu_lcd_4_bits_send_custom_char_data_pos
  5250 ;; This function uses a non-reentrant model
  5251 ;;
  5252                           
  5253                           	psect	text12
  5254   003386                     __ptext12:
  5255                           	callstack 0
  5256   003386                     _ecu_lcd_4_bits_send_char_data_pos:
  5257                           	callstack 21
  5258   003386                     
  5259                           ;LCD/ecu_chr_lcd.c: 95:     if(((void*)0) == lcd){
  5260   003386  5015               	movf	ecu_lcd_4_bits_send_char_data_pos@lcd^0,w,c
  5261   003388  A4D8               	btfss	status,2,c
  5262   00338A  EFC9  F019         	goto	u8421
  5263   00338E  EFCB  F019         	goto	u8420
  5264   003392                     u8421:
  5265   003392  EFCF  F019         	goto	l10711
  5266   003396                     u8420:
  5267   003396                     
  5268                           ;LCD/ecu_chr_lcd.c: 96:         ret = (Std_ReturnType)0x01;
  5269   003396  0E01               	movlw	1
  5270   003398  6E19               	movwf	ecu_lcd_4_bits_send_char_data_pos@ret^0,c
  5271                           
  5272                           ;LCD/ecu_chr_lcd.c: 97:     }
  5273   00339A  EFDF  F019         	goto	l10713
  5274   00339E                     l10711:
  5275                           
  5276                           ;LCD/ecu_chr_lcd.c: 99:         ret = send_4bits_set_cursor(lcd,row,column);
  5277   00339E  C015  F012         	movff	ecu_lcd_4_bits_send_char_data_pos@lcd,send_4bits_set_cursor@lcd
  5278   0033A2  C017  F013         	movff	ecu_lcd_4_bits_send_char_data_pos@row,send_4bits_set_cursor@row
  5279   0033A6  C018  F014         	movff	ecu_lcd_4_bits_send_char_data_pos@column,send_4bits_set_cursor@column
  5280   0033AA  ECF1  F016         	call	_send_4bits_set_cursor	;wreg free
  5281   0033AE  6E19               	movwf	ecu_lcd_4_bits_send_char_data_pos@ret^0,c
  5282                           
  5283                           ;LCD/ecu_chr_lcd.c: 100:         ret = ecu_lcd_4_bits_send_char_data(lcd,data);
  5284   0033B0  C015  F00F         	movff	ecu_lcd_4_bits_send_char_data_pos@lcd,ecu_lcd_4_bits_send_char_data@lcd
  5285   0033B4  C016  F010         	movff	ecu_lcd_4_bits_send_char_data_pos@data,ecu_lcd_4_bits_send_char_data@data
  5286   0033B8  EC9D  F018         	call	_ecu_lcd_4_bits_send_char_data	;wreg free
  5287   0033BC  6E19               	movwf	ecu_lcd_4_bits_send_char_data_pos@ret^0,c
  5288   0033BE                     l10713:
  5289                           
  5290                           ;LCD/ecu_chr_lcd.c: 102:     return ret;
  5291   0033BE  5019               	movf	ecu_lcd_4_bits_send_char_data_pos@ret^0,w,c
  5292   0033C0  0012               	return		;funcret
  5293   0033C2                     __end_of_ecu_lcd_4_bits_send_char_data_pos:
  5294                           	callstack 0
  5295                           
  5296 ;; *************** function _arr_compare *****************
  5297 ;; Defined at:
  5298 ;;		line 270 in file "main.c"
  5299 ;; Parameters:    Size  Location     Type
  5300 ;;  arr1            1    3[COMRAM] PTR unsigned char 
  5301 ;;		 -> password(5), 
  5302 ;;  arr2            1    4[COMRAM] PTR unsigned char 
  5303 ;;		 -> valid_password(5), 
  5304 ;;  length          1    5[COMRAM] unsigned char 
  5305 ;; Auto vars:     Size  Location     Type
  5306 ;;  itiration       1    8[COMRAM] unsigned char 
  5307 ;; Return value:  Size  Location     Type
  5308 ;;                  1    wreg      unsigned char 
  5309 ;; Registers used:
  5310 ;;		wreg, fsr1l, fsr1h, fsr2l, fsr2h, status,2, status,0
  5311 ;; Tracked objects:
  5312 ;;		On entry : 0/0
  5313 ;;		On exit  : 0/0
  5314 ;;		Unchanged: 0/0
  5315 ;; Data sizes:     COMRAM   BANK0   BANK1   BANK2   BANK3   BANK4   BANK5   BANK6   BANK7   BANK8   BANK9  BANK10  BANK1
      +1  BANK12  BANK13  BANK14  BANK15
  5316 ;;      Params:         3       0       0       0       0       0       0       0       0       0       0       0       
      +0       0       0       0       0
  5317 ;;      Locals:         1       0       0       0       0       0       0       0       0       0       0       0       
      +0       0       0       0       0
  5318 ;;      Temps:          2       0       0       0       0       0       0       0       0       0       0       0       
      +0       0       0       0       0
  5319 ;;      Totals:         6       0       0       0       0       0       0       0       0       0       0       0       
      +0       0       0       0       0
  5320 ;;Total ram usage:        6 bytes
  5321 ;; Hardware stack levels used: 1
  5322 ;; Hardware stack levels required when called: 4
  5323 ;; This function calls:
  5324 ;;		Nothing
  5325 ;; This function is called by:
  5326 ;;		_check_password
  5327 ;; This function uses a non-reentrant model
  5328 ;;
  5329                           
  5330                           	psect	text13
  5331   002ECE                     __ptext13:
  5332                           	callstack 0
  5333   002ECE                     _arr_compare:
  5334                           	callstack 24
  5335   002ECE                     
  5336                           ;main.c: 271:     if(((void*)0)==arr1 || ((void*)0)==arr2){
  5337   002ECE  5004               	movf	arr_compare@arr1^0,w,c
  5338   002ED0  B4D8               	btfsc	status,2,c
  5339   002ED2  EF6D  F017         	goto	u8521
  5340   002ED6  EF6F  F017         	goto	u8520
  5341   002EDA                     u8521:
  5342   002EDA  EF77  F017         	goto	l10795
  5343   002EDE                     u8520:
  5344   002EDE  5005               	movf	arr_compare@arr2^0,w,c
  5345   002EE0  A4D8               	btfss	status,2,c
  5346   002EE2  EF75  F017         	goto	u8531
  5347   002EE6  EF77  F017         	goto	u8530
  5348   002EEA                     u8531:
  5349   002EEA  EF7A  F017         	goto	l10801
  5350   002EEE                     u8530:
  5351   002EEE                     l10795:
  5352                           
  5353                           ;main.c: 272:         return 0;
  5354   002EEE  0E00               	movlw	0
  5355   002EF0  EF9C  F017         	goto	l2027
  5356   002EF4                     l10801:
  5357                           
  5358                           ;main.c: 275:         for(uint8_t itiration =0;itiration<length;itiration++){
  5359   002EF4  0E00               	movlw	0
  5360   002EF6  6E09               	movwf	arr_compare@itiration^0,c
  5361   002EF8  EF92  F017         	goto	l10813
  5362   002EFC                     l10803:
  5363                           
  5364                           ;main.c: 276:             if(arr1[itiration]!=arr2[itiration]){
  5365   002EFC  5005               	movf	arr_compare@arr2^0,w,c
  5366   002EFE  2409               	addwf	arr_compare@itiration^0,w,c
  5367   002F00  6ED9               	movwf	fsr2l,c
  5368   002F02  6ADA               	clrf	fsr2h,c
  5369   002F04  5004               	movf	arr_compare@arr1^0,w,c
  5370   002F06  2409               	addwf	arr_compare@itiration^0,w,c
  5371   002F08  6EE1               	movwf	fsr1l,c
  5372   002F0A  6AE2               	clrf	fsr1h,c
  5373   002F0C  50DE               	movf	postinc2,w,c
  5374   002F0E  18E6               	xorwf	postinc1,w,c
  5375   002F10  B4D8               	btfsc	status,2,c
  5376   002F12  EF8D  F017         	goto	u8541
  5377   002F16  EF8F  F017         	goto	u8540
  5378   002F1A                     u8541:
  5379   002F1A  EF91  F017         	goto	l10811
  5380   002F1E                     u8540:
  5381   002F1E  EF77  F017         	goto	l10795
  5382   002F22                     l10811:
  5383                           
  5384                           ;main.c: 280:         }
  5385   002F22  2A09               	incf	arr_compare@itiration^0,f,c
  5386   002F24                     l10813:
  5387   002F24  5006               	movf	arr_compare@length^0,w,c
  5388   002F26  5C09               	subwf	arr_compare@itiration^0,w,c
  5389   002F28  A0D8               	btfss	status,0,c
  5390   002F2A  EF99  F017         	goto	u8551
  5391   002F2E  EF9B  F017         	goto	u8550
  5392   002F32                     u8551:
  5393   002F32  EF7E  F017         	goto	l10803
  5394   002F36                     u8550:
  5395   002F36                     
  5396                           ;main.c: 281:        return 1;
  5397   002F36  0E01               	movlw	1
  5398   002F38                     l2027:
  5399   002F38  0012               	return		;funcret
  5400   002F3A                     __end_of_arr_compare:
  5401                           	callstack 0
  5402                           
  5403 ;; *************** function _garage *****************
  5404 ;; Defined at:
  5405 ;;		line 587 in file "main.c"
  5406 ;; Parameters:    Size  Location     Type
  5407 ;;		None
  5408 ;; Auto vars:     Size  Location     Type
  5409 ;;  temp_string     1    4[BANK1 ] unsigned char [1]
  5410 ;;  door_status2    1    3[BANK1 ] unsigned char 
  5411 ;;  door_status1    1    2[BANK1 ] unsigned char 
  5412 ;;  room            1    1[BANK1 ] unsigned char 
  5413 ;;  stat            1    0[BANK1 ] unsigned char 
  5414 ;; Return value:  Size  Location     Type
  5415 ;;                  1    wreg      void 
  5416 ;; Registers used:
  5417 ;;		wreg, fsr0l, fsr0h, fsr1l, fsr1h, fsr2l, fsr2h, status,2, status,0, tblptrl, tblptrh, tblptru, prodl, prodh, cstack
  5418 ;; Tracked objects:
  5419 ;;		On entry : 0/0
  5420 ;;		On exit  : 0/0
  5421 ;;		Unchanged: 0/0
  5422 ;; Data sizes:     COMRAM   BANK0   BANK1   BANK2   BANK3   BANK4   BANK5   BANK6   BANK7   BANK8   BANK9  BANK10  BANK1
      +1  BANK12  BANK13  BANK14  BANK15
  5423 ;;      Params:         0       0       0       0       0       0       0       0       0       0       0       0       
      +0       0       0       0       0
  5424 ;;      Locals:         0       0       5       0       0       0       0       0       0       0       0       0       
      +0       0       0       0       0
  5425 ;;      Temps:          2       0       0       0       0       0       0       0       0       0       0       0       
      +0       0       0       0       0
  5426 ;;      Totals:         2       0       5       0       0       0       0       0       0       0       0       0       
      +0       0       0       0       0
  5427 ;;Total ram usage:        7 bytes
  5428 ;; Hardware stack levels used: 1
  5429 ;; Hardware stack levels required when called: 10
  5430 ;; This function calls:
  5431 ;;		_ADC_GetConversion
  5432 ;;		_EUSART_Read
  5433 ;;		_MSSP_I2C_Send_1_Byte
  5434 ;;		___flmul
  5435 ;;		___fltol
  5436 ;;		___lwdiv
  5437 ;;		___xxtofl
  5438 ;;		_ecu_lcd_4_bits_send_command
  5439 ;;		_ecu_lcd_4_bits_send_string_data_pos
  5440 ;;		_ecu_lcd_conver_16_bits_to_string
  5441 ;; This function is called by:
  5442 ;;		_main
  5443 ;; This function uses a non-reentrant model
  5444 ;;
  5445                           
  5446                           	psect	text14
  5447   00172A                     __ptext14:
  5448                           	callstack 0
  5449   00172A                     _garage:
  5450                           	callstack 20
  5451   00172A                     
  5452                           ;main.c: 588:      uint8_t room=0;
  5453   00172A  0E00               	movlw	0
  5454   00172C  0101               	movlb	1	; () banked
  5455   00172E  6F36               	movwf	garage@room& (0+255),b
  5456                           
  5457                           ;main.c: 589:     uint8_t stat=0;
  5458   001730  0E00               	movlw	0
  5459   001732  6F35               	movwf	garage@stat& (0+255),b
  5460                           
  5461                           ;main.c: 590:     uint8_t door_status1=0;
  5462   001734  0E00               	movlw	0
  5463   001736  6F37               	movwf	garage@door_status1& (0+255),b
  5464                           
  5465                           ;main.c: 591:     uint8_t door_status2=0;
  5466   001738  0E00               	movlw	0
  5467   00173A  6F38               	movwf	garage@door_status2& (0+255),b
  5468                           
  5469                           ;main.c: 592:     uint8_t temp_string[]={0};
  5470   00173C  0E00               	movlw	0
  5471   00173E  6F39               	movwf	garage@temp_string& (0+255),b
  5472                           
  5473                           ;main.c: 595:     while (!room){
  5474   001740  EF37  F00D         	goto	l12879
  5475   001744                     l12789:
  5476                           
  5477                           ; BSR set to: 1
  5478                           ;main.c: 596:       ecu_lcd_4_bits_send_command(&lcd,0X01);
  5479   001744  0E54               	movlw	low _lcd
  5480   001746  6E0F               	movwf	ecu_lcd_4_bits_send_command@lcd^0,c
  5481   001748  0E01               	movlw	1
  5482   00174A  6E10               	movwf	ecu_lcd_4_bits_send_command@command^0,c
  5483   00174C  ECCC  F018         	call	_ecu_lcd_4_bits_send_command	;wreg free
  5484   001750                     
  5485                           ;main.c: 597:       ecu_lcd_4_bits_send_string_data_pos(&lcd," 1-read temperature",1,1);
  5486   001750  0E54               	movlw	low _lcd
  5487   001752  6E15               	movwf	ecu_lcd_4_bits_send_string_data_pos@lcd^0,c
  5488   001754  0EA1               	movlw	low STR_53
  5489   001756  6E16               	movwf	ecu_lcd_4_bits_send_string_data_pos@str^0,c
  5490   001758  0EFE               	movlw	high STR_53
  5491   00175A  6E17               	movwf	(ecu_lcd_4_bits_send_string_data_pos@str+1)^0,c
  5492   00175C  0E01               	movlw	1
  5493   00175E  6E18               	movwf	ecu_lcd_4_bits_send_string_data_pos@row^0,c
  5494   001760  0E01               	movlw	1
  5495   001762  6E19               	movwf	ecu_lcd_4_bits_send_string_data_pos@column^0,c
  5496   001764  ECCA  F015         	call	_ecu_lcd_4_bits_send_string_data_pos	;wreg free
  5497   001768                     
  5498                           ;main.c: 598:       ecu_lcd_4_bits_send_string_data_pos(&lcd," 2-Door ",2,1);
  5499   001768  0E54               	movlw	low _lcd
  5500   00176A  6E15               	movwf	ecu_lcd_4_bits_send_string_data_pos@lcd^0,c
  5501   00176C  0EDB               	movlw	low STR_54
  5502   00176E  6E16               	movwf	ecu_lcd_4_bits_send_string_data_pos@str^0,c
  5503   001770  0EFF               	movlw	high STR_54
  5504   001772  6E17               	movwf	(ecu_lcd_4_bits_send_string_data_pos@str+1)^0,c
  5505   001774  0E02               	movlw	2
  5506   001776  6E18               	movwf	ecu_lcd_4_bits_send_string_data_pos@row^0,c
  5507   001778  0E01               	movlw	1
  5508   00177A  6E19               	movwf	ecu_lcd_4_bits_send_string_data_pos@column^0,c
  5509   00177C  ECCA  F015         	call	_ecu_lcd_4_bits_send_string_data_pos	;wreg free
  5510   001780                     
  5511                           ;main.c: 599:       ecu_lcd_4_bits_send_string_data_pos(&lcd," 3-RETURN",3,1);
  5512   001780  0E54               	movlw	low _lcd
  5513   001782  6E15               	movwf	ecu_lcd_4_bits_send_string_data_pos@lcd^0,c
  5514   001784  0EBD               	movlw	low STR_28
  5515   001786  6E16               	movwf	ecu_lcd_4_bits_send_string_data_pos@str^0,c
  5516   001788  0EFF               	movlw	high STR_28
  5517   00178A  6E17               	movwf	(ecu_lcd_4_bits_send_string_data_pos@str+1)^0,c
  5518   00178C  0E03               	movlw	3
  5519   00178E  6E18               	movwf	ecu_lcd_4_bits_send_string_data_pos@row^0,c
  5520   001790  0E01               	movlw	1
  5521   001792  6E19               	movwf	ecu_lcd_4_bits_send_string_data_pos@column^0,c
  5522   001794  ECCA  F015         	call	_ecu_lcd_4_bits_send_string_data_pos	;wreg free
  5523   001798                     
  5524                           ;main.c: 600:       place =EUSART_Read();
  5525   001798  EC7A  F01A         	call	_EUSART_Read	;wreg free
  5526   00179C  6E4F               	movwf	_place^0,c
  5527                           
  5528                           ;main.c: 603:       switch(place){
  5529   00179E  EF28  F00D         	goto	l12877
  5530   0017A2                     l12801:
  5531                           
  5532                           ;main.c: 606:                   device=0;
  5533   0017A2  0E00               	movlw	0
  5534   0017A4  6E4D               	movwf	(_device+1)^0,c
  5535   0017A6  0E00               	movlw	0
  5536   0017A8  6E4C               	movwf	_device^0,c
  5537   0017AA                     
  5538                           ;main.c: 608:                   ecu_lcd_4_bits_send_command(&lcd,0X01);
  5539   0017AA  0E54               	movlw	low _lcd
  5540   0017AC  6E0F               	movwf	ecu_lcd_4_bits_send_command@lcd^0,c
  5541   0017AE  0E01               	movlw	1
  5542   0017B0  6E10               	movwf	ecu_lcd_4_bits_send_command@command^0,c
  5543   0017B2  ECCC  F018         	call	_ecu_lcd_4_bits_send_command	;wreg free
  5544   0017B6                     
  5545                           ;main.c: 610:                   ecu_lcd_4_bits_send_string_data_pos(&lcd," Temperature :
      +                           ",1,1);
  5546   0017B6  0E54               	movlw	low _lcd
  5547   0017B8  6E15               	movwf	ecu_lcd_4_bits_send_string_data_pos@lcd^0,c
  5548   0017BA  0E25               	movlw	low STR_32
  5549   0017BC  6E16               	movwf	ecu_lcd_4_bits_send_string_data_pos@str^0,c
  5550   0017BE  0EFF               	movlw	high STR_32
  5551   0017C0  6E17               	movwf	(ecu_lcd_4_bits_send_string_data_pos@str+1)^0,c
  5552   0017C2  0E01               	movlw	1
  5553   0017C4  6E18               	movwf	ecu_lcd_4_bits_send_string_data_pos@row^0,c
  5554   0017C6  0E01               	movlw	1
  5555   0017C8  6E19               	movwf	ecu_lcd_4_bits_send_string_data_pos@column^0,c
  5556   0017CA  ECCA  F015         	call	_ecu_lcd_4_bits_send_string_data_pos	;wreg free
  5557   0017CE                     
  5558                           ;main.c: 611:                   device=ADC_GetConversion(2);
  5559   0017CE  0E02               	movlw	2
  5560   0017D0  ECE1  F019         	call	_ADC_GetConversion
  5561   0017D4  C004  F04C         	movff	?_ADC_GetConversion,_device
  5562   0017D8  C005  F04D         	movff	?_ADC_GetConversion+1,_device+1
  5563   0017DC                     
  5564                           ;main.c: 612:                     lm35_res_1_Celsius_mv = device * 4.88f;
  5565   0017DC  0EF6               	movlw	246
  5566   0017DE  6E16               	movwf	___flmul@a^0,c
  5567   0017E0  0E28               	movlw	40
  5568   0017E2  6E17               	movwf	(___flmul@a+1)^0,c
  5569   0017E4  0E9C               	movlw	156
  5570   0017E6  6E18               	movwf	(___flmul@a+2)^0,c
  5571   0017E8  0E40               	movlw	64
  5572   0017EA  6E19               	movwf	(___flmul@a+3)^0,c
  5573   0017EC  C04C  F004         	movff	_device,___xxtofl@val
  5574   0017F0  C04D  F005         	movff	_device+1,___xxtofl@val+1
  5575   0017F4  6A06               	clrf	(___xxtofl@val+2)^0,c
  5576   0017F6  6A07               	clrf	(___xxtofl@val+3)^0,c
  5577   0017F8  0E00               	movlw	0
  5578   0017FA  EC2A  F010         	call	___xxtofl
  5579   0017FE  C004  F012         	movff	?___xxtofl,___flmul@b
  5580   001802  C005  F013         	movff	?___xxtofl+1,___flmul@b+1
  5581   001806  C006  F014         	movff	?___xxtofl+2,___flmul@b+2
  5582   00180A  C007  F015         	movff	?___xxtofl+3,___flmul@b+3
  5583   00180E  ECB3  F007         	call	___flmul	;wreg free
  5584   001812  C012  F03B         	movff	?___flmul,___fltol@f1
  5585   001816  C013  F03C         	movff	?___flmul+1,___fltol@f1+1
  5586   00181A  C014  F03D         	movff	?___flmul+2,___fltol@f1+2
  5587   00181E  C015  F03E         	movff	?___flmul+3,___fltol@f1+3
  5588   001822  EC57  F013         	call	___fltol	;wreg free
  5589   001826  C03B  F04A         	movff	?___fltol,_lm35_res_1_Celsius_mv
  5590   00182A  C03C  F04B         	movff	?___fltol+1,_lm35_res_1_Celsius_mv+1
  5591   00182E                     
  5592                           ;main.c: 613:                      lm35_res_1_Celsius_mv /= 620;
  5593   00182E  C04A  F004         	movff	_lm35_res_1_Celsius_mv,___lwdiv@dividend
  5594   001832  C04B  F005         	movff	_lm35_res_1_Celsius_mv+1,___lwdiv@dividend+1
  5595   001836  0E02               	movlw	2
  5596   001838  6E07               	movwf	(___lwdiv@divisor+1)^0,c
  5597   00183A  0E6C               	movlw	108
  5598   00183C  6E06               	movwf	___lwdiv@divisor^0,c
  5599   00183E  EC2D  F017         	call	___lwdiv	;wreg free
  5600   001842  C004  F04A         	movff	?___lwdiv,_lm35_res_1_Celsius_mv
  5601   001846  C005  F04B         	movff	?___lwdiv+1,_lm35_res_1_Celsius_mv+1
  5602   00184A                     
  5603                           ;main.c: 614:                   ecu_lcd_conver_16_bits_to_string(temp_string,lm35_res_1_
      +                          Celsius_mv);
  5604   00184A  0E39               	movlw	low garage@temp_string
  5605   00184C  6E36               	movwf	ecu_lcd_conver_16_bits_to_string@char_arr^0,c
  5606   00184E  0E01               	movlw	high garage@temp_string
  5607   001850  6E37               	movwf	(ecu_lcd_conver_16_bits_to_string@char_arr+1)^0,c
  5608   001852  C04A  F038         	movff	_lm35_res_1_Celsius_mv,ecu_lcd_conver_16_bits_to_string@value
  5609   001856  C04B  F039         	movff	_lm35_res_1_Celsius_mv+1,ecu_lcd_conver_16_bits_to_string@value+1
  5610   00185A  EC6E  F018         	call	_ecu_lcd_conver_16_bits_to_string	;wreg free
  5611   00185E                     
  5612                           ;main.c: 615:                   ecu_lcd_4_bits_send_string_data_pos(&lcd,temp_string,1,1
      +                          6);
  5613   00185E  0E54               	movlw	low _lcd
  5614   001860  6E15               	movwf	ecu_lcd_4_bits_send_string_data_pos@lcd^0,c
  5615   001862  0E39               	movlw	low garage@temp_string
  5616   001864  6E16               	movwf	ecu_lcd_4_bits_send_string_data_pos@str^0,c
  5617   001866  0E01               	movlw	high garage@temp_string
  5618   001868  6E17               	movwf	(ecu_lcd_4_bits_send_string_data_pos@str+1)^0,c
  5619   00186A  0E01               	movlw	1
  5620   00186C  6E18               	movwf	ecu_lcd_4_bits_send_string_data_pos@row^0,c
  5621   00186E  0E10               	movlw	16
  5622   001870  6E19               	movwf	ecu_lcd_4_bits_send_string_data_pos@column^0,c
  5623   001872  ECCA  F015         	call	_ecu_lcd_4_bits_send_string_data_pos	;wreg free
  5624   001876                     
  5625                           ;main.c: 616:                   _delay((unsigned long)((3000)*(8000000/4000.0)));
  5626   001876  0E1F               	movlw	31
  5627   001878  6E46               	movwf	(??_garage+1)^0,c
  5628   00187A  0E71               	movlw	113
  5629   00187C  6E45               	movwf	??_garage^0,c
  5630   00187E  0E1E               	movlw	30
  5631   001880                     u10707:
  5632   001880  2EE8               	decfsz	wreg,f,c
  5633   001882  D7FE               	bra	u10707
  5634   001884  2E45               	decfsz	??_garage^0,f,c
  5635   001886  D7FC               	bra	u10707
  5636   001888  2E46               	decfsz	(??_garage+1)^0,f,c
  5637   00188A  D7FA               	bra	u10707
  5638   00188C  F000 F000          	nop2	
  5639                           
  5640                           ;main.c: 617:                   break;
  5641   001890  EF37  F00D         	goto	l12879
  5642   001894                     l12821:
  5643                           
  5644                           ;main.c: 624:                   ecu_lcd_4_bits_send_command(&lcd,0X01);
  5645   001894  0E54               	movlw	low _lcd
  5646   001896  6E0F               	movwf	ecu_lcd_4_bits_send_command@lcd^0,c
  5647   001898  0E01               	movlw	1
  5648   00189A  6E10               	movwf	ecu_lcd_4_bits_send_command@command^0,c
  5649   00189C  ECCC  F018         	call	_ecu_lcd_4_bits_send_command	;wreg free
  5650                           
  5651                           ;main.c: 626:             while(!stat){
  5652   0018A0  EFFD  F00C         	goto	l12867
  5653   0018A4                     l12823:
  5654                           
  5655                           ; BSR set to: 1
  5656                           ;main.c: 627:                   ecu_lcd_4_bits_send_string_data_pos(&lcd," 1-OPEN DOOR",
      +                          1,1);
  5657   0018A4  0E54               	movlw	low _lcd
  5658   0018A6  6E15               	movwf	ecu_lcd_4_bits_send_string_data_pos@lcd^0,c
  5659   0018A8  0E52               	movlw	low STR_33
  5660   0018AA  6E16               	movwf	ecu_lcd_4_bits_send_string_data_pos@str^0,c
  5661   0018AC  0EFF               	movlw	high STR_33
  5662   0018AE  6E17               	movwf	(ecu_lcd_4_bits_send_string_data_pos@str+1)^0,c
  5663   0018B0  0E01               	movlw	1
  5664   0018B2  6E18               	movwf	ecu_lcd_4_bits_send_string_data_pos@row^0,c
  5665   0018B4  0E01               	movlw	1
  5666   0018B6  6E19               	movwf	ecu_lcd_4_bits_send_string_data_pos@column^0,c
  5667   0018B8  ECCA  F015         	call	_ecu_lcd_4_bits_send_string_data_pos	;wreg free
  5668                           
  5669                           ;main.c: 628:                   ecu_lcd_4_bits_send_string_data_pos(&lcd," 2-CLOSE DOOR"
      +                          ,2,1);
  5670   0018BC  0E54               	movlw	low _lcd
  5671   0018BE  6E15               	movwf	ecu_lcd_4_bits_send_string_data_pos@lcd^0,c
  5672   0018C0  0E44               	movlw	low STR_34
  5673   0018C2  6E16               	movwf	ecu_lcd_4_bits_send_string_data_pos@str^0,c
  5674   0018C4  0EFF               	movlw	high STR_34
  5675   0018C6  6E17               	movwf	(ecu_lcd_4_bits_send_string_data_pos@str+1)^0,c
  5676   0018C8  0E02               	movlw	2
  5677   0018CA  6E18               	movwf	ecu_lcd_4_bits_send_string_data_pos@row^0,c
  5678   0018CC  0E01               	movlw	1
  5679   0018CE  6E19               	movwf	ecu_lcd_4_bits_send_string_data_pos@column^0,c
  5680   0018D0  ECCA  F015         	call	_ecu_lcd_4_bits_send_string_data_pos	;wreg free
  5681                           
  5682                           ;main.c: 629:                   ecu_lcd_4_bits_send_string_data_pos(&lcd," 3-RETURN",3,1
      +                          );
  5683   0018D4  0E54               	movlw	low _lcd
  5684   0018D6  6E15               	movwf	ecu_lcd_4_bits_send_string_data_pos@lcd^0,c
  5685   0018D8  0EBD               	movlw	low STR_28
  5686   0018DA  6E16               	movwf	ecu_lcd_4_bits_send_string_data_pos@str^0,c
  5687   0018DC  0EFF               	movlw	high STR_28
  5688   0018DE  6E17               	movwf	(ecu_lcd_4_bits_send_string_data_pos@str+1)^0,c
  5689   0018E0  0E03               	movlw	3
  5690   0018E2  6E18               	movwf	ecu_lcd_4_bits_send_string_data_pos@row^0,c
  5691   0018E4  0E01               	movlw	1
  5692   0018E6  6E19               	movwf	ecu_lcd_4_bits_send_string_data_pos@column^0,c
  5693   0018E8  ECCA  F015         	call	_ecu_lcd_4_bits_send_string_data_pos	;wreg free
  5694   0018EC                     
  5695                           ;main.c: 630:                     device=0;
  5696   0018EC  0E00               	movlw	0
  5697   0018EE  6E4D               	movwf	(_device+1)^0,c
  5698   0018F0  0E00               	movlw	0
  5699   0018F2  6E4C               	movwf	_device^0,c
  5700   0018F4                     
  5701                           ;main.c: 631:                     device =EUSART_Read();
  5702   0018F4  EC7A  F01A         	call	_EUSART_Read	;wreg free
  5703   0018F8  6E45               	movwf	??_garage^0,c
  5704   0018FA  5045               	movf	??_garage^0,w,c
  5705   0018FC  6E4C               	movwf	_device^0,c
  5706   0018FE  6A4D               	clrf	(_device+1)^0,c
  5707   001900                     
  5708                           ;main.c: 634:                     if(252==device && 0==door_status1 ){
  5709   001900  0EFC               	movlw	252
  5710   001902  184C               	xorwf	_device^0,w,c
  5711   001904  104D               	iorwf	(_device+1)^0,w,c
  5712   001906  A4D8               	btfss	status,2,c
  5713   001908  EF88  F00C         	goto	u10451
  5714   00190C  EF8A  F00C         	goto	u10450
  5715   001910                     u10451:
  5716   001910  EFB7  F00C         	goto	l12845
  5717   001914                     u10450:
  5718   001914  0101               	movlb	1	; () banked
  5719   001916  5137               	movf	garage@door_status1& (0+255),w,b
  5720   001918  A4D8               	btfss	status,2,c
  5721   00191A  EF91  F00C         	goto	u10461
  5722   00191E  EF93  F00C         	goto	u10460
  5723   001922                     u10461:
  5724   001922  EFB7  F00C         	goto	l12845
  5725   001926                     u10460:
  5726   001926                     
  5727                           ; BSR set to: 1
  5728                           ;main.c: 636:                         _delay((unsigned long)((251)*(8000000/4000.0)));
  5729   001926  0E03               	movlw	3
  5730   001928  6E46               	movwf	(??_garage+1)^0,c
  5731   00192A  0E8C               	movlw	140
  5732   00192C  6E45               	movwf	??_garage^0,c
  5733   00192E  0EEF               	movlw	239
  5734   001930                     u10717:
  5735   001930  2EE8               	decfsz	wreg,f,c
  5736   001932  D7FE               	bra	u10717
  5737   001934  2E45               	decfsz	??_garage^0,f,c
  5738   001936  D7FC               	bra	u10717
  5739   001938  2E46               	decfsz	(??_garage+1)^0,f,c
  5740   00193A  D7FA               	bra	u10717
  5741   00193C  0000               	nop	
  5742   00193E                     
  5743                           ;main.c: 637:                         (LATB |= ((uint8)1 << 5));
  5744   00193E  8A8A               	bsf	138,5,c	;volatile
  5745   001940                     
  5746                           ;main.c: 638:                         _delay((unsigned long)((.5)*(8000000/4000.0)));
  5747   001940  0EC8               	movlw	200
  5748   001942                     u10727:
  5749   001942  F000 F000          	nop2	
  5750   001946  2EE8               	decfsz	wreg,f,c
  5751   001948  D7FC               	bra	u10727
  5752                           
  5753                           ;main.c: 639:                         (LATB &= ~((uint8)1 << 5));
  5754   00194A  9A8A               	bcf	138,5,c	;volatile
  5755   00194C                     
  5756                           ;main.c: 640:                        _delay((unsigned long)((1000)*(8000000/4000.0)));
  5757   00194C  0E0B               	movlw	11
  5758   00194E  6E46               	movwf	(??_garage+1)^0,c
  5759   001950  0E26               	movlw	38
  5760   001952  6E45               	movwf	??_garage^0,c
  5761   001954  0E5E               	movlw	94
  5762   001956                     u10737:
  5763   001956  2EE8               	decfsz	wreg,f,c
  5764   001958  D7FE               	bra	u10737
  5765   00195A  2E45               	decfsz	??_garage^0,f,c
  5766   00195C  D7FC               	bra	u10737
  5767   00195E  2E46               	decfsz	(??_garage+1)^0,f,c
  5768   001960  D7FA               	bra	u10737
  5769   001962                     
  5770                           ;main.c: 642:                         door_status2=0;
  5771   001962  0E00               	movlw	0
  5772   001964  0101               	movlb	1	; () banked
  5773   001966  6F38               	movwf	garage@door_status2& (0+255),b
  5774   001968                     
  5775                           ; BSR set to: 1
  5776                           ;main.c: 643:                         door_status1++;
  5777   001968  2B37               	incf	garage@door_status1& (0+255),f,b
  5778                           
  5779                           ;main.c: 645:                     }
  5780   00196A  EFFD  F00C         	goto	l12867
  5781   00196E                     l12845:
  5782   00196E  0EFD               	movlw	253
  5783   001970  184C               	xorwf	_device^0,w,c
  5784   001972  104D               	iorwf	(_device+1)^0,w,c
  5785   001974  A4D8               	btfss	status,2,c
  5786   001976  EFBF  F00C         	goto	u10471
  5787   00197A  EFC1  F00C         	goto	u10470
  5788   00197E                     u10471:
  5789   00197E  EFF1  F00C         	goto	l12861
  5790   001982                     u10470:
  5791   001982  0101               	movlb	1	; () banked
  5792   001984  5138               	movf	garage@door_status2& (0+255),w,b
  5793   001986  A4D8               	btfss	status,2,c
  5794   001988  EFC8  F00C         	goto	u10481
  5795   00198C  EFCA  F00C         	goto	u10480
  5796   001990                     u10481:
  5797   001990  EFF1  F00C         	goto	l12861
  5798   001994                     u10480:
  5799   001994                     
  5800                           ; BSR set to: 1
  5801                           ;main.c: 648:                         _delay((unsigned long)((251)*(8000000/4000.0)));
  5802   001994  0E03               	movlw	3
  5803   001996  6E46               	movwf	(??_garage+1)^0,c
  5804   001998  0E8C               	movlw	140
  5805   00199A  6E45               	movwf	??_garage^0,c
  5806   00199C  0EEF               	movlw	239
  5807   00199E                     u10747:
  5808   00199E  2EE8               	decfsz	wreg,f,c
  5809   0019A0  D7FE               	bra	u10747
  5810   0019A2  2E45               	decfsz	??_garage^0,f,c
  5811   0019A4  D7FC               	bra	u10747
  5812   0019A6  2E46               	decfsz	(??_garage+1)^0,f,c
  5813   0019A8  D7FA               	bra	u10747
  5814   0019AA  0000               	nop	
  5815   0019AC                     
  5816                           ;main.c: 649:                             (LATB |= ((uint8)1 << 5));
  5817   0019AC  8A8A               	bsf	138,5,c	;volatile
  5818   0019AE                     
  5819                           ;main.c: 650:                        _delay((unsigned long)((10.4999)*(8000000/4000.0)))
      +                          ;
  5820   0019AE  0E1C               	movlw	28
  5821   0019B0  6E45               	movwf	??_garage^0,c
  5822   0019B2  0E44               	movlw	68
  5823   0019B4                     u10757:
  5824   0019B4  2EE8               	decfsz	wreg,f,c
  5825   0019B6  D7FE               	bra	u10757
  5826   0019B8  2E45               	decfsz	??_garage^0,f,c
  5827   0019BA  D7FC               	bra	u10757
  5828   0019BC  0000               	nop	
  5829                           
  5830                           ;main.c: 651:                        (LATB &= ~((uint8)1 << 5));
  5831   0019BE  9A8A               	bcf	138,5,c	;volatile
  5832   0019C0                     
  5833                           ;main.c: 652:                        _delay((unsigned long)((1000)*(8000000/4000.0)));
  5834   0019C0  0E0B               	movlw	11
  5835   0019C2  6E46               	movwf	(??_garage+1)^0,c
  5836   0019C4  0E26               	movlw	38
  5837   0019C6  6E45               	movwf	??_garage^0,c
  5838   0019C8  0E5E               	movlw	94
  5839   0019CA                     u10767:
  5840   0019CA  2EE8               	decfsz	wreg,f,c
  5841   0019CC  D7FE               	bra	u10767
  5842   0019CE  2E45               	decfsz	??_garage^0,f,c
  5843   0019D0  D7FC               	bra	u10767
  5844   0019D2  2E46               	decfsz	(??_garage+1)^0,f,c
  5845   0019D4  D7FA               	bra	u10767
  5846   0019D6                     
  5847                           ;main.c: 653:                          door_status2++;
  5848   0019D6  0101               	movlb	1	; () banked
  5849   0019D8  2B38               	incf	garage@door_status2& (0+255),f,b
  5850   0019DA                     
  5851                           ; BSR set to: 1
  5852                           ;main.c: 654:                         door_status1=0;
  5853   0019DA  0E00               	movlw	0
  5854   0019DC  6F37               	movwf	garage@door_status1& (0+255),b
  5855                           
  5856                           ;main.c: 656:                     }
  5857   0019DE  EFFD  F00C         	goto	l12867
  5858   0019E2                     l12861:
  5859   0019E2  0EFE               	movlw	254
  5860   0019E4  184C               	xorwf	_device^0,w,c
  5861   0019E6  104D               	iorwf	(_device+1)^0,w,c
  5862   0019E8  A4D8               	btfss	status,2,c
  5863   0019EA  EFF9  F00C         	goto	u10491
  5864   0019EE  EFFB  F00C         	goto	u10490
  5865   0019F2                     u10491:
  5866   0019F2  EFFD  F00C         	goto	l2143
  5867   0019F6                     u10490:
  5868   0019F6  EF37  F00D         	goto	l12879
  5869   0019FA                     l2143:
  5870   0019FA                     l12867:
  5871                           
  5872                           ;main.c: 626:             while(!stat){
  5873   0019FA  0101               	movlb	1	; () banked
  5874   0019FC  5135               	movf	garage@stat& (0+255),w,b
  5875   0019FE  B4D8               	btfsc	status,2,c
  5876   001A00  EF04  F00D         	goto	u10501
  5877   001A04  EF06  F00D         	goto	u10500
  5878   001A08                     u10501:
  5879   001A08  EF52  F00C         	goto	l12823
  5880   001A0C                     u10500:
  5881   001A0C  EF37  F00D         	goto	l12879
  5882   001A10                     l12869:
  5883                           
  5884                           ;main.c: 665:                  _delay((unsigned long)((5)*(8000000/4000.0)));
  5885   001A10  0E0D               	movlw	13
  5886   001A12  6E45               	movwf	??_garage^0,c
  5887   001A14  0EFC               	movlw	252
  5888   001A16                     u10777:
  5889   001A16  2EE8               	decfsz	wreg,f,c
  5890   001A18  D7FE               	bra	u10777
  5891   001A1A  2E45               	decfsz	??_garage^0,f,c
  5892   001A1C  D7FC               	bra	u10777
  5893   001A1E                     
  5894                           ;main.c: 666:                  room=1;
  5895   001A1E  0E01               	movlw	1
  5896   001A20  0101               	movlb	1	; () banked
  5897   001A22  6F36               	movwf	garage@room& (0+255),b
  5898                           
  5899                           ;main.c: 667:               break;
  5900   001A24  EF37  F00D         	goto	l12879
  5901   001A28                     l12873:
  5902                           
  5903                           ;main.c: 669:                     ecu_lcd_4_bits_send_command(&lcd,0X01);
  5904   001A28  0E54               	movlw	low _lcd
  5905   001A2A  6E0F               	movwf	ecu_lcd_4_bits_send_command@lcd^0,c
  5906   001A2C  0E01               	movlw	1
  5907   001A2E  6E10               	movwf	ecu_lcd_4_bits_send_command@command^0,c
  5908   001A30  ECCC  F018         	call	_ecu_lcd_4_bits_send_command	;wreg free
  5909   001A34                     
  5910                           ;main.c: 670:                     ecu_lcd_4_bits_send_string_data_pos(&lcd," please Choo
      +                          se Correct Device",1,1);
  5911   001A34  0E54               	movlw	low _lcd
  5912   001A36  6E15               	movwf	ecu_lcd_4_bits_send_string_data_pos@lcd^0,c
  5913   001A38  0EF5               	movlw	low STR_36
  5914   001A3A  6E16               	movwf	ecu_lcd_4_bits_send_string_data_pos@str^0,c
  5915   001A3C  0EFD               	movlw	high STR_36
  5916   001A3E  6E17               	movwf	(ecu_lcd_4_bits_send_string_data_pos@str+1)^0,c
  5917   001A40  0E01               	movlw	1
  5918   001A42  6E18               	movwf	ecu_lcd_4_bits_send_string_data_pos@row^0,c
  5919   001A44  0E01               	movlw	1
  5920   001A46  6E19               	movwf	ecu_lcd_4_bits_send_string_data_pos@column^0,c
  5921   001A48  ECCA  F015         	call	_ecu_lcd_4_bits_send_string_data_pos	;wreg free
  5922                           
  5923                           ;main.c: 671:       }
  5924   001A4C  EF37  F00D         	goto	l12879
  5925   001A50                     l12877:
  5926   001A50  504F               	movf	_place^0,w,c
  5927                           
  5928                           ; Switch size 1, requested type "simple"
  5929                           ; Number of cases is 3, Range of values is 250 to 253
  5930                           ; switch strategies available:
  5931                           ; Name         Instructions Cycles
  5932                           ; simple_byte           10     6 (average)
  5933                           ;	Chosen strategy is simple_byte
  5934   001A52  0AFA               	xorlw	250	; case 250
  5935   001A54  B4D8               	btfsc	status,2,c
  5936   001A56  EF08  F00D         	goto	l12869
  5937   001A5A  0A06               	xorlw	6	; case 252
  5938   001A5C  B4D8               	btfsc	status,2,c
  5939   001A5E  EFD1  F00B         	goto	l12801
  5940   001A62  0A01               	xorlw	1	; case 253
  5941   001A64  B4D8               	btfsc	status,2,c
  5942   001A66  EF4A  F00C         	goto	l12821
  5943   001A6A  EF14  F00D         	goto	l12873
  5944   001A6E                     l12879:
  5945                           
  5946                           ;main.c: 595:     while (!room){
  5947   001A6E  0101               	movlb	1	; () banked
  5948   001A70  5136               	movf	garage@room& (0+255),w,b
  5949   001A72  B4D8               	btfsc	status,2,c
  5950   001A74  EF3E  F00D         	goto	u10511
  5951   001A78  EF40  F00D         	goto	u10510
  5952   001A7C                     u10511:
  5953   001A7C  EFA2  F00B         	goto	l12789
  5954   001A80                     u10510:
  5955   001A80                     
  5956                           ; BSR set to: 1
  5957   001A80  0012               	return		;funcret
  5958   001A82                     __end_of_garage:
  5959                           	callstack 0
  5960                           
  5961 ;; *************** function _ecu_lcd_conver_16_bits_to_string *****************
  5962 ;; Defined at:
  5963 ;;		line 296 in file "LCD/ecu_chr_lcd.c"
  5964 ;; Parameters:    Size  Location     Type
  5965 ;;  char_arr        2   53[COMRAM] PTR unsigned char 
  5966 ;;		 -> garage@temp_string(1), room_2@temp_string(1), room_1@temp_string(1), 
  5967 ;;  value           2   55[COMRAM] unsigned short 
  5968 ;; Auto vars:     Size  Location     Type
  5969 ;;  ret             1    0        unsigned char 
  5970 ;; Return value:  Size  Location     Type
  5971 ;;                  1    wreg      unsigned char 
  5972 ;; Registers used:
  5973 ;;		wreg, fsr1l, fsr1h, fsr2l, fsr2h, status,2, status,0, tblptrl, tblptrh, tblptru, cstack
  5974 ;; Tracked objects:
  5975 ;;		On entry : 0/0
  5976 ;;		On exit  : 0/0
  5977 ;;		Unchanged: 0/0
  5978 ;; Data sizes:     COMRAM   BANK0   BANK1   BANK2   BANK3   BANK4   BANK5   BANK6   BANK7   BANK8   BANK9  BANK10  BANK1
      +1  BANK12  BANK13  BANK14  BANK15
  5979 ;;      Params:         4       0       0       0       0       0       0       0       0       0       0       0       
      +0       0       0       0       0
  5980 ;;      Locals:         0       0       0       0       0       0       0       0       0       0       0       0       
      +0       0       0       0       0
  5981 ;;      Temps:          0       0       0       0       0       0       0       0       0       0       0       0       
      +0       0       0       0       0
  5982 ;;      Totals:         4       0       0       0       0       0       0       0       0       0       0       0       
      +0       0       0       0       0
  5983 ;;Total ram usage:        4 bytes
  5984 ;; Hardware stack levels used: 1
  5985 ;; Hardware stack levels required when called: 9
  5986 ;; This function calls:
  5987 ;;		_memset
  5988 ;;		_sprintf
  5989 ;; This function is called by:
  5990 ;;		_room_1
  5991 ;;		_room_2
  5992 ;;		_garage
  5993 ;; This function uses a non-reentrant model
  5994 ;;
  5995                           
  5996                           	psect	text15
  5997   0030DC                     __ptext15:
  5998                           	callstack 0
  5999   0030DC                     _ecu_lcd_conver_16_bits_to_string:
  6000                           	callstack 20
  6001   0030DC                     
  6002                           ;LCD/ecu_chr_lcd.c: 298:     if(((void*)0) == char_arr){
  6003   0030DC  5036               	movf	ecu_lcd_conver_16_bits_to_string@char_arr^0,w,c
  6004   0030DE  1037               	iorwf	(ecu_lcd_conver_16_bits_to_string@char_arr+1)^0,w,c
  6005   0030E0  A4D8               	btfss	status,2,c
  6006   0030E2  EF75  F018         	goto	u10091
  6007   0030E6  EF77  F018         	goto	u10090
  6008   0030EA                     u10091:
  6009   0030EA  EF79  F018         	goto	l12419
  6010   0030EE                     u10090:
  6011   0030EE                     
  6012                           ;LCD/ecu_chr_lcd.c: 300:     }
  6013   0030EE  EF9C  F018         	goto	l796
  6014   0030F2                     l12419:
  6015                           
  6016                           ;LCD/ecu_chr_lcd.c: 302:         memset(char_arr,' ',5);
  6017   0030F2  C036  F004         	movff	ecu_lcd_conver_16_bits_to_string@char_arr,memset@dest
  6018   0030F6  C037  F005         	movff	ecu_lcd_conver_16_bits_to_string@char_arr+1,memset@dest+1
  6019   0030FA  0E00               	movlw	0
  6020   0030FC  6E07               	movwf	(memset@c+1)^0,c
  6021   0030FE  0E20               	movlw	32
  6022   003100  6E06               	movwf	memset@c^0,c
  6023   003102  0E00               	movlw	0
  6024   003104  6E09               	movwf	(memset@n+1)^0,c
  6025   003106  0E05               	movlw	5
  6026   003108  6E08               	movwf	memset@n^0,c
  6027   00310A  ECFE  F019         	call	_memset	;wreg free
  6028   00310E                     
  6029                           ;LCD/ecu_chr_lcd.c: 303:         char_arr[5]='\0';
  6030   00310E  EE20 F005          	lfsr	2,5
  6031   003112  5036               	movf	ecu_lcd_conver_16_bits_to_string@char_arr^0,w,c
  6032   003114  26D9               	addwf	fsr2l,f,c
  6033   003116  5037               	movf	(ecu_lcd_conver_16_bits_to_string@char_arr+1)^0,w,c
  6034   003118  22DA               	addwfc	fsr2h,f,c
  6035   00311A  6ADF               	clrf	indf2,c
  6036   00311C                     
  6037                           ;LCD/ecu_chr_lcd.c: 304:         sprintf(char_arr,"%i",value);
  6038   00311C  C036  F021         	movff	ecu_lcd_conver_16_bits_to_string@char_arr,sprintf@s
  6039   003120  C037  F022         	movff	ecu_lcd_conver_16_bits_to_string@char_arr+1,sprintf@s+1
  6040   003124  0EFB               	movlw	low STR_1
  6041   003126  6E23               	movwf	sprintf@fmt^0,c
  6042   003128  0EFF               	movlw	high STR_1
  6043   00312A  6E24               	movwf	(sprintf@fmt+1)^0,c
  6044   00312C  C038  F025         	movff	ecu_lcd_conver_16_bits_to_string@value,?_sprintf+4
  6045   003130  C039  F026         	movff	ecu_lcd_conver_16_bits_to_string@value+1,?_sprintf+5
  6046   003134  EC43  F019         	call	_sprintf	;wreg free
  6047   003138                     l796:
  6048   003138  0012               	return		;funcret
  6049   00313A                     __end_of_ecu_lcd_conver_16_bits_to_string:
  6050                           	callstack 0
  6051                           
  6052 ;; *************** function _sprintf *****************
  6053 ;; Defined at:
  6054 ;;		line 9 in file "C:\Program Files\Microchip\xc8\v2.46\pic\sources\c99\common\nf_sprintf.c"
  6055 ;; Parameters:    Size  Location     Type
  6056 ;;  s               2   32[COMRAM] PTR unsigned char 
  6057 ;;		 -> garage@temp_string(1), room_2@temp_string(1), room_1@temp_string(1), 
  6058 ;;  fmt             2   34[COMRAM] PTR const unsigned char 
  6059 ;;		 -> STR_3(3), STR_2(3), STR_1(3), 
  6060 ;; Auto vars:     Size  Location     Type
  6061 ;;  f              12   41[COMRAM] struct _IO_FILE
  6062 ;;  ret             2    0        int 
  6063 ;;  ap              1   40[COMRAM] PTR void [1]
  6064 ;;		 -> ?_sprintf(2), 
  6065 ;; Return value:  Size  Location     Type
  6066 ;;                  2   32[COMRAM] int 
  6067 ;; Registers used:
  6068 ;;		wreg, fsr1l, fsr1h, fsr2l, fsr2h, status,2, status,0, tblptrl, tblptrh, tblptru, cstack
  6069 ;; Tracked objects:
  6070 ;;		On entry : 0/0
  6071 ;;		On exit  : 0/0
  6072 ;;		Unchanged: 0/0
  6073 ;; Data sizes:     COMRAM   BANK0   BANK1   BANK2   BANK3   BANK4   BANK5   BANK6   BANK7   BANK8   BANK9  BANK10  BANK1
      +1  BANK12  BANK13  BANK14  BANK15
  6074 ;;      Params:         8       0       0       0       0       0       0       0       0       0       0       0       
      +0       0       0       0       0
  6075 ;;      Locals:        13       0       0       0       0       0       0       0       0       0       0       0       
      +0       0       0       0       0
  6076 ;;      Temps:          0       0       0       0       0       0       0       0       0       0       0       0       
      +0       0       0       0       0
  6077 ;;      Totals:        21       0       0       0       0       0       0       0       0       0       0       0       
      +0       0       0       0       0
  6078 ;;Total ram usage:       21 bytes
  6079 ;; Hardware stack levels used: 1
  6080 ;; Hardware stack levels required when called: 8
  6081 ;; This function calls:
  6082 ;;		_vfprintf
  6083 ;; This function is called by:
  6084 ;;		_ecu_lcd_conver_16_bits_to_string
  6085 ;;		_ecu_lcd_conver_8_bits_to_string
  6086 ;;		_ecu_lcd_conver_32_bits_to_string
  6087 ;; This function uses a non-reentrant model
  6088 ;;
  6089                           
  6090                           	psect	text16
  6091   003286                     __ptext16:
  6092                           	callstack 0
  6093   003286                     _sprintf:
  6094                           	callstack 20
  6095   003286  0E25               	movlw	low (?_sprintf+4)
  6096   003288  6E29               	movwf	sprintf@ap^0,c
  6097   00328A  C021  F02A         	movff	sprintf@s,sprintf@f
  6098   00328E  C022  F02B         	movff	sprintf@s+1,sprintf@f+1
  6099   003292  0E00               	movlw	0
  6100   003294  6E2E               	movwf	(sprintf@f+4)^0,c
  6101   003296  0E00               	movlw	0
  6102   003298  6E2D               	movwf	(sprintf@f+3)^0,c
  6103   00329A  0E00               	movlw	0
  6104   00329C  6E35               	movwf	(sprintf@f+11)^0,c
  6105   00329E  0E00               	movlw	0
  6106   0032A0  6E34               	movwf	(sprintf@f+10)^0,c
  6107   0032A2  0E2A               	movlw	low sprintf@f
  6108   0032A4  6E1B               	movwf	vfprintf@fp^0,c
  6109   0032A6  C023  F01C         	movff	sprintf@fmt,vfprintf@fmt
  6110   0032AA  C024  F01D         	movff	sprintf@fmt+1,vfprintf@fmt+1
  6111   0032AE  0E29               	movlw	low sprintf@ap
  6112   0032B0  6E1E               	movwf	vfprintf@ap^0,c
  6113   0032B2  EC21  F019         	call	_vfprintf	;wreg free
  6114   0032B6  502D               	movf	(sprintf@f+3)^0,w,c
  6115   0032B8  2421               	addwf	sprintf@s^0,w,c
  6116   0032BA  6ED9               	movwf	fsr2l,c
  6117   0032BC  502E               	movf	(sprintf@f+4)^0,w,c
  6118   0032BE  2022               	addwfc	(sprintf@s+1)^0,w,c
  6119   0032C0  6EDA               	movwf	fsr2h,c
  6120   0032C2  6ADF               	clrf	indf2,c
  6121   0032C4  0012               	return		;funcret
  6122   0032C6                     __end_of_sprintf:
  6123                           	callstack 0
  6124                           
  6125 ;; *************** function _vfprintf *****************
  6126 ;; Defined at:
  6127 ;;		line 1817 in file "C:\Program Files\Microchip\xc8\v2.46\pic\sources\c99\common\doprnt.c"
  6128 ;; Parameters:    Size  Location     Type
  6129 ;;  fp              1   26[COMRAM] PTR struct _IO_FILE
  6130 ;;		 -> sprintf@f(12), 
  6131 ;;  fmt             2   27[COMRAM] PTR const unsigned char 
  6132 ;;		 -> STR_3(3), STR_2(3), STR_1(3), 
  6133 ;;  ap              1   29[COMRAM] PTR PTR void 
  6134 ;;		 -> sprintf@ap(1), 
  6135 ;; Auto vars:     Size  Location     Type
  6136 ;;  cfmt            2   30[COMRAM] PTR unsigned char 
  6137 ;;		 -> STR_3(3), STR_2(3), STR_1(3), 
  6138 ;; Return value:  Size  Location     Type
  6139 ;;                  2   26[COMRAM] int 
  6140 ;; Registers used:
  6141 ;;		wreg, fsr1l, fsr1h, fsr2l, fsr2h, status,2, status,0, tblptrl, tblptrh, tblptru, cstack
  6142 ;; Tracked objects:
  6143 ;;		On entry : 0/0
  6144 ;;		On exit  : 0/0
  6145 ;;		Unchanged: 0/0
  6146 ;; Data sizes:     COMRAM   BANK0   BANK1   BANK2   BANK3   BANK4   BANK5   BANK6   BANK7   BANK8   BANK9  BANK10  BANK1
      +1  BANK12  BANK13  BANK14  BANK15
  6147 ;;      Params:         4       0       0       0       0       0       0       0       0       0       0       0       
      +0       0       0       0       0
  6148 ;;      Locals:         2       0       0       0       0       0       0       0       0       0       0       0       
      +0       0       0       0       0
  6149 ;;      Temps:          0       0       0       0       0       0       0       0       0       0       0       0       
      +0       0       0       0       0
  6150 ;;      Totals:         6       0       0       0       0       0       0       0       0       0       0       0       
      +0       0       0       0       0
  6151 ;;Total ram usage:        6 bytes
  6152 ;; Hardware stack levels used: 1
  6153 ;; Hardware stack levels required when called: 7
  6154 ;; This function calls:
  6155 ;;		_vfpfcnvrt
  6156 ;; This function is called by:
  6157 ;;		_sprintf
  6158 ;; This function uses a non-reentrant model
  6159 ;;
  6160                           
  6161                           	psect	text17
  6162   003242                     __ptext17:
  6163                           	callstack 0
  6164   003242                     _vfprintf:
  6165                           	callstack 20
  6166   003242                     
  6167                           ;C:\Program Files\Microchip\xc8\v2.46\pic\sources\c99\common\doprnt.c: 1817: int vfprint
      +                          f(FILE *fp, const char *fmt, va_list ap);C:\Program Files\Microchip\xc8\v2.46\pic\source
      +                          s\c99\common\doprnt.c: 1818: {;C:\Program Files\Microchip\xc8\v2.46\pic\sources\c99\comm
      +                          on\doprnt.c: 1820:     char *cfmt;;C:\Program Files\Microchip\xc8\v2.46\pic\sources\c99\
      +                          common\doprnt.c: 1822:     cfmt = (char *)fmt;
  6168   003242  C01C  F01F         	movff	vfprintf@fmt,vfprintf@cfmt
  6169   003246  C01D  F020         	movff	vfprintf@fmt+1,vfprintf@cfmt+1
  6170                           
  6171                           ;C:\Program Files\Microchip\xc8\v2.46\pic\sources\c99\common\doprnt.c: 1826:     while (
      +                          *cfmt) {
  6172   00324A  EF2F  F019         	goto	l10681
  6173   00324E                     l10679:
  6174                           
  6175                           ;C:\Program Files\Microchip\xc8\v2.46\pic\sources\c99\common\doprnt.c: 1830:    vfpfcnvr
      +                          t(fp, &cfmt, ap);
  6176   00324E  C01B  F00E         	movff	vfprintf@fp,vfpfcnvrt@fp
  6177   003252  0E1F               	movlw	low vfprintf@cfmt
  6178   003254  6E0F               	movwf	vfpfcnvrt@fmt^0,c
  6179   003256  C01E  F010         	movff	vfprintf@ap,vfpfcnvrt@ap
  6180   00325A  EC52  F00E         	call	_vfpfcnvrt	;wreg free
  6181   00325E                     l10681:
  6182                           
  6183                           ;C:\Program Files\Microchip\xc8\v2.46\pic\sources\c99\common\doprnt.c: 1826:     while (
      +                          *cfmt) {
  6184   00325E  C01F  FFF6         	movff	vfprintf@cfmt,tblptrl
  6185   003262  C020  FFF7         	movff	vfprintf@cfmt+1,tblptrh
  6186   003266                     	if	1	;Program memory is < 0x10000, tblptru is always zero
  6187   003266  6AF8               	clrf	tblptru,c
  6188   003268                     	endif
  6189   003268                     	if	0	;tblptru may be non-zero
  6190   003268                     	endif
  6191   003268  0008               	tblrd		*
  6192   00326A  50F5               	movf	tablat,w,c
  6193   00326C  0900               	iorlw	0
  6194   00326E  A4D8               	btfss	status,2,c
  6195   003270  EF3C  F019         	goto	u8361
  6196   003274  EF3E  F019         	goto	u8360
  6197   003278                     u8361:
  6198   003278  EF27  F019         	goto	l10679
  6199   00327C                     u8360:
  6200   00327C                     
  6201                           ;C:\Program Files\Microchip\xc8\v2.46\pic\sources\c99\common\doprnt.c: 1835:  return 0;
  6202   00327C  0E00               	movlw	0
  6203   00327E  6E1C               	movwf	(?_vfprintf+1)^0,c
  6204   003280  0E00               	movlw	0
  6205   003282  6E1B               	movwf	?_vfprintf^0,c
  6206   003284  0012               	return		;funcret
  6207   003286                     __end_of_vfprintf:
  6208                           	callstack 0
  6209                           
  6210 ;; *************** function _vfpfcnvrt *****************
  6211 ;; Defined at:
  6212 ;;		line 1177 in file "C:\Program Files\Microchip\xc8\v2.46\pic\sources\c99\common\doprnt.c"
  6213 ;; Parameters:    Size  Location     Type
  6214 ;;  fp              1   13[COMRAM] PTR struct _IO_FILE
  6215 ;;		 -> sprintf@f(12), 
  6216 ;;  fmt             1   14[COMRAM] PTR PTR unsigned char 
  6217 ;;		 -> vfprintf@cfmt(2), 
  6218 ;;  ap              1   15[COMRAM] PTR PTR void 
  6219 ;;		 -> sprintf@ap(1), 
  6220 ;; Auto vars:     Size  Location     Type
  6221 ;;  convarg         4   21[COMRAM] struct .
  6222 ;;  cp              2   19[COMRAM] PTR unsigned char 
  6223 ;;		 -> STR_3(3), STR_2(3), STR_1(3), 
  6224 ;;  c               1   25[COMRAM] unsigned char 
  6225 ;;  done            1   18[COMRAM] _Bool 
  6226 ;; Return value:  Size  Location     Type
  6227 ;;                  1    wreg      void 
  6228 ;; Registers used:
  6229 ;;		wreg, fsr1l, fsr1h, fsr2l, fsr2h, status,2, status,0, tblptrl, tblptrh, tblptru, cstack
  6230 ;; Tracked objects:
  6231 ;;		On entry : 0/0
  6232 ;;		On exit  : 0/0
  6233 ;;		Unchanged: 0/0
  6234 ;; Data sizes:     COMRAM   BANK0   BANK1   BANK2   BANK3   BANK4   BANK5   BANK6   BANK7   BANK8   BANK9  BANK10  BANK1
      +1  BANK12  BANK13  BANK14  BANK15
  6235 ;;      Params:         3       0       0       0       0       0       0       0       0       0       0       0       
      +0       0       0       0       0
  6236 ;;      Locals:         8       0       0       0       0       0       0       0       0       0       0       0       
      +0       0       0       0       0
  6237 ;;      Temps:          2       0       0       0       0       0       0       0       0       0       0       0       
      +0       0       0       0       0
  6238 ;;      Totals:        13       0       0       0       0       0       0       0       0       0       0       0       
      +0       0       0       0       0
  6239 ;;Total ram usage:       13 bytes
  6240 ;; Hardware stack levels used: 1
  6241 ;; Hardware stack levels required when called: 6
  6242 ;; This function calls:
  6243 ;;		___awdiv
  6244 ;;		___awmod
  6245 ;;		_abs
  6246 ;;		_fputc
  6247 ;; This function is called by:
  6248 ;;		_vfprintf
  6249 ;; This function uses a non-reentrant model
  6250 ;;
  6251                           
  6252                           	psect	text18
  6253   001CA4                     __ptext18:
  6254                           	callstack 0
  6255   001CA4                     _vfpfcnvrt:
  6256                           	callstack 20
  6257   001CA4                     
  6258                           ;C:\Program Files\Microchip\xc8\v2.46\pic\sources\c99\common\doprnt.c: 1177: vfpfcnvrt(F
      +                          ILE *fp, char *fmt[], va_list ap);C:\Program Files\Microchip\xc8\v2.46\pic\sources\c99\c
      +                          ommon\doprnt.c: 1178: {;C:\Program Files\Microchip\xc8\v2.46\pic\sources\c99\common\dopr
      +                          nt.c: 1179:     char c, *cp;;C:\Program Files\Microchip\xc8\v2.46\pic\sources\c99\common
      +                          \doprnt.c: 1180:     _Bool done;;C:\Program Files\Microchip\xc8\v2.46\pic\sources\c99\co
      +                          mmon\doprnt.c: 1188:  } convarg;;C:\Program Files\Microchip\xc8\v2.46\pic\sources\c99\co
      +                          mmon\doprnt.c: 1201:     if ((*fmt)[0] == '%') {
  6259   001CA4  500F               	movf	vfpfcnvrt@fmt^0,w,c
  6260   001CA6  6ED9               	movwf	fsr2l,c
  6261   001CA8  6ADA               	clrf	fsr2h,c
  6262   001CAA  CFDE FFF6          	movff	postinc2,tblptrl
  6263   001CAE  CFDD FFF7          	movff	postdec2,tblptrh
  6264   001CB2                     	if	1	;Program memory is < 0x10000, tblptru is always zero
  6265   001CB2  6AF8               	clrf	tblptru,c
  6266   001CB4                     	endif
  6267   001CB4                     	if	0	;tblptru may be non-zero
  6268   001CB4                     	endif
  6269   001CB4  0008               	tblrd		*
  6270   001CB6  50F5               	movf	tablat,w,c
  6271   001CB8  0A25               	xorlw	37
  6272   001CBA  A4D8               	btfss	status,2,c
  6273   001CBC  EF62  F00E         	goto	u8161
  6274   001CC0  EF64  F00E         	goto	u8160
  6275   001CC4                     u8161:
  6276   001CC4  EF34  F00F         	goto	l10601
  6277   001CC8                     u8160:
  6278   001CC8                     
  6279                           ;C:\Program Files\Microchip\xc8\v2.46\pic\sources\c99\common\doprnt.c: 1202:         ++*
      +                          fmt;
  6280   001CC8  500F               	movf	vfpfcnvrt@fmt^0,w,c
  6281   001CCA  6ED9               	movwf	fsr2l,c
  6282   001CCC  6ADA               	clrf	fsr2h,c
  6283   001CCE  2ADE               	incf	postinc2,f,c
  6284   001CD0  0E00               	movlw	0
  6285   001CD2  22DD               	addwfc	postdec2,f,c
  6286   001CD4                     
  6287                           ;C:\Program Files\Microchip\xc8\v2.46\pic\sources\c99\common\doprnt.c: 1204:         fla
      +                          gs = width = 0;
  6288   001CD4  0E00               	movlw	0
  6289   001CD6  0100               	movlb	0	; () banked
  6290   001CD8  6F8F               	movwf	(_width+1)& (0+255),b
  6291   001CDA  0E00               	movlw	0
  6292   001CDC  6F8E               	movwf	_width& (0+255),b
  6293   001CDE  C08E  F0C2         	movff	_width,_flags
  6294   001CE2                     
  6295                           ; BSR set to: 0
  6296                           ;C:\Program Files\Microchip\xc8\v2.46\pic\sources\c99\common\doprnt.c: 1205:         pre
      +                          c = -1;
  6297   001CE2  6990               	setf	_prec& (0+255),b
  6298   001CE4  6991               	setf	(_prec+1)& (0+255),b
  6299   001CE6                     
  6300                           ; BSR set to: 0
  6301                           ;C:\Program Files\Microchip\xc8\v2.46\pic\sources\c99\common\doprnt.c: 1291:   cp = *fmt
      +                          ;
  6302   001CE6  500F               	movf	vfpfcnvrt@fmt^0,w,c
  6303   001CE8  6ED9               	movwf	fsr2l,c
  6304   001CEA  6ADA               	clrf	fsr2h,c
  6305   001CEC  CFDE F014          	movff	postinc2,vfpfcnvrt@cp
  6306   001CF0  CFDD F015          	movff	postdec2,vfpfcnvrt@cp+1
  6307   001CF4                     
  6308                           ; BSR set to: 0
  6309                           ;C:\Program Files\Microchip\xc8\v2.46\pic\sources\c99\common\doprnt.c: 1361:   if (*cp =
      +                          = 'd' || *cp == 'i') {
  6310   001CF4  C014  FFF6         	movff	vfpfcnvrt@cp,tblptrl
  6311   001CF8  C015  FFF7         	movff	vfpfcnvrt@cp+1,tblptrh
  6312   001CFC                     	if	1	;Program memory is < 0x10000, tblptru is always zero
  6313   001CFC  6AF8               	clrf	tblptru,c
  6314   001CFE                     	endif
  6315   001CFE                     	if	0	;tblptru may be non-zero
  6316   001CFE                     	endif
  6317   001CFE  0008               	tblrd		*
  6318   001D00  50F5               	movf	tablat,w,c
  6319   001D02  0A64               	xorlw	100
  6320   001D04  B4D8               	btfsc	status,2,c
  6321   001D06  EF87  F00E         	goto	u8171
  6322   001D0A  EF89  F00E         	goto	u8170
  6323   001D0E                     u8171:
  6324   001D0E  EF98  F00E         	goto	l10571
  6325   001D12                     u8170:
  6326   001D12                     
  6327                           ; BSR set to: 0
  6328   001D12  C014  FFF6         	movff	vfpfcnvrt@cp,tblptrl
  6329   001D16  C015  FFF7         	movff	vfpfcnvrt@cp+1,tblptrh
  6330   001D1A                     	if	1	;Program memory is < 0x10000, tblptru is always zero
  6331   001D1A  6AF8               	clrf	tblptru,c
  6332   001D1C                     	endif
  6333   001D1C                     	if	0	;tblptru may be non-zero
  6334   001D1C                     	endif
  6335   001D1C  0008               	tblrd		*
  6336   001D1E  50F5               	movf	tablat,w,c
  6337   001D20  0A69               	xorlw	105
  6338   001D22  A4D8               	btfss	status,2,c
  6339   001D24  EF96  F00E         	goto	u8181
  6340   001D28  EF98  F00E         	goto	u8180
  6341   001D2C                     u8181:
  6342   001D2C  EF2C  F00F         	goto	l10597
  6343   001D30                     u8180:
  6344   001D30                     l10571:
  6345                           
  6346                           ; BSR set to: 0
  6347                           ;C:\Program Files\Microchip\xc8\v2.46\pic\sources\c99\common\doprnt.c: 1404:    convarg.
      +                          sint = (vfpf_sint_t)(int)(*(int *)__va_arg(*(int **)ap, (int)0));
  6348   001D30  5010               	movf	vfpfcnvrt@ap^0,w,c
  6349   001D32  6ED9               	movwf	fsr2l,c
  6350   001D34  6ADA               	clrf	fsr2h,c
  6351   001D36  0E02               	movlw	2
  6352   001D38  26DF               	addwf	indf2,f,c
  6353   001D3A  5CDF               	subwf	indf2,w,c
  6354   001D3C  6ED9               	movwf	fsr2l,c
  6355   001D3E  6ADA               	clrf	fsr2h,c
  6356   001D40  CFDE F016          	movff	postinc2,vfpfcnvrt@convarg
  6357   001D44  CFDE F017          	movff	postinc2,vfpfcnvrt@convarg+1
  6358   001D48                     
  6359                           ; BSR set to: 0
  6360                           ;C:\Program Files\Microchip\xc8\v2.46\pic\sources\c99\common\doprnt.c: 1406:    *fmt = c
      +                          p+1;
  6361   001D48  0E01               	movlw	1
  6362   001D4A  2414               	addwf	vfpfcnvrt@cp^0,w,c
  6363   001D4C  6E11               	movwf	??_vfpfcnvrt^0,c
  6364   001D4E  0E00               	movlw	0
  6365   001D50  2015               	addwfc	(vfpfcnvrt@cp+1)^0,w,c
  6366   001D52  6E12               	movwf	(??_vfpfcnvrt+1)^0,c
  6367   001D54  500F               	movf	vfpfcnvrt@fmt^0,w,c
  6368   001D56  6ED9               	movwf	fsr2l,c
  6369   001D58  6ADA               	clrf	fsr2h,c
  6370   001D5A  C011  FFDE         	movff	??_vfpfcnvrt,postinc2
  6371   001D5E  C012  FFDD         	movff	??_vfpfcnvrt+1,postdec2
  6372   001D62                     
  6373                           ; BSR set to: 0
  6374                           ;C:\Program Files\Microchip\xc8\v2.46\pic\sources\c99\common\doprnt.c: 1408:    c = size
      +                          of(dbuf);
  6375   001D62  0E20               	movlw	32
  6376   001D64  6E1A               	movwf	vfpfcnvrt@c^0,c
  6377                           
  6378                           ;C:\Program Files\Microchip\xc8\v2.46\pic\sources\c99\common\doprnt.c: 1409:    done = c
      +                          onvarg.sint < 0;
  6379   001D66  BE17               	btfsc	(vfpfcnvrt@convarg+1)^0,7,c
  6380   001D68  EFB8  F00E         	goto	u8191
  6381   001D6C  EFBB  F00E         	goto	u8190
  6382   001D70                     u8191:
  6383   001D70  0E01               	movlw	1
  6384   001D72  EFBC  F00E         	goto	u8200
  6385   001D76                     u8190:
  6386   001D76  0E00               	movlw	0
  6387   001D78                     u8200:
  6388   001D78  6E13               	movwf	vfpfcnvrt@done^0,c
  6389   001D7A                     l10577:
  6390                           
  6391                           ;C:\Program Files\Microchip\xc8\v2.46\pic\sources\c99\common\doprnt.c: 1411:     dbuf[--
      +                          c] = abs(convarg.sint % 10) + '0';
  6392   001D7A  061A               	decf	vfpfcnvrt@c^0,f,c
  6393   001D7C  0E00               	movlw	low _dbuf
  6394   001D7E  241A               	addwf	vfpfcnvrt@c^0,w,c
  6395   001D80  6ED9               	movwf	fsr2l,c
  6396   001D82  6ADA               	clrf	fsr2h,c
  6397   001D84  0E01               	movlw	high _dbuf
  6398   001D86  22DA               	addwfc	fsr2h,f,c
  6399   001D88  C016  F004         	movff	vfpfcnvrt@convarg,___awmod@dividend
  6400   001D8C  C017  F005         	movff	vfpfcnvrt@convarg+1,___awmod@dividend+1
  6401   001D90  0E00               	movlw	0
  6402   001D92  6E07               	movwf	(___awmod@divisor+1)^0,c
  6403   001D94  0E0A               	movlw	10
  6404   001D96  6E06               	movwf	___awmod@divisor^0,c
  6405   001D98  EC72  F015         	call	___awmod	;wreg free
  6406   001D9C  C004  F00A         	movff	?___awmod,abs@a
  6407   001DA0  C005  F00B         	movff	?___awmod+1,abs@a+1
  6408   001DA4  EC1A  F01A         	call	_abs	;wreg free
  6409   001DA8  500A               	movf	?_abs^0,w,c
  6410   001DAA  0F30               	addlw	48
  6411   001DAC  6EDF               	movwf	indf2,c
  6412   001DAE                     
  6413                           ;C:\Program Files\Microchip\xc8\v2.46\pic\sources\c99\common\doprnt.c: 1412:     convarg
      +                          .sint /= 10;
  6414   001DAE  C016  F004         	movff	vfpfcnvrt@convarg,___awdiv@dividend
  6415   001DB2  C017  F005         	movff	vfpfcnvrt@convarg+1,___awdiv@dividend+1
  6416   001DB6  0E00               	movlw	0
  6417   001DB8  6E07               	movwf	(___awdiv@divisor+1)^0,c
  6418   001DBA  0E0A               	movlw	10
  6419   001DBC  6E06               	movwf	___awdiv@divisor^0,c
  6420   001DBE  ECB3  F014         	call	___awdiv	;wreg free
  6421   001DC2  C004  F016         	movff	?___awdiv,vfpfcnvrt@convarg
  6422   001DC6  C005  F017         	movff	?___awdiv+1,vfpfcnvrt@convarg+1
  6423   001DCA                     
  6424                           ;C:\Program Files\Microchip\xc8\v2.46\pic\sources\c99\common\doprnt.c: 1416:    } while 
      +                          (convarg.sint != 0 && c != 0);
  6425   001DCA  5016               	movf	vfpfcnvrt@convarg^0,w,c
  6426   001DCC  1017               	iorwf	(vfpfcnvrt@convarg+1)^0,w,c
  6427   001DCE  B4D8               	btfsc	status,2,c
  6428   001DD0  EFEC  F00E         	goto	u8211
  6429   001DD4  EFEE  F00E         	goto	u8210
  6430   001DD8                     u8211:
  6431   001DD8  EFF6  F00E         	goto	l10585
  6432   001DDC                     u8210:
  6433   001DDC  501A               	movf	vfpfcnvrt@c^0,w,c
  6434   001DDE  A4D8               	btfss	status,2,c
  6435   001DE0  EFF4  F00E         	goto	u8221
  6436   001DE4  EFF6  F00E         	goto	u8220
  6437   001DE8                     u8221:
  6438   001DE8  EFBD  F00E         	goto	l10577
  6439   001DEC                     u8220:
  6440   001DEC                     l10585:
  6441                           
  6442                           ;C:\Program Files\Microchip\xc8\v2.46\pic\sources\c99\common\doprnt.c: 1417:    if (c !=
      +                           0 && done) {
  6443   001DEC  501A               	movf	vfpfcnvrt@c^0,w,c
  6444   001DEE  B4D8               	btfsc	status,2,c
  6445   001DF0  EFFC  F00E         	goto	u8231
  6446   001DF4  EFFE  F00E         	goto	u8230
  6447   001DF8                     u8231:
  6448   001DF8  EF21  F00F         	goto	l10595
  6449   001DFC                     u8230:
  6450   001DFC  5013               	movf	vfpfcnvrt@done^0,w,c
  6451   001DFE  B4D8               	btfsc	status,2,c
  6452   001E00  EF04  F00F         	goto	u8241
  6453   001E04  EF06  F00F         	goto	u8240
  6454   001E08                     u8241:
  6455   001E08  EF21  F00F         	goto	l10595
  6456   001E0C                     u8240:
  6457   001E0C                     
  6458                           ;C:\Program Files\Microchip\xc8\v2.46\pic\sources\c99\common\doprnt.c: 1418:     dbuf[--
      +                          c] = '-';
  6459   001E0C  061A               	decf	vfpfcnvrt@c^0,f,c
  6460   001E0E  0E00               	movlw	low _dbuf
  6461   001E10  241A               	addwf	vfpfcnvrt@c^0,w,c
  6462   001E12  6ED9               	movwf	fsr2l,c
  6463   001E14  6ADA               	clrf	fsr2h,c
  6464   001E16  0E01               	movlw	high _dbuf
  6465   001E18  22DA               	addwfc	fsr2h,f,c
  6466   001E1A  0E2D               	movlw	45
  6467   001E1C  6EDF               	movwf	indf2,c
  6468   001E1E  EF21  F00F         	goto	l10595
  6469   001E22                     l10591:
  6470                           
  6471                           ;C:\Program Files\Microchip\xc8\v2.46\pic\sources\c99\common\doprnt.c: 1424:     fputc(d
      +                          buf[c++], fp);
  6472   001E22  0E00               	movlw	low _dbuf
  6473   001E24  241A               	addwf	vfpfcnvrt@c^0,w,c
  6474   001E26  6ED9               	movwf	fsr2l,c
  6475   001E28  6ADA               	clrf	fsr2h,c
  6476   001E2A  0E01               	movlw	high _dbuf
  6477   001E2C  22DA               	addwfc	fsr2h,f,c
  6478   001E2E  50DF               	movf	indf2,w,c
  6479   001E30  6E11               	movwf	??_vfpfcnvrt^0,c
  6480   001E32  5011               	movf	??_vfpfcnvrt^0,w,c
  6481   001E34  6E04               	movwf	fputc@c^0,c
  6482   001E36  6A05               	clrf	(fputc@c+1)^0,c
  6483   001E38  C00E  F006         	movff	vfpfcnvrt@fp,fputc@fp
  6484   001E3C  EC15  F015         	call	_fputc	;wreg free
  6485   001E40  2A1A               	incf	vfpfcnvrt@c^0,f,c
  6486   001E42                     l10595:
  6487                           
  6488                           ;C:\Program Files\Microchip\xc8\v2.46\pic\sources\c99\common\doprnt.c: 1423:    while (c
      +                           != sizeof(dbuf)) {
  6489   001E42  0E20               	movlw	32
  6490   001E44  181A               	xorwf	vfpfcnvrt@c^0,w,c
  6491   001E46  A4D8               	btfss	status,2,c
  6492   001E48  EF28  F00F         	goto	u8251
  6493   001E4C  EF2A  F00F         	goto	u8250
  6494   001E50                     u8251:
  6495   001E50  EF11  F00F         	goto	l10591
  6496   001E54                     u8250:
  6497   001E54  EF46  F00F         	goto	l2885
  6498   001E58                     l10597:
  6499                           
  6500                           ;C:\Program Files\Microchip\xc8\v2.46\pic\sources\c99\common\doprnt.c: 1806:         ++*
      +                          fmt;
  6501   001E58  500F               	movf	vfpfcnvrt@fmt^0,w,c
  6502   001E5A  6ED9               	movwf	fsr2l,c
  6503   001E5C  6ADA               	clrf	fsr2h,c
  6504   001E5E  2ADE               	incf	postinc2,f,c
  6505   001E60  0E00               	movlw	0
  6506   001E62  22DD               	addwfc	postdec2,f,c
  6507   001E64  EF46  F00F         	goto	l2885
  6508   001E68                     l10601:
  6509                           
  6510                           ;C:\Program Files\Microchip\xc8\v2.46\pic\sources\c99\common\doprnt.c: 1811:     fputc((
      +                          int)(*fmt)[0], fp);
  6511   001E68  500F               	movf	vfpfcnvrt@fmt^0,w,c
  6512   001E6A  6ED9               	movwf	fsr2l,c
  6513   001E6C  6ADA               	clrf	fsr2h,c
  6514   001E6E  CFDE FFF6          	movff	postinc2,tblptrl
  6515   001E72  CFDD FFF7          	movff	postdec2,tblptrh
  6516   001E76                     	if	1	;Program memory is < 0x10000, tblptru is always zero
  6517   001E76  6AF8               	clrf	tblptru,c
  6518   001E78                     	endif
  6519   001E78                     	if	0	;tblptru may be non-zero
  6520   001E78                     	endif
  6521   001E78  0008               	tblrd		*
  6522   001E7A  50F5               	movf	tablat,w,c
  6523   001E7C  6E04               	movwf	fputc@c^0,c
  6524   001E7E  6A05               	clrf	(fputc@c+1)^0,c
  6525   001E80  C00E  F006         	movff	vfpfcnvrt@fp,fputc@fp
  6526   001E84  EC15  F015         	call	_fputc	;wreg free
  6527   001E88  EF2C  F00F         	goto	l10597
  6528   001E8C                     l2885:
  6529   001E8C  0012               	return		;funcret
  6530   001E8E                     __end_of_vfpfcnvrt:
  6531                           	callstack 0
  6532                           
  6533 ;; *************** function _fputc *****************
  6534 ;; Defined at:
  6535 ;;		line 8 in file "C:\Program Files\Microchip\xc8\v2.46\pic\sources\c99\common\nf_fputc.c"
  6536 ;; Parameters:    Size  Location     Type
  6537 ;;  c               2    3[COMRAM] int 
  6538 ;;  fp              1    5[COMRAM] PTR struct _IO_FILE
  6539 ;;		 -> sprintf@f(12), 
  6540 ;; Auto vars:     Size  Location     Type
  6541 ;;		None
  6542 ;; Return value:  Size  Location     Type
  6543 ;;                  2    3[COMRAM] int 
  6544 ;; Registers used:
  6545 ;;		wreg, fsr1l, fsr1h, fsr2l, fsr2h, status,2, status,0, cstack
  6546 ;; Tracked objects:
  6547 ;;		On entry : 0/0
  6548 ;;		On exit  : 0/0
  6549 ;;		Unchanged: 0/0
  6550 ;; Data sizes:     COMRAM   BANK0   BANK1   BANK2   BANK3   BANK4   BANK5   BANK6   BANK7   BANK8   BANK9  BANK10  BANK1
      +1  BANK12  BANK13  BANK14  BANK15
  6551 ;;      Params:         3       0       0       0       0       0       0       0       0       0       0       0       
      +0       0       0       0       0
  6552 ;;      Locals:         0       0       0       0       0       0       0       0       0       0       0       0       
      +0       0       0       0       0
  6553 ;;      Temps:          5       0       0       0       0       0       0       0       0       0       0       0       
      +0       0       0       0       0
  6554 ;;      Totals:         8       0       0       0       0       0       0       0       0       0       0       0       
      +0       0       0       0       0
  6555 ;;Total ram usage:        8 bytes
  6556 ;; Hardware stack levels used: 1
  6557 ;; Hardware stack levels required when called: 5
  6558 ;; This function calls:
  6559 ;;		_putch
  6560 ;; This function is called by:
  6561 ;;		_vfpfcnvrt
  6562 ;; This function uses a non-reentrant model
  6563 ;;
  6564                           
  6565                           	psect	text19
  6566   002A2A                     __ptext19:
  6567                           	callstack 0
  6568   002A2A                     _fputc:
  6569                           	callstack 20
  6570   002A2A  5006               	movf	fputc@fp^0,w,c
  6571   002A2C  B4D8               	btfsc	status,2,c
  6572   002A2E  EF1B  F015         	goto	u8101
  6573   002A32  EF1D  F015         	goto	u8100
  6574   002A36                     u8101:
  6575   002A36  EF25  F015         	goto	l10533
  6576   002A3A                     u8100:
  6577   002A3A  5006               	movf	fputc@fp^0,w,c
  6578   002A3C  A4D8               	btfss	status,2,c
  6579   002A3E  EF23  F015         	goto	u8111
  6580   002A42  EF25  F015         	goto	u8110
  6581   002A46                     u8111:
  6582   002A46  EF2A  F015         	goto	l10535
  6583   002A4A                     u8110:
  6584   002A4A                     l10533:
  6585   002A4A  5004               	movf	fputc@c^0,w,c
  6586   002A4C  EC34  F01B         	call	_putch
  6587   002A50  EF71  F015         	goto	l2910
  6588   002A54                     l10535:
  6589   002A54  5006               	movf	fputc@fp^0,w,c
  6590   002A56  6ED9               	movwf	fsr2l,c
  6591   002A58  6ADA               	clrf	fsr2h,c
  6592   002A5A  0E0A               	movlw	10
  6593   002A5C  26D9               	addwf	fsr2l,f,c
  6594   002A5E  50DE               	movf	postinc2,w,c
  6595   002A60  10DE               	iorwf	postinc2,w,c
  6596   002A62  B4D8               	btfsc	status,2,c
  6597   002A64  EF36  F015         	goto	u8121
  6598   002A68  EF38  F015         	goto	u8120
  6599   002A6C                     u8121:
  6600   002A6C  EF51  F015         	goto	l10539
  6601   002A70                     u8120:
  6602   002A70  5006               	movf	fputc@fp^0,w,c
  6603   002A72  6ED9               	movwf	fsr2l,c
  6604   002A74  6ADA               	clrf	fsr2h,c
  6605   002A76  0E0A               	movlw	10
  6606   002A78  26D9               	addwf	fsr2l,f,c
  6607   002A7A  5006               	movf	fputc@fp^0,w,c
  6608   002A7C  6EE1               	movwf	fsr1l,c
  6609   002A7E  6AE2               	clrf	fsr1h,c
  6610   002A80  0E03               	movlw	3
  6611   002A82  26E1               	addwf	fsr1l,f,c
  6612   002A84  50DE               	movf	postinc2,w,c
  6613   002A86  5CE6               	subwf	postinc1,w,c
  6614   002A88  50E6               	movf	postinc1,w,c
  6615   002A8A  0A80               	xorlw	128
  6616   002A8C  6E0B               	movwf	(??_fputc+4)^0,c
  6617   002A8E  50DE               	movf	postinc2,w,c
  6618   002A90  0A80               	xorlw	128
  6619   002A92  580B               	subwfb	(??_fputc+4)^0,w,c
  6620   002A94  B0D8               	btfsc	status,0,c
  6621   002A96  EF4F  F015         	goto	u8131
  6622   002A9A  EF51  F015         	goto	u8130
  6623   002A9E                     u8131:
  6624   002A9E  EF71  F015         	goto	l2910
  6625   002AA2                     u8130:
  6626   002AA2                     l10539:
  6627   002AA2  5006               	movf	fputc@fp^0,w,c
  6628   002AA4  6ED9               	movwf	fsr2l,c
  6629   002AA6  6ADA               	clrf	fsr2h,c
  6630   002AA8  0E03               	movlw	3
  6631   002AAA  26D9               	addwf	fsr2l,f,c
  6632   002AAC  CFDE F007          	movff	postinc2,??_fputc
  6633   002AB0  CFDD F008          	movff	postdec2,??_fputc+1
  6634   002AB4  5006               	movf	fputc@fp^0,w,c
  6635   002AB6  6ED9               	movwf	fsr2l,c
  6636   002AB8  6ADA               	clrf	fsr2h,c
  6637   002ABA  CFDE F009          	movff	postinc2,??_fputc+2
  6638   002ABE  CFDD F00A          	movff	postdec2,??_fputc+3
  6639   002AC2  5007               	movf	??_fputc^0,w,c
  6640   002AC4  2409               	addwf	(??_fputc+2)^0,w,c
  6641   002AC6  6ED9               	movwf	fsr2l,c
  6642   002AC8  5008               	movf	(??_fputc+1)^0,w,c
  6643   002ACA  200A               	addwfc	(??_fputc+3)^0,w,c
  6644   002ACC  6EDA               	movwf	fsr2h,c
  6645   002ACE  C004  FFDF         	movff	fputc@c,indf2
  6646   002AD2  5006               	movf	fputc@fp^0,w,c
  6647   002AD4  6ED9               	movwf	fsr2l,c
  6648   002AD6  6ADA               	clrf	fsr2h,c
  6649   002AD8  0E03               	movlw	3
  6650   002ADA  26D9               	addwf	fsr2l,f,c
  6651   002ADC  2ADE               	incf	postinc2,f,c
  6652   002ADE  0E00               	movlw	0
  6653   002AE0  22DD               	addwfc	postdec2,f,c
  6654   002AE2                     l2910:
  6655   002AE2  0012               	return		;funcret
  6656   002AE4                     __end_of_fputc:
  6657                           	callstack 0
  6658                           
  6659 ;; *************** function _putch *****************
  6660 ;; Defined at:
  6661 ;;		line 7 in file "C:\Program Files\Microchip\xc8\v2.46\pic\sources\c99\common\putch.c"
  6662 ;; Parameters:    Size  Location     Type
  6663 ;;  c               1    wreg     unsigned char 
  6664 ;; Auto vars:     Size  Location     Type
  6665 ;;  c               1    0[COMRAM] unsigned char 
  6666 ;; Return value:  Size  Location     Type
  6667 ;;                  1    wreg      void 
  6668 ;; Registers used:
  6669 ;;		wreg
  6670 ;; Tracked objects:
  6671 ;;		On entry : 0/0
  6672 ;;		On exit  : 0/0
  6673 ;;		Unchanged: 0/0
  6674 ;; Data sizes:     COMRAM   BANK0   BANK1   BANK2   BANK3   BANK4   BANK5   BANK6   BANK7   BANK8   BANK9  BANK10  BANK1
      +1  BANK12  BANK13  BANK14  BANK15
  6675 ;;      Params:         0       0       0       0       0       0       0       0       0       0       0       0       
      +0       0       0       0       0
  6676 ;;      Locals:         0       0       0       0       0       0       0       0       0       0       0       0       
      +0       0       0       0       0
  6677 ;;      Temps:          0       0       0       0       0       0       0       0       0       0       0       0       
      +0       0       0       0       0
  6678 ;;      Totals:         0       0       0       0       0       0       0       0       0       0       0       0       
      +0       0       0       0       0
  6679 ;;Total ram usage:        0 bytes
  6680 ;; Hardware stack levels used: 1
  6681 ;; Hardware stack levels required when called: 4
  6682 ;; This function calls:
  6683 ;;		Nothing
  6684 ;; This function is called by:
  6685 ;;		_fputc
  6686 ;; This function uses a non-reentrant model
  6687 ;;
  6688                           
  6689                           	psect	text20
  6690   003668                     __ptext20:
  6691                           	callstack 0
  6692   003668                     _putch:
  6693                           	callstack 20
  6694   003668  0012               	return		;funcret
  6695   00366A                     __end_of_putch:
  6696                           	callstack 0
  6697                           
  6698 ;; *************** function _abs *****************
  6699 ;; Defined at:
  6700 ;;		line 1 in file "C:\Program Files\Microchip\xc8\v2.46\pic\sources\c99\common\abs.c"
  6701 ;; Parameters:    Size  Location     Type
  6702 ;;  a               2    9[COMRAM] int 
  6703 ;; Auto vars:     Size  Location     Type
  6704 ;;		None
  6705 ;; Return value:  Size  Location     Type
  6706 ;;                  2    9[COMRAM] int 
  6707 ;; Registers used:
  6708 ;;		wreg, status,2, status,0
  6709 ;; Tracked objects:
  6710 ;;		On entry : 0/0
  6711 ;;		On exit  : 0/0
  6712 ;;		Unchanged: 0/0
  6713 ;; Data sizes:     COMRAM   BANK0   BANK1   BANK2   BANK3   BANK4   BANK5   BANK6   BANK7   BANK8   BANK9  BANK10  BANK1
      +1  BANK12  BANK13  BANK14  BANK15
  6714 ;;      Params:         2       0       0       0       0       0       0       0       0       0       0       0       
      +0       0       0       0       0
  6715 ;;      Locals:         0       0       0       0       0       0       0       0       0       0       0       0       
      +0       0       0       0       0
  6716 ;;      Temps:          2       0       0       0       0       0       0       0       0       0       0       0       
      +0       0       0       0       0
  6717 ;;      Totals:         4       0       0       0       0       0       0       0       0       0       0       0       
      +0       0       0       0       0
  6718 ;;Total ram usage:        4 bytes
  6719 ;; Hardware stack levels used: 1
  6720 ;; Hardware stack levels required when called: 4
  6721 ;; This function calls:
  6722 ;;		Nothing
  6723 ;; This function is called by:
  6724 ;;		_vfpfcnvrt
  6725 ;; This function uses a non-reentrant model
  6726 ;;
  6727                           
  6728                           	psect	text21
  6729   003434                     __ptext21:
  6730                           	callstack 0
  6731   003434                     _abs:
  6732                           	callstack 21
  6733   003434  BE0B               	btfsc	(abs@a+1)^0,7,c
  6734   003436  EF1F  F01A         	goto	u8141
  6735   00343A  EF21  F01A         	goto	u8140
  6736   00343E                     u8141:
  6737   00343E  EF27  F01A         	goto	l2895
  6738   003442                     u8140:
  6739   003442  C00A  F00A         	movff	abs@a,?_abs
  6740   003446  C00B  F00B         	movff	abs@a+1,?_abs+1
  6741   00344A  EF33  F01A         	goto	l2898
  6742   00344E                     l2895:
  6743   00344E  C00A  F00C         	movff	abs@a,??_abs
  6744   003452  C00B  F00D         	movff	abs@a+1,??_abs+1
  6745   003456  1E0C               	comf	??_abs^0,f,c
  6746   003458  1E0D               	comf	(??_abs+1)^0,f,c
  6747   00345A  4A0C               	infsnz	??_abs^0,f,c
  6748   00345C  2A0D               	incf	(??_abs+1)^0,f,c
  6749   00345E  C00C  F00A         	movff	??_abs,?_abs
  6750   003462  C00D  F00B         	movff	??_abs+1,?_abs+1
  6751   003466                     l2898:
  6752   003466  0012               	return		;funcret
  6753   003468                     __end_of_abs:
  6754                           	callstack 0
  6755                           
  6756 ;; *************** function ___awmod *****************
  6757 ;; Defined at:
  6758 ;;		line 7 in file "C:\Program Files\Microchip\xc8\v2.46\pic\sources\c99\common\awmod.c"
  6759 ;; Parameters:    Size  Location     Type
  6760 ;;  dividend        2    3[COMRAM] int 
  6761 ;;  divisor         2    5[COMRAM] int 
  6762 ;; Auto vars:     Size  Location     Type
  6763 ;;  sign            1    8[COMRAM] unsigned char 
  6764 ;;  counter         1    7[COMRAM] unsigned char 
  6765 ;; Return value:  Size  Location     Type
  6766 ;;                  2    3[COMRAM] int 
  6767 ;; Registers used:
  6768 ;;		wreg, status,2, status,0
  6769 ;; Tracked objects:
  6770 ;;		On entry : 0/0
  6771 ;;		On exit  : 0/0
  6772 ;;		Unchanged: 0/0
  6773 ;; Data sizes:     COMRAM   BANK0   BANK1   BANK2   BANK3   BANK4   BANK5   BANK6   BANK7   BANK8   BANK9  BANK10  BANK1
      +1  BANK12  BANK13  BANK14  BANK15
  6774 ;;      Params:         4       0       0       0       0       0       0       0       0       0       0       0       
      +0       0       0       0       0
  6775 ;;      Locals:         2       0       0       0       0       0       0       0       0       0       0       0       
      +0       0       0       0       0
  6776 ;;      Temps:          0       0       0       0       0       0       0       0       0       0       0       0       
      +0       0       0       0       0
  6777 ;;      Totals:         6       0       0       0       0       0       0       0       0       0       0       0       
      +0       0       0       0       0
  6778 ;;Total ram usage:        6 bytes
  6779 ;; Hardware stack levels used: 1
  6780 ;; Hardware stack levels required when called: 4
  6781 ;; This function calls:
  6782 ;;		Nothing
  6783 ;; This function is called by:
  6784 ;;		_vfpfcnvrt
  6785 ;; This function uses a non-reentrant model
  6786 ;;
  6787                           
  6788                           	psect	text22
  6789   002AE4                     __ptext22:
  6790                           	callstack 0
  6791   002AE4                     ___awmod:
  6792                           	callstack 21
  6793   002AE4  0E00               	movlw	0
  6794   002AE6  6E09               	movwf	___awmod@sign^0,c
  6795   002AE8  BE05               	btfsc	(___awmod@dividend+1)^0,7,c
  6796   002AEA  EF7B  F015         	goto	u8040
  6797   002AEE  EF79  F015         	goto	u8041
  6798   002AF2                     u8041:
  6799   002AF2  EF81  F015         	goto	l10501
  6800   002AF6                     u8040:
  6801   002AF6  6C04               	negf	___awmod@dividend^0,c
  6802   002AF8  1E05               	comf	(___awmod@dividend+1)^0,f,c
  6803   002AFA  B0D8               	btfsc	status,0,c
  6804   002AFC  2A05               	incf	(___awmod@dividend+1)^0,f,c
  6805   002AFE  0E01               	movlw	1
  6806   002B00  6E09               	movwf	___awmod@sign^0,c
  6807   002B02                     l10501:
  6808   002B02  BE07               	btfsc	(___awmod@divisor+1)^0,7,c
  6809   002B04  EF88  F015         	goto	u8050
  6810   002B08  EF86  F015         	goto	u8051
  6811   002B0C                     u8051:
  6812   002B0C  EF8C  F015         	goto	l10505
  6813   002B10                     u8050:
  6814   002B10  6C06               	negf	___awmod@divisor^0,c
  6815   002B12  1E07               	comf	(___awmod@divisor+1)^0,f,c
  6816   002B14  B0D8               	btfsc	status,0,c
  6817   002B16  2A07               	incf	(___awmod@divisor+1)^0,f,c
  6818   002B18                     l10505:
  6819   002B18  5006               	movf	___awmod@divisor^0,w,c
  6820   002B1A  1007               	iorwf	(___awmod@divisor+1)^0,w,c
  6821   002B1C  B4D8               	btfsc	status,2,c
  6822   002B1E  EF93  F015         	goto	u8061
  6823   002B22  EF95  F015         	goto	u8060
  6824   002B26                     u8061:
  6825   002B26  EFB9  F015         	goto	l10521
  6826   002B2A                     u8060:
  6827   002B2A  0E01               	movlw	1
  6828   002B2C  6E08               	movwf	___awmod@counter^0,c
  6829   002B2E  EF9D  F015         	goto	l10511
  6830   002B32                     l10509:
  6831   002B32  90D8               	bcf	status,0,c
  6832   002B34  3606               	rlcf	___awmod@divisor^0,f,c
  6833   002B36  3607               	rlcf	(___awmod@divisor+1)^0,f,c
  6834   002B38  2A08               	incf	___awmod@counter^0,f,c
  6835   002B3A                     l10511:
  6836   002B3A  AE07               	btfss	(___awmod@divisor+1)^0,7,c
  6837   002B3C  EFA2  F015         	goto	u8071
  6838   002B40  EFA4  F015         	goto	u8070
  6839   002B44                     u8071:
  6840   002B44  EF99  F015         	goto	l10509
  6841   002B48                     u8070:
  6842   002B48                     l10513:
  6843   002B48  5006               	movf	___awmod@divisor^0,w,c
  6844   002B4A  5C04               	subwf	___awmod@dividend^0,w,c
  6845   002B4C  5007               	movf	(___awmod@divisor+1)^0,w,c
  6846   002B4E  5805               	subwfb	(___awmod@dividend+1)^0,w,c
  6847   002B50  A0D8               	btfss	status,0,c
  6848   002B52  EFAD  F015         	goto	u8081
  6849   002B56  EFAF  F015         	goto	u8080
  6850   002B5A                     u8081:
  6851   002B5A  EFB3  F015         	goto	l10517
  6852   002B5E                     u8080:
  6853   002B5E  5006               	movf	___awmod@divisor^0,w,c
  6854   002B60  5E04               	subwf	___awmod@dividend^0,f,c
  6855   002B62  5007               	movf	(___awmod@divisor+1)^0,w,c
  6856   002B64  5A05               	subwfb	(___awmod@dividend+1)^0,f,c
  6857   002B66                     l10517:
  6858   002B66  90D8               	bcf	status,0,c
  6859   002B68  3207               	rrcf	(___awmod@divisor+1)^0,f,c
  6860   002B6A  3206               	rrcf	___awmod@divisor^0,f,c
  6861   002B6C  2E08               	decfsz	___awmod@counter^0,f,c
  6862   002B6E  EFA4  F015         	goto	l10513
  6863   002B72                     l10521:
  6864   002B72  5009               	movf	___awmod@sign^0,w,c
  6865   002B74  B4D8               	btfsc	status,2,c
  6866   002B76  EFBF  F015         	goto	u8091
  6867   002B7A  EFC1  F015         	goto	u8090
  6868   002B7E                     u8091:
  6869   002B7E  EFC5  F015         	goto	l10525
  6870   002B82                     u8090:
  6871   002B82  6C04               	negf	___awmod@dividend^0,c
  6872   002B84  1E05               	comf	(___awmod@dividend+1)^0,f,c
  6873   002B86  B0D8               	btfsc	status,0,c
  6874   002B88  2A05               	incf	(___awmod@dividend+1)^0,f,c
  6875   002B8A                     l10525:
  6876   002B8A  C004  F004         	movff	___awmod@dividend,?___awmod
  6877   002B8E  C005  F005         	movff	___awmod@dividend+1,?___awmod+1
  6878   002B92  0012               	return		;funcret
  6879   002B94                     __end_of___awmod:
  6880                           	callstack 0
  6881                           
  6882 ;; *************** function ___awdiv *****************
  6883 ;; Defined at:
  6884 ;;		line 7 in file "C:\Program Files\Microchip\xc8\v2.46\pic\sources\c99\common\awdiv.c"
  6885 ;; Parameters:    Size  Location     Type
  6886 ;;  dividend        2    3[COMRAM] int 
  6887 ;;  divisor         2    5[COMRAM] int 
  6888 ;; Auto vars:     Size  Location     Type
  6889 ;;  quotient        2    9[COMRAM] int 
  6890 ;;  sign            1    8[COMRAM] unsigned char 
  6891 ;;  counter         1    7[COMRAM] unsigned char 
  6892 ;; Return value:  Size  Location     Type
  6893 ;;                  2    3[COMRAM] int 
  6894 ;; Registers used:
  6895 ;;		wreg, status,2, status,0
  6896 ;; Tracked objects:
  6897 ;;		On entry : 0/0
  6898 ;;		On exit  : 0/0
  6899 ;;		Unchanged: 0/0
  6900 ;; Data sizes:     COMRAM   BANK0   BANK1   BANK2   BANK3   BANK4   BANK5   BANK6   BANK7   BANK8   BANK9  BANK10  BANK1
      +1  BANK12  BANK13  BANK14  BANK15
  6901 ;;      Params:         4       0       0       0       0       0       0       0       0       0       0       0       
      +0       0       0       0       0
  6902 ;;      Locals:         4       0       0       0       0       0       0       0       0       0       0       0       
      +0       0       0       0       0
  6903 ;;      Temps:          0       0       0       0       0       0       0       0       0       0       0       0       
      +0       0       0       0       0
  6904 ;;      Totals:         8       0       0       0       0       0       0       0       0       0       0       0       
      +0       0       0       0       0
  6905 ;;Total ram usage:        8 bytes
  6906 ;; Hardware stack levels used: 1
  6907 ;; Hardware stack levels required when called: 4
  6908 ;; This function calls:
  6909 ;;		Nothing
  6910 ;; This function is called by:
  6911 ;;		_vfpfcnvrt
  6912 ;; This function uses a non-reentrant model
  6913 ;;
  6914                           
  6915                           	psect	text23
  6916   002966                     __ptext23:
  6917                           	callstack 0
  6918   002966                     ___awdiv:
  6919                           	callstack 21
  6920   002966  0E00               	movlw	0
  6921   002968  6E09               	movwf	___awdiv@sign^0,c
  6922   00296A  BE07               	btfsc	(___awdiv@divisor+1)^0,7,c
  6923   00296C  EFBC  F014         	goto	u7980
  6924   002970  EFBA  F014         	goto	u7981
  6925   002974                     u7981:
  6926   002974  EFC2  F014         	goto	l10457
  6927   002978                     u7980:
  6928   002978  6C06               	negf	___awdiv@divisor^0,c
  6929   00297A  1E07               	comf	(___awdiv@divisor+1)^0,f,c
  6930   00297C  B0D8               	btfsc	status,0,c
  6931   00297E  2A07               	incf	(___awdiv@divisor+1)^0,f,c
  6932   002980  0E01               	movlw	1
  6933   002982  6E09               	movwf	___awdiv@sign^0,c
  6934   002984                     l10457:
  6935   002984  BE05               	btfsc	(___awdiv@dividend+1)^0,7,c
  6936   002986  EFC9  F014         	goto	u7990
  6937   00298A  EFC7  F014         	goto	u7991
  6938   00298E                     u7991:
  6939   00298E  EFCF  F014         	goto	l10463
  6940   002992                     u7990:
  6941   002992  6C04               	negf	___awdiv@dividend^0,c
  6942   002994  1E05               	comf	(___awdiv@dividend+1)^0,f,c
  6943   002996  B0D8               	btfsc	status,0,c
  6944   002998  2A05               	incf	(___awdiv@dividend+1)^0,f,c
  6945   00299A  0E01               	movlw	1
  6946   00299C  1A09               	xorwf	___awdiv@sign^0,f,c
  6947   00299E                     l10463:
  6948   00299E  0E00               	movlw	0
  6949   0029A0  6E0B               	movwf	(___awdiv@quotient+1)^0,c
  6950   0029A2  0E00               	movlw	0
  6951   0029A4  6E0A               	movwf	___awdiv@quotient^0,c
  6952   0029A6  5006               	movf	___awdiv@divisor^0,w,c
  6953   0029A8  1007               	iorwf	(___awdiv@divisor+1)^0,w,c
  6954   0029AA  B4D8               	btfsc	status,2,c
  6955   0029AC  EFDA  F014         	goto	u8001
  6956   0029B0  EFDC  F014         	goto	u8000
  6957   0029B4                     u8001:
  6958   0029B4  EF04  F015         	goto	l10485
  6959   0029B8                     u8000:
  6960   0029B8  0E01               	movlw	1
  6961   0029BA  6E08               	movwf	___awdiv@counter^0,c
  6962   0029BC  EFE4  F014         	goto	l10471
  6963   0029C0                     l10469:
  6964   0029C0  90D8               	bcf	status,0,c
  6965   0029C2  3606               	rlcf	___awdiv@divisor^0,f,c
  6966   0029C4  3607               	rlcf	(___awdiv@divisor+1)^0,f,c
  6967   0029C6  2A08               	incf	___awdiv@counter^0,f,c
  6968   0029C8                     l10471:
  6969   0029C8  AE07               	btfss	(___awdiv@divisor+1)^0,7,c
  6970   0029CA  EFE9  F014         	goto	u8011
  6971   0029CE  EFEB  F014         	goto	u8010
  6972   0029D2                     u8011:
  6973   0029D2  EFE0  F014         	goto	l10469
  6974   0029D6                     u8010:
  6975   0029D6                     l10473:
  6976   0029D6  90D8               	bcf	status,0,c
  6977   0029D8  360A               	rlcf	___awdiv@quotient^0,f,c
  6978   0029DA  360B               	rlcf	(___awdiv@quotient+1)^0,f,c
  6979   0029DC  5006               	movf	___awdiv@divisor^0,w,c
  6980   0029DE  5C04               	subwf	___awdiv@dividend^0,w,c
  6981   0029E0  5007               	movf	(___awdiv@divisor+1)^0,w,c
  6982   0029E2  5805               	subwfb	(___awdiv@dividend+1)^0,w,c
  6983   0029E4  A0D8               	btfss	status,0,c
  6984   0029E6  EFF7  F014         	goto	u8021
  6985   0029EA  EFF9  F014         	goto	u8020
  6986   0029EE                     u8021:
  6987   0029EE  EFFE  F014         	goto	l10481
  6988   0029F2                     u8020:
  6989   0029F2  5006               	movf	___awdiv@divisor^0,w,c
  6990   0029F4  5E04               	subwf	___awdiv@dividend^0,f,c
  6991   0029F6  5007               	movf	(___awdiv@divisor+1)^0,w,c
  6992   0029F8  5A05               	subwfb	(___awdiv@dividend+1)^0,f,c
  6993   0029FA  800A               	bsf	___awdiv@quotient^0,0,c
  6994   0029FC                     l10481:
  6995   0029FC  90D8               	bcf	status,0,c
  6996   0029FE  3207               	rrcf	(___awdiv@divisor+1)^0,f,c
  6997   002A00  3206               	rrcf	___awdiv@divisor^0,f,c
  6998   002A02  2E08               	decfsz	___awdiv@counter^0,f,c
  6999   002A04  EFEB  F014         	goto	l10473
  7000   002A08                     l10485:
  7001   002A08  5009               	movf	___awdiv@sign^0,w,c
  7002   002A0A  B4D8               	btfsc	status,2,c
  7003   002A0C  EF0A  F015         	goto	u8031
  7004   002A10  EF0C  F015         	goto	u8030
  7005   002A14                     u8031:
  7006   002A14  EF10  F015         	goto	l10489
  7007   002A18                     u8030:
  7008   002A18  6C0A               	negf	___awdiv@quotient^0,c
  7009   002A1A  1E0B               	comf	(___awdiv@quotient+1)^0,f,c
  7010   002A1C  B0D8               	btfsc	status,0,c
  7011   002A1E  2A0B               	incf	(___awdiv@quotient+1)^0,f,c
  7012   002A20                     l10489:
  7013   002A20  C00A  F004         	movff	___awdiv@quotient,?___awdiv
  7014   002A24  C00B  F005         	movff	___awdiv@quotient+1,?___awdiv+1
  7015   002A28  0012               	return		;funcret
  7016   002A2A                     __end_of___awdiv:
  7017                           	callstack 0
  7018                           
  7019 ;; *************** function _memset *****************
  7020 ;; Defined at:
  7021 ;;		line 3 in file "C:\Program Files\Microchip\xc8\v2.46\pic\sources\c99\common\memset.c"
  7022 ;; Parameters:    Size  Location     Type
  7023 ;;  dest            2    3[COMRAM] PTR void 
  7024 ;;		 -> garage@temp_string(1), room_2@temp_string(1), room_1@temp_string(1), astrik(5), 
  7025 ;;  c               2    5[COMRAM] int 
  7026 ;;  n               2    7[COMRAM] unsigned int 
  7027 ;; Auto vars:     Size  Location     Type
  7028 ;;  p               2    9[COMRAM] PTR unsigned char 
  7029 ;;		 -> garage@temp_string(1), room_2@temp_string(1), room_1@temp_string(1), astrik(5), 
  7030 ;; Return value:  Size  Location     Type
  7031 ;;                  2    3[COMRAM] PTR void 
  7032 ;; Registers used:
  7033 ;;		wreg, fsr2l, fsr2h, status,2, status,0
  7034 ;; Tracked objects:
  7035 ;;		On entry : 0/0
  7036 ;;		On exit  : 0/0
  7037 ;;		Unchanged: 0/0
  7038 ;; Data sizes:     COMRAM   BANK0   BANK1   BANK2   BANK3   BANK4   BANK5   BANK6   BANK7   BANK8   BANK9  BANK10  BANK1
      +1  BANK12  BANK13  BANK14  BANK15
  7039 ;;      Params:         6       0       0       0       0       0       0       0       0       0       0       0       
      +0       0       0       0       0
  7040 ;;      Locals:         2       0       0       0       0       0       0       0       0       0       0       0       
      +0       0       0       0       0
  7041 ;;      Temps:          0       0       0       0       0       0       0       0       0       0       0       0       
      +0       0       0       0       0
  7042 ;;      Totals:         8       0       0       0       0       0       0       0       0       0       0       0       
      +0       0       0       0       0
  7043 ;;Total ram usage:        8 bytes
  7044 ;; Hardware stack levels used: 1
  7045 ;; Hardware stack levels required when called: 4
  7046 ;; This function calls:
  7047 ;;		Nothing
  7048 ;; This function is called by:
  7049 ;;		_ecu_lcd_conver_16_bits_to_string
  7050 ;;		_home_page
  7051 ;;		_ecu_lcd_conver_8_bits_to_string
  7052 ;;		_ecu_lcd_conver_32_bits_to_string
  7053 ;; This function uses a non-reentrant model
  7054 ;;
  7055                           
  7056                           	psect	text24
  7057   0033FC                     __ptext24:
  7058                           	callstack 0
  7059   0033FC                     _memset:
  7060                           	callstack 24
  7061   0033FC  C004  F00A         	movff	memset@dest,memset@p
  7062   003400  C005  F00B         	movff	memset@dest+1,memset@p+1
  7063   003404  EF0C  F01A         	goto	l12411
  7064   003408                     l12407:
  7065   003408  C00A  FFD9         	movff	memset@p,fsr2l
  7066   00340C  C00B  FFDA         	movff	memset@p+1,fsr2h
  7067   003410  C006  FFDF         	movff	memset@c,indf2
  7068   003414  4A0A               	infsnz	memset@p^0,f,c
  7069   003416  2A0B               	incf	(memset@p+1)^0,f,c
  7070   003418                     l12411:
  7071   003418  0608               	decf	memset@n^0,f,c
  7072   00341A  A0D8               	btfss	status,0,c
  7073   00341C  0609               	decf	(memset@n+1)^0,f,c
  7074   00341E  2808               	incf	memset@n^0,w,c
  7075   003420  E106               	bnz	u10081
  7076   003422  2809               	incf	(memset@n+1)^0,w,c
  7077   003424  A4D8               	btfss	status,2,c
  7078   003426  EF17  F01A         	goto	u10081
  7079   00342A  EF19  F01A         	goto	u10080
  7080   00342E                     u10081:
  7081   00342E  EF04  F01A         	goto	l12407
  7082   003432                     u10080:
  7083   003432  0012               	return		;funcret
  7084   003434                     __end_of_memset:
  7085                           	callstack 0
  7086                           
  7087 ;; *************** function _ecu_lcd_4_bits_send_string_data_pos *****************
  7088 ;; Defined at:
  7089 ;;		line 121 in file "LCD/ecu_chr_lcd.c"
  7090 ;; Parameters:    Size  Location     Type
  7091 ;;  lcd             1   20[COMRAM] PTR const struct .
  7092 ;;		 -> lcd(6), 
  7093 ;;  str             2   21[COMRAM] PTR unsigned char 
  7094 ;;		 -> STR_61(23), STR_60(30), STR_59(10), STR_58(14), 
  7095 ;;		 -> STR_57(13), STR_56(16), STR_55(10), STR_54(9), 
  7096 ;;		 -> STR_53(20), garage@temp_string(1), STR_52(30), STR_51(10), 
  7097 ;;		 -> STR_50(14), STR_49(13), STR_48(16), STR_47(10), 
  7098 ;;		 -> STR_46(11), STR_45(10), STR_44(10), STR_43(11), 
  7099 ;;		 -> STR_42(10), STR_41(10), STR_40(9), STR_39(20), 
  7100 ;;		 -> STR_38(7), STR_37(7), room_2@temp_string(1), STR_36(30), 
  7101 ;;		 -> STR_35(10), STR_34(14), STR_33(13), STR_32(16), 
  7102 ;;		 -> STR_31(10), STR_30(11), STR_29(10), STR_28(10), 
  7103 ;;		 -> STR_27(11), STR_26(10), STR_25(10), STR_24(9), 
  7104 ;;		 -> STR_23(20), STR_22(7), STR_21(7), room_1@temp_string(1), 
  7105 ;;		 -> STR_20(18), STR_19(19), STR_18(19), STR_17(22), 
  7106 ;;		 -> STR_16(21), STR_15(15), STR_14(11), STR_13(29), 
  7107 ;;		 -> STR_12(19), STR_11(24), STR_10(23), STR_9(10), 
  7108 ;;		 -> STR_8(10), STR_7(10), STR_6(10), STR_5(17), 
  7109 ;;		 -> STR_4(11), 
  7110 ;;  row             1   23[COMRAM] unsigned char 
  7111 ;;  column          1   24[COMRAM] unsigned char 
  7112 ;; Auto vars:     Size  Location     Type
  7113 ;;  ret             1    0        unsigned char 
  7114 ;; Return value:  Size  Location     Type
  7115 ;;                  1    wreg      unsigned char 
  7116 ;; Registers used:
  7117 ;;		wreg, fsr0l, fsr0h, fsr2l, fsr2h, status,2, status,0, tblptrl, tblptrh, tblptru, prodl, prodh, cstack
  7118 ;; Tracked objects:
  7119 ;;		On entry : 0/0
  7120 ;;		On exit  : 0/0
  7121 ;;		Unchanged: 0/0
  7122 ;; Data sizes:     COMRAM   BANK0   BANK1   BANK2   BANK3   BANK4   BANK5   BANK6   BANK7   BANK8   BANK9  BANK10  BANK1
      +1  BANK12  BANK13  BANK14  BANK15
  7123 ;;      Params:         5       0       0       0       0       0       0       0       0       0       0       0       
      +0       0       0       0       0
  7124 ;;      Locals:         0       0       0       0       0       0       0       0       0       0       0       0       
      +0       0       0       0       0
  7125 ;;      Temps:          0       0       0       0       0       0       0       0       0       0       0       0       
      +0       0       0       0       0
  7126 ;;      Totals:         5       0       0       0       0       0       0       0       0       0       0       0       
      +0       0       0       0       0
  7127 ;;Total ram usage:        5 bytes
  7128 ;; Hardware stack levels used: 1
  7129 ;; Hardware stack levels required when called: 8
  7130 ;; This function calls:
  7131 ;;		_ecu_lcd_4_bits_send_char_data
  7132 ;;		_send_4bits_set_cursor
  7133 ;; This function is called by:
  7134 ;;		_main
  7135 ;;		_home_page
  7136 ;;		_check_password
  7137 ;;		_room_1
  7138 ;;		_room_2
  7139 ;;		_garage
  7140 ;;		_fire_check
  7141 ;; This function uses a non-reentrant model
  7142 ;;
  7143                           
  7144                           	psect	text25
  7145   002B94                     __ptext25:
  7146                           	callstack 0
  7147   002B94                     _ecu_lcd_4_bits_send_string_data_pos:
  7148                           	callstack 21
  7149   002B94                     
  7150                           ;LCD/ecu_chr_lcd.c: 123:     if(((void*)0) == lcd || ((void*)0) == str){
  7151   002B94  5015               	movf	ecu_lcd_4_bits_send_string_data_pos@lcd^0,w,c
  7152   002B96  B4D8               	btfsc	status,2,c
  7153   002B98  EFD0  F015         	goto	u8431
  7154   002B9C  EFD2  F015         	goto	u8430
  7155   002BA0                     u8431:
  7156   002BA0  EFDB  F015         	goto	l10721
  7157   002BA4                     u8430:
  7158   002BA4  5016               	movf	ecu_lcd_4_bits_send_string_data_pos@str^0,w,c
  7159   002BA6  1017               	iorwf	(ecu_lcd_4_bits_send_string_data_pos@str+1)^0,w,c
  7160   002BA8  A4D8               	btfss	status,2,c
  7161   002BAA  EFD9  F015         	goto	u8441
  7162   002BAE  EFDB  F015         	goto	u8440
  7163   002BB2                     u8441:
  7164   002BB2  EFDD  F015         	goto	l10723
  7165   002BB6                     u8440:
  7166   002BB6                     l10721:
  7167                           
  7168                           ;LCD/ecu_chr_lcd.c: 125:     }
  7169   002BB6  EF18  F016         	goto	l730
  7170   002BBA                     l10723:
  7171   002BBA  C015  F012         	movff	ecu_lcd_4_bits_send_string_data_pos@lcd,send_4bits_set_cursor@lcd
  7172   002BBE  C018  F013         	movff	ecu_lcd_4_bits_send_string_data_pos@row,send_4bits_set_cursor@row
  7173   002BC2  C019  F014         	movff	ecu_lcd_4_bits_send_string_data_pos@column,send_4bits_set_cursor@column
  7174   002BC6  ECF1  F016         	call	_send_4bits_set_cursor	;wreg free
  7175                           
  7176                           ;LCD/ecu_chr_lcd.c: 128:         while(*(str)){
  7177   002BCA  EFFF  F015         	goto	l10729
  7178   002BCE                     l10725:
  7179   002BCE  C015  F00F         	movff	ecu_lcd_4_bits_send_string_data_pos@lcd,ecu_lcd_4_bits_send_char_data@lcd
  7180   002BD2  C016  FFF6         	movff	ecu_lcd_4_bits_send_string_data_pos@str,tblptrl
  7181   002BD6  C017  FFF7         	movff	ecu_lcd_4_bits_send_string_data_pos@str+1,tblptrh
  7182   002BDA  0E00               	movlw	low (__mediumconst shr (0+16))
  7183   002BDC  6EF8               	movwf	tblptru,c
  7184   002BDE  0E0F               	movlw	(high __ramtop+-1)
  7185   002BE0  64F7               	cpfsgt	tblptrh,c
  7186   002BE2  D003               	bra	u8457
  7187   002BE4  0008               	tblrd		*
  7188   002BE6  50F5               	movf	tablat,w,c
  7189   002BE8  D005               	bra	u8450
  7190   002BEA                     u8457:
  7191   002BEA  CFF6 FFE9          	movff	tblptrl,fsr0l
  7192   002BEE  CFF7 FFEA          	movff	tblptrh,fsr0h
  7193   002BF2  50EF               	movf	indf0,w,c
  7194   002BF4                     u8450:
  7195   002BF4  6E10               	movwf	ecu_lcd_4_bits_send_char_data@data^0,c
  7196   002BF6  EC9D  F018         	call	_ecu_lcd_4_bits_send_char_data	;wreg free
  7197   002BFA  4A16               	infsnz	ecu_lcd_4_bits_send_string_data_pos@str^0,f,c
  7198   002BFC  2A17               	incf	(ecu_lcd_4_bits_send_string_data_pos@str+1)^0,f,c
  7199   002BFE                     l10729:
  7200                           
  7201                           ;LCD/ecu_chr_lcd.c: 128:         while(*(str)){
  7202   002BFE  C016  FFF6         	movff	ecu_lcd_4_bits_send_string_data_pos@str,tblptrl
  7203   002C02  C017  FFF7         	movff	ecu_lcd_4_bits_send_string_data_pos@str+1,tblptrh
  7204   002C06  0E00               	movlw	low (__mediumconst shr (0+16))
  7205   002C08  6EF8               	movwf	tblptru,c
  7206   002C0A  0E0F               	movlw	(high __ramtop+-1)
  7207   002C0C  64F7               	cpfsgt	tblptrh,c
  7208   002C0E  D003               	bra	u8467
  7209   002C10  0008               	tblrd		*
  7210   002C12  50F5               	movf	tablat,w,c
  7211   002C14  D005               	bra	u8460
  7212   002C16                     u8467:
  7213   002C16  CFF6 FFE9          	movff	tblptrl,fsr0l
  7214   002C1A  CFF7 FFEA          	movff	tblptrh,fsr0h
  7215   002C1E  50EF               	movf	indf0,w,c
  7216   002C20                     u8460:
  7217   002C20  0900               	iorlw	0
  7218   002C22  A4D8               	btfss	status,2,c
  7219   002C24  EF16  F016         	goto	u8471
  7220   002C28  EF18  F016         	goto	u8470
  7221   002C2C                     u8471:
  7222   002C2C  EFE7  F015         	goto	l10725
  7223   002C30                     u8470:
  7224   002C30                     l730:
  7225   002C30  0012               	return		;funcret
  7226   002C32                     __end_of_ecu_lcd_4_bits_send_string_data_pos:
  7227                           	callstack 0
  7228                           
  7229 ;; *************** function _send_4bits_set_cursor *****************
  7230 ;; Defined at:
  7231 ;;		line 373 in file "LCD/ecu_chr_lcd.c"
  7232 ;; Parameters:    Size  Location     Type
  7233 ;;  lcd             1   17[COMRAM] PTR const struct .
  7234 ;;		 -> lcd(6), 
  7235 ;;  row             1   18[COMRAM] unsigned char 
  7236 ;;  column          1   19[COMRAM] unsigned char 
  7237 ;; Auto vars:     Size  Location     Type
  7238 ;;  ret             1    0        unsigned char 
  7239 ;; Return value:  Size  Location     Type
  7240 ;;                  1    wreg      unsigned char 
  7241 ;; Registers used:
  7242 ;;		wreg, fsr2l, fsr2h, status,2, status,0, prodl, prodh, cstack
  7243 ;; Tracked objects:
  7244 ;;		On entry : 0/0
  7245 ;;		On exit  : 0/0
  7246 ;;		Unchanged: 0/0
  7247 ;; Data sizes:     COMRAM   BANK0   BANK1   BANK2   BANK3   BANK4   BANK5   BANK6   BANK7   BANK8   BANK9  BANK10  BANK1
      +1  BANK12  BANK13  BANK14  BANK15
  7248 ;;      Params:         3       0       0       0       0       0       0       0       0       0       0       0       
      +0       0       0       0       0
  7249 ;;      Locals:         0       0       0       0       0       0       0       0       0       0       0       0       
      +0       0       0       0       0
  7250 ;;      Temps:          0       0       0       0       0       0       0       0       0       0       0       0       
      +0       0       0       0       0
  7251 ;;      Totals:         3       0       0       0       0       0       0       0       0       0       0       0       
      +0       0       0       0       0
  7252 ;;Total ram usage:        3 bytes
  7253 ;; Hardware stack levels used: 1
  7254 ;; Hardware stack levels required when called: 7
  7255 ;; This function calls:
  7256 ;;		_ecu_lcd_4_bits_send_command
  7257 ;; This function is called by:
  7258 ;;		_ecu_lcd_4_bits_send_char_data_pos
  7259 ;;		_ecu_lcd_4_bits_send_string_data_pos
  7260 ;; This function uses a non-reentrant model
  7261 ;;
  7262                           
  7263                           	psect	text26
  7264   002DE2                     __ptext26:
  7265                           	callstack 0
  7266   002DE2                     _send_4bits_set_cursor:
  7267                           	callstack 21
  7268   002DE2                     
  7269                           ;LCD/ecu_chr_lcd.c: 375:         column--;
  7270   002DE2  0614               	decf	send_4bits_set_cursor@column^0,f,c
  7271                           
  7272                           ;LCD/ecu_chr_lcd.c: 376:         switch(row){
  7273   002DE4  EF18  F017         	goto	l10671
  7274   002DE8                     l10663:
  7275   002DE8  C012  F00F         	movff	send_4bits_set_cursor@lcd,ecu_lcd_4_bits_send_command@lcd
  7276   002DEC  5014               	movf	send_4bits_set_cursor@column^0,w,c
  7277   002DEE  0F80               	addlw	128
  7278   002DF0  6E10               	movwf	ecu_lcd_4_bits_send_command@command^0,c
  7279   002DF2  ECCC  F018         	call	_ecu_lcd_4_bits_send_command	;wreg free
  7280                           
  7281                           ;LCD/ecu_chr_lcd.c: 378:             break;
  7282   002DF6  EF2B  F017         	goto	l10673
  7283   002DFA                     l10665:
  7284   002DFA  C012  F00F         	movff	send_4bits_set_cursor@lcd,ecu_lcd_4_bits_send_command@lcd
  7285   002DFE  5014               	movf	send_4bits_set_cursor@column^0,w,c
  7286   002E00  0FC0               	addlw	192
  7287   002E02  6E10               	movwf	ecu_lcd_4_bits_send_command@command^0,c
  7288   002E04  ECCC  F018         	call	_ecu_lcd_4_bits_send_command	;wreg free
  7289                           
  7290                           ;LCD/ecu_chr_lcd.c: 380:             break;
  7291   002E08  EF2B  F017         	goto	l10673
  7292   002E0C                     l10667:
  7293   002E0C  C012  F00F         	movff	send_4bits_set_cursor@lcd,ecu_lcd_4_bits_send_command@lcd
  7294   002E10  5014               	movf	send_4bits_set_cursor@column^0,w,c
  7295   002E12  0F94               	addlw	148
  7296   002E14  6E10               	movwf	ecu_lcd_4_bits_send_command@command^0,c
  7297   002E16  ECCC  F018         	call	_ecu_lcd_4_bits_send_command	;wreg free
  7298                           
  7299                           ;LCD/ecu_chr_lcd.c: 382:             break;
  7300   002E1A  EF2B  F017         	goto	l10673
  7301   002E1E                     l10669:
  7302   002E1E  C012  F00F         	movff	send_4bits_set_cursor@lcd,ecu_lcd_4_bits_send_command@lcd
  7303   002E22  5014               	movf	send_4bits_set_cursor@column^0,w,c
  7304   002E24  0FD4               	addlw	212
  7305   002E26  6E10               	movwf	ecu_lcd_4_bits_send_command@command^0,c
  7306   002E28  ECCC  F018         	call	_ecu_lcd_4_bits_send_command	;wreg free
  7307                           
  7308                           ;LCD/ecu_chr_lcd.c: 384:             break;
  7309   002E2C  EF2B  F017         	goto	l10673
  7310   002E30                     l10671:
  7311   002E30  5013               	movf	send_4bits_set_cursor@row^0,w,c
  7312                           
  7313                           ; Switch size 1, requested type "simple"
  7314                           ; Number of cases is 4, Range of values is 1 to 4
  7315                           ; switch strategies available:
  7316                           ; Name         Instructions Cycles
  7317                           ; simple_byte           13     7 (average)
  7318                           ;	Chosen strategy is simple_byte
  7319   002E32  0A01               	xorlw	1	; case 1
  7320   002E34  B4D8               	btfsc	status,2,c
  7321   002E36  EFF4  F016         	goto	l10663
  7322   002E3A  0A03               	xorlw	3	; case 2
  7323   002E3C  B4D8               	btfsc	status,2,c
  7324   002E3E  EFFD  F016         	goto	l10665
  7325   002E42  0A01               	xorlw	1	; case 3
  7326   002E44  B4D8               	btfsc	status,2,c
  7327   002E46  EF06  F017         	goto	l10667
  7328   002E4A  0A07               	xorlw	7	; case 4
  7329   002E4C  B4D8               	btfsc	status,2,c
  7330   002E4E  EF0F  F017         	goto	l10669
  7331   002E52  EF2B  F017         	goto	l10673
  7332   002E56                     l10673:
  7333                           
  7334                           ;LCD/ecu_chr_lcd.c: 390:     return ret;
  7335   002E56  0E00               	movlw	0
  7336   002E58  0012               	return		;funcret
  7337   002E5A                     __end_of_send_4bits_set_cursor:
  7338                           	callstack 0
  7339                           
  7340 ;; *************** function _ecu_lcd_4_bits_send_char_data *****************
  7341 ;; Defined at:
  7342 ;;		line 77 in file "LCD/ecu_chr_lcd.c"
  7343 ;; Parameters:    Size  Location     Type
  7344 ;;  lcd             1   14[COMRAM] PTR const struct .
  7345 ;;		 -> lcd(6), 
  7346 ;;  data            1   15[COMRAM] unsigned char 
  7347 ;; Auto vars:     Size  Location     Type
  7348 ;;  ret             1   16[COMRAM] unsigned char 
  7349 ;; Return value:  Size  Location     Type
  7350 ;;                  1    wreg      unsigned char 
  7351 ;; Registers used:
  7352 ;;		wreg, fsr2l, fsr2h, status,2, status,0, prodl, prodh, cstack
  7353 ;; Tracked objects:
  7354 ;;		On entry : 0/0
  7355 ;;		On exit  : 0/0
  7356 ;;		Unchanged: 0/0
  7357 ;; Data sizes:     COMRAM   BANK0   BANK1   BANK2   BANK3   BANK4   BANK5   BANK6   BANK7   BANK8   BANK9  BANK10  BANK1
      +1  BANK12  BANK13  BANK14  BANK15
  7358 ;;      Params:         2       0       0       0       0       0       0       0       0       0       0       0       
      +0       0       0       0       0
  7359 ;;      Locals:         1       0       0       0       0       0       0       0       0       0       0       0       
      +0       0       0       0       0
  7360 ;;      Temps:          0       0       0       0       0       0       0       0       0       0       0       0       
      +0       0       0       0       0
  7361 ;;      Totals:         3       0       0       0       0       0       0       0       0       0       0       0       
      +0       0       0       0       0
  7362 ;;Total ram usage:        3 bytes
  7363 ;; Hardware stack levels used: 1
  7364 ;; Hardware stack levels required when called: 6
  7365 ;; This function calls:
  7366 ;;		_gpio_pin_write_logic
  7367 ;;		_send_4bits_data_command
  7368 ;;		_send_4bits_enable
  7369 ;; This function is called by:
  7370 ;;		_ecu_lcd_4_bits_send_char_data_pos
  7371 ;;		_ecu_lcd_4_bits_send_string_data_pos
  7372 ;;		_ecu_lcd_4_bits_send_string_data
  7373 ;;		_ecu_lcd_4_bits_send_custom_char_data_pos
  7374 ;; This function uses a non-reentrant model
  7375 ;;
  7376                           
  7377                           	psect	text27
  7378   00313A                     __ptext27:
  7379                           	callstack 0
  7380   00313A                     _ecu_lcd_4_bits_send_char_data:
  7381                           	callstack 22
  7382   00313A                     
  7383                           ;LCD/ecu_chr_lcd.c: 79:     if(((void*)0) == lcd){
  7384   00313A  500F               	movf	ecu_lcd_4_bits_send_char_data@lcd^0,w,c
  7385   00313C  A4D8               	btfss	status,2,c
  7386   00313E  EFA3  F018         	goto	u8351
  7387   003142  EFA5  F018         	goto	u8350
  7388   003146                     u8351:
  7389   003146  EFA9  F018         	goto	l10653
  7390   00314A                     u8350:
  7391   00314A                     
  7392                           ;LCD/ecu_chr_lcd.c: 80:         ret = (Std_ReturnType)0x01;
  7393   00314A  0E01               	movlw	1
  7394   00314C  6E11               	movwf	ecu_lcd_4_bits_send_char_data@ret^0,c
  7395                           
  7396                           ;LCD/ecu_chr_lcd.c: 81:     }
  7397   00314E  EFCA  F018         	goto	l10655
  7398   003152                     l10653:
  7399                           
  7400                           ;LCD/ecu_chr_lcd.c: 83:         ret=gpio_pin_write_logic(&(lcd->lcd_register_select),GPI
      +                          O_HIGH);
  7401   003152  500F               	movf	ecu_lcd_4_bits_send_char_data@lcd^0,w,c
  7402   003154  0F05               	addlw	5
  7403   003156  6E04               	movwf	gpio_pin_write_logic@_pin_config^0,c
  7404   003158  0E01               	movlw	1
  7405   00315A  6E05               	movwf	gpio_pin_write_logic@logic^0,c
  7406   00315C  ECCF  F012         	call	_gpio_pin_write_logic	;wreg free
  7407   003160  6E11               	movwf	ecu_lcd_4_bits_send_char_data@ret^0,c
  7408                           
  7409                           ;LCD/ecu_chr_lcd.c: 84:         ret = send_4bits_data_command(lcd,data>>4);
  7410   003162  C00F  F00C         	movff	ecu_lcd_4_bits_send_char_data@lcd,send_4bits_data_command@lcd
  7411   003166  3810               	swapf	ecu_lcd_4_bits_send_char_data@data^0,w,c
  7412   003168  0B0F               	andlw	15
  7413   00316A  6E0D               	movwf	send_4bits_data_command@data^0,c
  7414   00316C  ECFB  F018         	call	_send_4bits_data_command	;wreg free
  7415   003170  6E11               	movwf	ecu_lcd_4_bits_send_char_data@ret^0,c
  7416                           
  7417                           ;LCD/ecu_chr_lcd.c: 85:         ret=send_4bits_enable(lcd);
  7418   003172  C00F  F00C         	movff	ecu_lcd_4_bits_send_char_data@lcd,send_4bits_enable@lcd
  7419   003176  EC8F  F01A         	call	_send_4bits_enable	;wreg free
  7420   00317A  6E11               	movwf	ecu_lcd_4_bits_send_char_data@ret^0,c
  7421                           
  7422                           ;LCD/ecu_chr_lcd.c: 86:         ret = send_4bits_data_command(lcd,data);
  7423   00317C  C00F  F00C         	movff	ecu_lcd_4_bits_send_char_data@lcd,send_4bits_data_command@lcd
  7424   003180  C010  F00D         	movff	ecu_lcd_4_bits_send_char_data@data,send_4bits_data_command@data
  7425   003184  ECFB  F018         	call	_send_4bits_data_command	;wreg free
  7426   003188  6E11               	movwf	ecu_lcd_4_bits_send_char_data@ret^0,c
  7427                           
  7428                           ;LCD/ecu_chr_lcd.c: 87:         ret=send_4bits_enable(lcd);
  7429   00318A  C00F  F00C         	movff	ecu_lcd_4_bits_send_char_data@lcd,send_4bits_enable@lcd
  7430   00318E  EC8F  F01A         	call	_send_4bits_enable	;wreg free
  7431   003192  6E11               	movwf	ecu_lcd_4_bits_send_char_data@ret^0,c
  7432   003194                     l10655:
  7433                           
  7434                           ;LCD/ecu_chr_lcd.c: 89:     return ret;
  7435   003194  5011               	movf	ecu_lcd_4_bits_send_char_data@ret^0,w,c
  7436   003196  0012               	return		;funcret
  7437   003198                     __end_of_ecu_lcd_4_bits_send_char_data:
  7438                           	callstack 0
  7439                           
  7440 ;; *************** function ___lwdiv *****************
  7441 ;; Defined at:
  7442 ;;		line 7 in file "C:\Program Files\Microchip\xc8\v2.46\pic\sources\c99\common\lwdiv.c"
  7443 ;; Parameters:    Size  Location     Type
  7444 ;;  dividend        2    3[COMRAM] unsigned int 
  7445 ;;  divisor         2    5[COMRAM] unsigned int 
  7446 ;; Auto vars:     Size  Location     Type
  7447 ;;  quotient        2    8[COMRAM] unsigned int 
  7448 ;;  counter         1    7[COMRAM] unsigned char 
  7449 ;; Return value:  Size  Location     Type
  7450 ;;                  2    3[COMRAM] unsigned int 
  7451 ;; Registers used:
  7452 ;;		wreg, status,2, status,0
  7453 ;; Tracked objects:
  7454 ;;		On entry : 0/0
  7455 ;;		On exit  : 0/0
  7456 ;;		Unchanged: 0/0
  7457 ;; Data sizes:     COMRAM   BANK0   BANK1   BANK2   BANK3   BANK4   BANK5   BANK6   BANK7   BANK8   BANK9  BANK10  BANK1
      +1  BANK12  BANK13  BANK14  BANK15
  7458 ;;      Params:         4       0       0       0       0       0       0       0       0       0       0       0       
      +0       0       0       0       0
  7459 ;;      Locals:         3       0       0       0       0       0       0       0       0       0       0       0       
      +0       0       0       0       0
  7460 ;;      Temps:          0       0       0       0       0       0       0       0       0       0       0       0       
      +0       0       0       0       0
  7461 ;;      Totals:         7       0       0       0       0       0       0       0       0       0       0       0       
      +0       0       0       0       0
  7462 ;;Total ram usage:        7 bytes
  7463 ;; Hardware stack levels used: 1
  7464 ;; Hardware stack levels required when called: 4
  7465 ;; This function calls:
  7466 ;;		Nothing
  7467 ;; This function is called by:
  7468 ;;		_room_1
  7469 ;;		_room_2
  7470 ;;		_garage
  7471 ;; This function uses a non-reentrant model
  7472 ;;
  7473                           
  7474                           	psect	text28
  7475   002E5A                     __ptext28:
  7476                           	callstack 0
  7477   002E5A                     ___lwdiv:
  7478                           	callstack 25
  7479   002E5A  0E00               	movlw	0
  7480   002E5C  6E0A               	movwf	(___lwdiv@quotient+1)^0,c
  7481   002E5E  0E00               	movlw	0
  7482   002E60  6E09               	movwf	___lwdiv@quotient^0,c
  7483   002E62  5006               	movf	___lwdiv@divisor^0,w,c
  7484   002E64  1007               	iorwf	(___lwdiv@divisor+1)^0,w,c
  7485   002E66  B4D8               	btfsc	status,2,c
  7486   002E68  EF38  F017         	goto	u9091
  7487   002E6C  EF3A  F017         	goto	u9090
  7488   002E70                     u9091:
  7489   002E70  EF62  F017         	goto	l2654
  7490   002E74                     u9090:
  7491   002E74  0E01               	movlw	1
  7492   002E76  6E08               	movwf	___lwdiv@counter^0,c
  7493   002E78  EF42  F017         	goto	l11259
  7494   002E7C                     l11257:
  7495   002E7C  90D8               	bcf	status,0,c
  7496   002E7E  3606               	rlcf	___lwdiv@divisor^0,f,c
  7497   002E80  3607               	rlcf	(___lwdiv@divisor+1)^0,f,c
  7498   002E82  2A08               	incf	___lwdiv@counter^0,f,c
  7499   002E84                     l11259:
  7500   002E84  AE07               	btfss	(___lwdiv@divisor+1)^0,7,c
  7501   002E86  EF47  F017         	goto	u9101
  7502   002E8A  EF49  F017         	goto	u9100
  7503   002E8E                     u9101:
  7504   002E8E  EF3E  F017         	goto	l11257
  7505   002E92                     u9100:
  7506   002E92                     l11261:
  7507   002E92  90D8               	bcf	status,0,c
  7508   002E94  3609               	rlcf	___lwdiv@quotient^0,f,c
  7509   002E96  360A               	rlcf	(___lwdiv@quotient+1)^0,f,c
  7510   002E98  5006               	movf	___lwdiv@divisor^0,w,c
  7511   002E9A  5C04               	subwf	___lwdiv@dividend^0,w,c
  7512   002E9C  5007               	movf	(___lwdiv@divisor+1)^0,w,c
  7513   002E9E  5805               	subwfb	(___lwdiv@dividend+1)^0,w,c
  7514   002EA0  A0D8               	btfss	status,0,c
  7515   002EA2  EF55  F017         	goto	u9111
  7516   002EA6  EF57  F017         	goto	u9110
  7517   002EAA                     u9111:
  7518   002EAA  EF5C  F017         	goto	l11269
  7519   002EAE                     u9110:
  7520   002EAE  5006               	movf	___lwdiv@divisor^0,w,c
  7521   002EB0  5E04               	subwf	___lwdiv@dividend^0,f,c
  7522   002EB2  5007               	movf	(___lwdiv@divisor+1)^0,w,c
  7523   002EB4  5A05               	subwfb	(___lwdiv@dividend+1)^0,f,c
  7524   002EB6  8009               	bsf	___lwdiv@quotient^0,0,c
  7525   002EB8                     l11269:
  7526   002EB8  90D8               	bcf	status,0,c
  7527   002EBA  3207               	rrcf	(___lwdiv@divisor+1)^0,f,c
  7528   002EBC  3206               	rrcf	___lwdiv@divisor^0,f,c
  7529   002EBE  2E08               	decfsz	___lwdiv@counter^0,f,c
  7530   002EC0  EF49  F017         	goto	l11261
  7531   002EC4                     l2654:
  7532   002EC4  C009  F004         	movff	___lwdiv@quotient,?___lwdiv
  7533   002EC8  C00A  F005         	movff	___lwdiv@quotient+1,?___lwdiv+1
  7534   002ECC  0012               	return		;funcret
  7535   002ECE                     __end_of___lwdiv:
  7536                           	callstack 0
  7537                           
  7538 ;; *************** function ___flmul *****************
  7539 ;; Defined at:
  7540 ;;		line 8 in file "C:\Program Files\Microchip\xc8\v2.46\pic\sources\c99\common\sprcmul.c"
  7541 ;; Parameters:    Size  Location     Type
  7542 ;;  b               4   17[COMRAM] unsigned int 
  7543 ;;  a               4   21[COMRAM] unsigned int 
  7544 ;; Auto vars:     Size  Location     Type
  7545 ;;  prod            4   36[COMRAM] struct .
  7546 ;;  grs             4   31[COMRAM] unsigned long 
  7547 ;;  temp            2   40[COMRAM] struct .
  7548 ;;  bexp            1   35[COMRAM] unsigned char 
  7549 ;;  aexp            1   30[COMRAM] unsigned char 
  7550 ;;  sign            1   29[COMRAM] unsigned char 
  7551 ;; Return value:  Size  Location     Type
  7552 ;;                  4   17[COMRAM] unsigned char 
  7553 ;; Registers used:
  7554 ;;		wreg, status,2, status,0, prodl, prodh
  7555 ;; Tracked objects:
  7556 ;;		On entry : 0/0
  7557 ;;		On exit  : 0/0
  7558 ;;		Unchanged: 0/0
  7559 ;; Data sizes:     COMRAM   BANK0   BANK1   BANK2   BANK3   BANK4   BANK5   BANK6   BANK7   BANK8   BANK9  BANK10  BANK1
      +1  BANK12  BANK13  BANK14  BANK15
  7560 ;;      Params:         8       0       0       0       0       0       0       0       0       0       0       0       
      +0       0       0       0       0
  7561 ;;      Locals:        13       0       0       0       0       0       0       0       0       0       0       0       
      +0       0       0       0       0
  7562 ;;      Temps:          4       0       0       0       0       0       0       0       0       0       0       0       
      +0       0       0       0       0
  7563 ;;      Totals:        25       0       0       0       0       0       0       0       0       0       0       0       
      +0       0       0       0       0
  7564 ;;Total ram usage:       25 bytes
  7565 ;; Hardware stack levels used: 1
  7566 ;; Hardware stack levels required when called: 4
  7567 ;; This function calls:
  7568 ;;		Nothing
  7569 ;; This function is called by:
  7570 ;;		_room_1
  7571 ;;		_room_2
  7572 ;;		_garage
  7573 ;;		_mcal_ccp1_initialization
  7574 ;;		_mcal_ccp1_pwm_set_duty
  7575 ;; This function uses a non-reentrant model
  7576 ;;
  7577                           
  7578                           	psect	text29
  7579   000F66                     __ptext29:
  7580                           	callstack 0
  7581   000F66                     ___flmul:
  7582                           	callstack 25
  7583   000F66  5015               	movf	(___flmul@b+3)^0,w,c
  7584   000F68  0B80               	andlw	128
  7585   000F6A  6E1E               	movwf	___flmul@sign^0,c
  7586   000F6C  5015               	movf	(___flmul@b+3)^0,w,c
  7587   000F6E  2415               	addwf	(___flmul@b+3)^0,w,c
  7588   000F70  6E24               	movwf	___flmul@bexp^0,c
  7589   000F72  AE14               	btfss	(___flmul@b+2)^0,7,c
  7590   000F74  EFBE  F007         	goto	u8901
  7591   000F78  EFC0  F007         	goto	u8900
  7592   000F7C                     u8901:
  7593   000F7C  EFC1  F007         	goto	l11127
  7594   000F80                     u8900:
  7595   000F80  8024               	bsf	___flmul@bexp^0,0,c
  7596   000F82                     l11127:
  7597   000F82  5024               	movf	___flmul@bexp^0,w,c
  7598   000F84  B4D8               	btfsc	status,2,c
  7599   000F86  EFC7  F007         	goto	u8911
  7600   000F8A  EFC9  F007         	goto	u8910
  7601   000F8E                     u8911:
  7602   000F8E  EFDC  F007         	goto	l11135
  7603   000F92                     u8910:
  7604   000F92  2824               	incf	___flmul@bexp^0,w,c
  7605   000F94  A4D8               	btfss	status,2,c
  7606   000F96  EFCF  F007         	goto	u8921
  7607   000F9A  EFD1  F007         	goto	u8920
  7608   000F9E                     u8921:
  7609   000F9E  EFD9  F007         	goto	l11133
  7610   000FA2                     u8920:
  7611   000FA2  0E00               	movlw	0
  7612   000FA4  6E12               	movwf	___flmul@b^0,c
  7613   000FA6  0E00               	movlw	0
  7614   000FA8  6E13               	movwf	(___flmul@b+1)^0,c
  7615   000FAA  0E00               	movlw	0
  7616   000FAC  6E14               	movwf	(___flmul@b+2)^0,c
  7617   000FAE  0E00               	movlw	0
  7618   000FB0  6E15               	movwf	(___flmul@b+3)^0,c
  7619   000FB2                     l11133:
  7620   000FB2  8E14               	bsf	(___flmul@b+2)^0,7,c
  7621   000FB4  EFE4  F007         	goto	l11137
  7622   000FB8                     l11135:
  7623   000FB8  0E00               	movlw	0
  7624   000FBA  6E12               	movwf	___flmul@b^0,c
  7625   000FBC  0E00               	movlw	0
  7626   000FBE  6E13               	movwf	(___flmul@b+1)^0,c
  7627   000FC0  0E00               	movlw	0
  7628   000FC2  6E14               	movwf	(___flmul@b+2)^0,c
  7629   000FC4  0E00               	movlw	0
  7630   000FC6  6E15               	movwf	(___flmul@b+3)^0,c
  7631   000FC8                     l11137:
  7632   000FC8  5019               	movf	(___flmul@a+3)^0,w,c
  7633   000FCA  0B80               	andlw	128
  7634   000FCC  1A1E               	xorwf	___flmul@sign^0,f,c
  7635   000FCE  5019               	movf	(___flmul@a+3)^0,w,c
  7636   000FD0  2419               	addwf	(___flmul@a+3)^0,w,c
  7637   000FD2  6E1F               	movwf	___flmul@aexp^0,c
  7638   000FD4  AE18               	btfss	(___flmul@a+2)^0,7,c
  7639   000FD6  EFEF  F007         	goto	u8931
  7640   000FDA  EFF1  F007         	goto	u8930
  7641   000FDE                     u8931:
  7642   000FDE  EFF2  F007         	goto	l11145
  7643   000FE2                     u8930:
  7644   000FE2  801F               	bsf	___flmul@aexp^0,0,c
  7645   000FE4                     l11145:
  7646   000FE4  501F               	movf	___flmul@aexp^0,w,c
  7647   000FE6  B4D8               	btfsc	status,2,c
  7648   000FE8  EFF8  F007         	goto	u8941
  7649   000FEC  EFFA  F007         	goto	u8940
  7650   000FF0                     u8941:
  7651   000FF0  EF0D  F008         	goto	l11153
  7652   000FF4                     u8940:
  7653   000FF4  281F               	incf	___flmul@aexp^0,w,c
  7654   000FF6  A4D8               	btfss	status,2,c
  7655   000FF8  EF00  F008         	goto	u8951
  7656   000FFC  EF02  F008         	goto	u8950
  7657   001000                     u8951:
  7658   001000  EF0A  F008         	goto	l11151
  7659   001004                     u8950:
  7660   001004  0E00               	movlw	0
  7661   001006  6E16               	movwf	___flmul@a^0,c
  7662   001008  0E00               	movlw	0
  7663   00100A  6E17               	movwf	(___flmul@a+1)^0,c
  7664   00100C  0E00               	movlw	0
  7665   00100E  6E18               	movwf	(___flmul@a+2)^0,c
  7666   001010  0E00               	movlw	0
  7667   001012  6E19               	movwf	(___flmul@a+3)^0,c
  7668   001014                     l11151:
  7669   001014  8E18               	bsf	(___flmul@a+2)^0,7,c
  7670   001016  EF15  F008         	goto	l2777
  7671   00101A                     l11153:
  7672   00101A  0E00               	movlw	0
  7673   00101C  6E16               	movwf	___flmul@a^0,c
  7674   00101E  0E00               	movlw	0
  7675   001020  6E17               	movwf	(___flmul@a+1)^0,c
  7676   001022  0E00               	movlw	0
  7677   001024  6E18               	movwf	(___flmul@a+2)^0,c
  7678   001026  0E00               	movlw	0
  7679   001028  6E19               	movwf	(___flmul@a+3)^0,c
  7680   00102A                     l2777:
  7681   00102A  501F               	movf	___flmul@aexp^0,w,c
  7682   00102C  B4D8               	btfsc	status,2,c
  7683   00102E  EF1B  F008         	goto	u8961
  7684   001032  EF1D  F008         	goto	u8960
  7685   001036                     u8961:
  7686   001036  EF25  F008         	goto	l11157
  7687   00103A                     u8960:
  7688   00103A  5024               	movf	___flmul@bexp^0,w,c
  7689   00103C  A4D8               	btfss	status,2,c
  7690   00103E  EF23  F008         	goto	u8971
  7691   001042  EF25  F008         	goto	u8970
  7692   001046                     u8971:
  7693   001046  EF2F  F008         	goto	l11161
  7694   00104A                     u8970:
  7695   00104A                     l11157:
  7696   00104A  0E00               	movlw	0
  7697   00104C  6E12               	movwf	?___flmul^0,c
  7698   00104E  0E00               	movlw	0
  7699   001050  6E13               	movwf	(?___flmul+1)^0,c
  7700   001052  0E00               	movlw	0
  7701   001054  6E14               	movwf	(?___flmul+2)^0,c
  7702   001056  0E00               	movlw	0
  7703   001058  6E15               	movwf	(?___flmul+3)^0,c
  7704   00105A  EFC7  F009         	goto	l2781
  7705   00105E                     l11161:
  7706   00105E  5018               	movf	(___flmul@a+2)^0,w,c
  7707   001060  0212               	mulwf	___flmul@b^0,c
  7708   001062  CFF3 F029          	movff	prodl,___flmul@temp
  7709   001066  CFF4 F02A          	movff	prodh,___flmul@temp+1
  7710   00106A  5029               	movf	___flmul@temp^0,w,c
  7711   00106C  6E20               	movwf	___flmul@grs^0,c
  7712   00106E  6A21               	clrf	(___flmul@grs+1)^0,c
  7713   001070  6A22               	clrf	(___flmul@grs+2)^0,c
  7714   001072  6A23               	clrf	(___flmul@grs+3)^0,c
  7715   001074  502A               	movf	(___flmul@temp+1)^0,w,c
  7716   001076  6E25               	movwf	___flmul@prod^0,c
  7717   001078  6A26               	clrf	(___flmul@prod+1)^0,c
  7718   00107A  6A27               	clrf	(___flmul@prod+2)^0,c
  7719   00107C  6A28               	clrf	(___flmul@prod+3)^0,c
  7720   00107E  5017               	movf	(___flmul@a+1)^0,w,c
  7721   001080  0213               	mulwf	(___flmul@b+1)^0,c
  7722   001082  CFF3 F029          	movff	prodl,___flmul@temp
  7723   001086  CFF4 F02A          	movff	prodh,___flmul@temp+1
  7724   00108A  5029               	movf	___flmul@temp^0,w,c
  7725   00108C  2620               	addwf	___flmul@grs^0,f,c
  7726   00108E  0E00               	movlw	0
  7727   001090  2221               	addwfc	(___flmul@grs+1)^0,f,c
  7728   001092  2222               	addwfc	(___flmul@grs+2)^0,f,c
  7729   001094  2223               	addwfc	(___flmul@grs+3)^0,f,c
  7730   001096  502A               	movf	(___flmul@temp+1)^0,w,c
  7731   001098  2625               	addwf	___flmul@prod^0,f,c
  7732   00109A  0E00               	movlw	0
  7733   00109C  2226               	addwfc	(___flmul@prod+1)^0,f,c
  7734   00109E  2227               	addwfc	(___flmul@prod+2)^0,f,c
  7735   0010A0  2228               	addwfc	(___flmul@prod+3)^0,f,c
  7736   0010A2  5016               	movf	___flmul@a^0,w,c
  7737   0010A4  0214               	mulwf	(___flmul@b+2)^0,c
  7738   0010A6  CFF3 F029          	movff	prodl,___flmul@temp
  7739   0010AA  CFF4 F02A          	movff	prodh,___flmul@temp+1
  7740   0010AE  5029               	movf	___flmul@temp^0,w,c
  7741   0010B0  2620               	addwf	___flmul@grs^0,f,c
  7742   0010B2  0E00               	movlw	0
  7743   0010B4  2221               	addwfc	(___flmul@grs+1)^0,f,c
  7744   0010B6  2222               	addwfc	(___flmul@grs+2)^0,f,c
  7745   0010B8  2223               	addwfc	(___flmul@grs+3)^0,f,c
  7746   0010BA  502A               	movf	(___flmul@temp+1)^0,w,c
  7747   0010BC  2625               	addwf	___flmul@prod^0,f,c
  7748   0010BE  0E00               	movlw	0
  7749   0010C0  2226               	addwfc	(___flmul@prod+1)^0,f,c
  7750   0010C2  2227               	addwfc	(___flmul@prod+2)^0,f,c
  7751   0010C4  2228               	addwfc	(___flmul@prod+3)^0,f,c
  7752   0010C6  C022  F023         	movff	___flmul@grs+2,___flmul@grs+3
  7753   0010CA  C021  F022         	movff	___flmul@grs+1,___flmul@grs+2
  7754   0010CE  C020  F021         	movff	___flmul@grs,___flmul@grs+1
  7755   0010D2  6A20               	clrf	___flmul@grs^0,c
  7756   0010D4  5016               	movf	___flmul@a^0,w,c
  7757   0010D6  0213               	mulwf	(___flmul@b+1)^0,c
  7758   0010D8  CFF3 F029          	movff	prodl,___flmul@temp
  7759   0010DC  CFF4 F02A          	movff	prodh,___flmul@temp+1
  7760   0010E0  5029               	movf	___flmul@temp^0,w,c
  7761   0010E2  2620               	addwf	___flmul@grs^0,f,c
  7762   0010E4  502A               	movf	(___flmul@temp+1)^0,w,c
  7763   0010E6  2221               	addwfc	(___flmul@grs+1)^0,f,c
  7764   0010E8  0E00               	movlw	0
  7765   0010EA  2222               	addwfc	(___flmul@grs+2)^0,f,c
  7766   0010EC  0E00               	movlw	0
  7767   0010EE  2223               	addwfc	(___flmul@grs+3)^0,f,c
  7768   0010F0  5017               	movf	(___flmul@a+1)^0,w,c
  7769   0010F2  0212               	mulwf	___flmul@b^0,c
  7770   0010F4  CFF3 F029          	movff	prodl,___flmul@temp
  7771   0010F8  CFF4 F02A          	movff	prodh,___flmul@temp+1
  7772   0010FC  5029               	movf	___flmul@temp^0,w,c
  7773   0010FE  2620               	addwf	___flmul@grs^0,f,c
  7774   001100  502A               	movf	(___flmul@temp+1)^0,w,c
  7775   001102  2221               	addwfc	(___flmul@grs+1)^0,f,c
  7776   001104  0E00               	movlw	0
  7777   001106  2222               	addwfc	(___flmul@grs+2)^0,f,c
  7778   001108  0E00               	movlw	0
  7779   00110A  2223               	addwfc	(___flmul@grs+3)^0,f,c
  7780   00110C  C022  F023         	movff	___flmul@grs+2,___flmul@grs+3
  7781   001110  C021  F022         	movff	___flmul@grs+1,___flmul@grs+2
  7782   001114  C020  F021         	movff	___flmul@grs,___flmul@grs+1
  7783   001118  6A20               	clrf	___flmul@grs^0,c
  7784   00111A  5016               	movf	___flmul@a^0,w,c
  7785   00111C  0212               	mulwf	___flmul@b^0,c
  7786   00111E  CFF3 F029          	movff	prodl,___flmul@temp
  7787   001122  CFF4 F02A          	movff	prodh,___flmul@temp+1
  7788   001126  5029               	movf	___flmul@temp^0,w,c
  7789   001128  2620               	addwf	___flmul@grs^0,f,c
  7790   00112A  502A               	movf	(___flmul@temp+1)^0,w,c
  7791   00112C  2221               	addwfc	(___flmul@grs+1)^0,f,c
  7792   00112E  0E00               	movlw	0
  7793   001130  2222               	addwfc	(___flmul@grs+2)^0,f,c
  7794   001132  0E00               	movlw	0
  7795   001134  2223               	addwfc	(___flmul@grs+3)^0,f,c
  7796   001136  5018               	movf	(___flmul@a+2)^0,w,c
  7797   001138  0213               	mulwf	(___flmul@b+1)^0,c
  7798   00113A  CFF3 F029          	movff	prodl,___flmul@temp
  7799   00113E  CFF4 F02A          	movff	prodh,___flmul@temp+1
  7800   001142  5029               	movf	___flmul@temp^0,w,c
  7801   001144  2625               	addwf	___flmul@prod^0,f,c
  7802   001146  502A               	movf	(___flmul@temp+1)^0,w,c
  7803   001148  2226               	addwfc	(___flmul@prod+1)^0,f,c
  7804   00114A  0E00               	movlw	0
  7805   00114C  2227               	addwfc	(___flmul@prod+2)^0,f,c
  7806   00114E  0E00               	movlw	0
  7807   001150  2228               	addwfc	(___flmul@prod+3)^0,f,c
  7808   001152  5017               	movf	(___flmul@a+1)^0,w,c
  7809   001154  0214               	mulwf	(___flmul@b+2)^0,c
  7810   001156  CFF3 F029          	movff	prodl,___flmul@temp
  7811   00115A  CFF4 F02A          	movff	prodh,___flmul@temp+1
  7812   00115E  5029               	movf	___flmul@temp^0,w,c
  7813   001160  2625               	addwf	___flmul@prod^0,f,c
  7814   001162  502A               	movf	(___flmul@temp+1)^0,w,c
  7815   001164  2226               	addwfc	(___flmul@prod+1)^0,f,c
  7816   001166  0E00               	movlw	0
  7817   001168  2227               	addwfc	(___flmul@prod+2)^0,f,c
  7818   00116A  0E00               	movlw	0
  7819   00116C  2228               	addwfc	(___flmul@prod+3)^0,f,c
  7820   00116E  5018               	movf	(___flmul@a+2)^0,w,c
  7821   001170  0214               	mulwf	(___flmul@b+2)^0,c
  7822   001172  CFF3 F029          	movff	prodl,___flmul@temp
  7823   001176  CFF4 F02A          	movff	prodh,___flmul@temp+1
  7824   00117A  5029               	movf	___flmul@temp^0,w,c
  7825   00117C  6E1A               	movwf	??___flmul^0,c
  7826   00117E  502A               	movf	(___flmul@temp+1)^0,w,c
  7827   001180  6E1B               	movwf	(??___flmul+1)^0,c
  7828   001182  6A1C               	clrf	(??___flmul+2)^0,c
  7829   001184  6A1D               	clrf	(??___flmul+3)^0,c
  7830   001186  C01C  F01D         	movff	??___flmul+2,??___flmul+3
  7831   00118A  C01B  F01C         	movff	??___flmul+1,??___flmul+2
  7832   00118E  C01A  F01B         	movff	??___flmul,??___flmul+1
  7833   001192  6A1A               	clrf	??___flmul^0,c
  7834   001194  501A               	movf	??___flmul^0,w,c
  7835   001196  2625               	addwf	___flmul@prod^0,f,c
  7836   001198  501B               	movf	(??___flmul+1)^0,w,c
  7837   00119A  2226               	addwfc	(___flmul@prod+1)^0,f,c
  7838   00119C  501C               	movf	(??___flmul+2)^0,w,c
  7839   00119E  2227               	addwfc	(___flmul@prod+2)^0,f,c
  7840   0011A0  501D               	movf	(??___flmul+3)^0,w,c
  7841   0011A2  2228               	addwfc	(___flmul@prod+3)^0,f,c
  7842   0011A4  C020  F01A         	movff	___flmul@grs,??___flmul
  7843   0011A8  C021  F01B         	movff	___flmul@grs+1,??___flmul+1
  7844   0011AC  C022  F01C         	movff	___flmul@grs+2,??___flmul+2
  7845   0011B0  C023  F01D         	movff	___flmul@grs+3,??___flmul+3
  7846   0011B4  0E19               	movlw	25
  7847   0011B6  EFE2  F008         	goto	u8980
  7848   0011BA                     u8985:
  7849   0011BA  90D8               	bcf	status,0,c
  7850   0011BC  321D               	rrcf	(??___flmul+3)^0,f,c
  7851   0011BE  321C               	rrcf	(??___flmul+2)^0,f,c
  7852   0011C0  321B               	rrcf	(??___flmul+1)^0,f,c
  7853   0011C2  321A               	rrcf	??___flmul^0,f,c
  7854   0011C4                     u8980:
  7855   0011C4  2EE8               	decfsz	wreg,f,c
  7856   0011C6  EFDD  F008         	goto	u8985
  7857   0011CA  501A               	movf	??___flmul^0,w,c
  7858   0011CC  2625               	addwf	___flmul@prod^0,f,c
  7859   0011CE  501B               	movf	(??___flmul+1)^0,w,c
  7860   0011D0  2226               	addwfc	(___flmul@prod+1)^0,f,c
  7861   0011D2  501C               	movf	(??___flmul+2)^0,w,c
  7862   0011D4  2227               	addwfc	(___flmul@prod+2)^0,f,c
  7863   0011D6  501D               	movf	(??___flmul+3)^0,w,c
  7864   0011D8  2228               	addwfc	(___flmul@prod+3)^0,f,c
  7865   0011DA  C022  F023         	movff	___flmul@grs+2,___flmul@grs+3
  7866   0011DE  C021  F022         	movff	___flmul@grs+1,___flmul@grs+2
  7867   0011E2  C020  F021         	movff	___flmul@grs,___flmul@grs+1
  7868   0011E6  6A20               	clrf	___flmul@grs^0,c
  7869   0011E8  501F               	movf	___flmul@aexp^0,w,c
  7870   0011EA  C024  F01A         	movff	___flmul@bexp,??___flmul
  7871   0011EE  6A1B               	clrf	(??___flmul+1)^0,c
  7872   0011F0  261A               	addwf	??___flmul^0,f,c
  7873   0011F2  0E00               	movlw	0
  7874   0011F4  221B               	addwfc	(??___flmul+1)^0,f,c
  7875   0011F6  0E82               	movlw	130
  7876   0011F8  241A               	addwf	??___flmul^0,w,c
  7877   0011FA  6E29               	movwf	___flmul@temp^0,c
  7878   0011FC  0EFF               	movlw	255
  7879   0011FE  201B               	addwfc	(??___flmul+1)^0,w,c
  7880   001200  6E2A               	movwf	(___flmul@temp+1)^0,c
  7881   001202  EF18  F009         	goto	l11209
  7882   001206                     l11203:
  7883   001206  90D8               	bcf	status,0,c
  7884   001208  3625               	rlcf	___flmul@prod^0,f,c
  7885   00120A  3626               	rlcf	(___flmul@prod+1)^0,f,c
  7886   00120C  3627               	rlcf	(___flmul@prod+2)^0,f,c
  7887   00120E  3628               	rlcf	(___flmul@prod+3)^0,f,c
  7888   001210  AE23               	btfss	(___flmul@grs+3)^0,7,c
  7889   001212  EF0D  F009         	goto	u8991
  7890   001216  EF0F  F009         	goto	u8990
  7891   00121A                     u8991:
  7892   00121A  EF10  F009         	goto	l2784
  7893   00121E                     u8990:
  7894   00121E  8025               	bsf	___flmul@prod^0,0,c
  7895   001220                     l2784:
  7896   001220  90D8               	bcf	status,0,c
  7897   001222  3620               	rlcf	___flmul@grs^0,f,c
  7898   001224  3621               	rlcf	(___flmul@grs+1)^0,f,c
  7899   001226  3622               	rlcf	(___flmul@grs+2)^0,f,c
  7900   001228  3623               	rlcf	(___flmul@grs+3)^0,f,c
  7901   00122A  0629               	decf	___flmul@temp^0,f,c
  7902   00122C  A0D8               	btfss	status,0,c
  7903   00122E  062A               	decf	(___flmul@temp+1)^0,f,c
  7904   001230                     l11209:
  7905   001230  AE27               	btfss	(___flmul@prod+2)^0,7,c
  7906   001232  EF1D  F009         	goto	u9001
  7907   001236  EF1F  F009         	goto	u9000
  7908   00123A                     u9001:
  7909   00123A  EF03  F009         	goto	l11203
  7910   00123E                     u9000:
  7911   00123E  0E00               	movlw	0
  7912   001240  6E1F               	movwf	___flmul@aexp^0,c
  7913   001242  AE23               	btfss	(___flmul@grs+3)^0,7,c
  7914   001244  EF26  F009         	goto	u9011
  7915   001248  EF28  F009         	goto	u9010
  7916   00124C                     u9011:
  7917   00124C  EF4C  F009         	goto	l2786
  7918   001250                     u9010:
  7919   001250  0EFF               	movlw	255
  7920   001252  1420               	andwf	___flmul@grs^0,w,c
  7921   001254  6E1A               	movwf	??___flmul^0,c
  7922   001256  0EFF               	movlw	255
  7923   001258  1421               	andwf	(___flmul@grs+1)^0,w,c
  7924   00125A  6E1B               	movwf	(??___flmul+1)^0,c
  7925   00125C  0EFF               	movlw	255
  7926   00125E  1422               	andwf	(___flmul@grs+2)^0,w,c
  7927   001260  6E1C               	movwf	(??___flmul+2)^0,c
  7928   001262  0E7F               	movlw	127
  7929   001264  1423               	andwf	(___flmul@grs+3)^0,w,c
  7930   001266  6E1D               	movwf	(??___flmul+3)^0,c
  7931   001268  501A               	movf	??___flmul^0,w,c
  7932   00126A  101B               	iorwf	(??___flmul+1)^0,w,c
  7933   00126C  101C               	iorwf	(??___flmul+2)^0,w,c
  7934   00126E  101D               	iorwf	(??___flmul+3)^0,w,c
  7935   001270  B4D8               	btfsc	status,2,c
  7936   001272  EF3D  F009         	goto	u9021
  7937   001276  EF3F  F009         	goto	u9020
  7938   00127A                     u9021:
  7939   00127A  EF43  F009         	goto	l2787
  7940   00127E                     u9020:
  7941   00127E                     l11217:
  7942   00127E  0E01               	movlw	1
  7943   001280  6E1F               	movwf	___flmul@aexp^0,c
  7944   001282  EF4C  F009         	goto	l2786
  7945   001286                     l2787:
  7946   001286  A025               	btfss	___flmul@prod^0,0,c
  7947   001288  EF48  F009         	goto	u9031
  7948   00128C  EF4A  F009         	goto	u9030
  7949   001290                     u9031:
  7950   001290  EF4C  F009         	goto	l2786
  7951   001294                     u9030:
  7952   001294  EF3F  F009         	goto	l11217
  7953   001298                     l2786:
  7954   001298  501F               	movf	___flmul@aexp^0,w,c
  7955   00129A  B4D8               	btfsc	status,2,c
  7956   00129C  EF52  F009         	goto	u9041
  7957   0012A0  EF54  F009         	goto	u9040
  7958   0012A4                     u9041:
  7959   0012A4  EF78  F009         	goto	l11229
  7960   0012A8                     u9040:
  7961   0012A8  0E01               	movlw	1
  7962   0012AA  2625               	addwf	___flmul@prod^0,f,c
  7963   0012AC  0E00               	movlw	0
  7964   0012AE  2226               	addwfc	(___flmul@prod+1)^0,f,c
  7965   0012B0  2227               	addwfc	(___flmul@prod+2)^0,f,c
  7966   0012B2  2228               	addwfc	(___flmul@prod+3)^0,f,c
  7967   0012B4  A028               	btfss	(___flmul@prod+3)^0,0,c
  7968   0012B6  EF5F  F009         	goto	u9051
  7969   0012BA  EF61  F009         	goto	u9050
  7970   0012BE                     u9051:
  7971   0012BE  EF78  F009         	goto	l11229
  7972   0012C2                     u9050:
  7973   0012C2  C025  F01A         	movff	___flmul@prod,??___flmul
  7974   0012C6  C026  F01B         	movff	___flmul@prod+1,??___flmul+1
  7975   0012CA  C027  F01C         	movff	___flmul@prod+2,??___flmul+2
  7976   0012CE  C028  F01D         	movff	___flmul@prod+3,??___flmul+3
  7977   0012D2  341D               	rlcf	(??___flmul+3)^0,w,c
  7978   0012D4  321D               	rrcf	(??___flmul+3)^0,f,c
  7979   0012D6  321C               	rrcf	(??___flmul+2)^0,f,c
  7980   0012D8  321B               	rrcf	(??___flmul+1)^0,f,c
  7981   0012DA  321A               	rrcf	??___flmul^0,f,c
  7982   0012DC  C01A  F025         	movff	??___flmul,___flmul@prod
  7983   0012E0  C01B  F026         	movff	??___flmul+1,___flmul@prod+1
  7984   0012E4  C01C  F027         	movff	??___flmul+2,___flmul@prod+2
  7985   0012E8  C01D  F028         	movff	??___flmul+3,___flmul@prod+3
  7986   0012EC  4A29               	infsnz	___flmul@temp^0,f,c
  7987   0012EE  2A2A               	incf	(___flmul@temp+1)^0,f,c
  7988   0012F0                     l11229:
  7989   0012F0  BE2A               	btfsc	(___flmul@temp+1)^0,7,c
  7990   0012F2  EF83  F009         	goto	u9061
  7991   0012F6  502A               	movf	(___flmul@temp+1)^0,w,c
  7992   0012F8  E108               	bnz	u9060
  7993   0012FA  2829               	incf	___flmul@temp^0,w,c
  7994   0012FC  A0D8               	btfss	status,0,c
  7995   0012FE  EF83  F009         	goto	u9061
  7996   001302  EF85  F009         	goto	u9060
  7997   001306                     u9061:
  7998   001306  EF8F  F009         	goto	l11233
  7999   00130A                     u9060:
  8000   00130A  0E00               	movlw	0
  8001   00130C  6E25               	movwf	___flmul@prod^0,c
  8002   00130E  0E00               	movlw	0
  8003   001310  6E26               	movwf	(___flmul@prod+1)^0,c
  8004   001312  0E80               	movlw	128
  8005   001314  6E27               	movwf	(___flmul@prod+2)^0,c
  8006   001316  0E7F               	movlw	127
  8007   001318  6E28               	movwf	(___flmul@prod+3)^0,c
  8008   00131A  EFBD  F009         	goto	l11245
  8009   00131E                     l11233:
  8010   00131E  BE2A               	btfsc	(___flmul@temp+1)^0,7,c
  8011   001320  EF9C  F009         	goto	u9070
  8012   001324  502A               	movf	(___flmul@temp+1)^0,w,c
  8013   001326  E106               	bnz	u9071
  8014   001328  0429               	decf	___flmul@temp^0,w,c
  8015   00132A  B0D8               	btfsc	status,0,c
  8016   00132C  EF9A  F009         	goto	u9071
  8017   001330  EF9C  F009         	goto	u9070
  8018   001334                     u9071:
  8019   001334  EFA8  F009         	goto	l2794
  8020   001338                     u9070:
  8021   001338  0E00               	movlw	0
  8022   00133A  6E25               	movwf	___flmul@prod^0,c
  8023   00133C  0E00               	movlw	0
  8024   00133E  6E26               	movwf	(___flmul@prod+1)^0,c
  8025   001340  0E00               	movlw	0
  8026   001342  6E27               	movwf	(___flmul@prod+2)^0,c
  8027   001344  0E00               	movlw	0
  8028   001346  6E28               	movwf	(___flmul@prod+3)^0,c
  8029   001348  0E00               	movlw	0
  8030   00134A  6E1E               	movwf	___flmul@sign^0,c
  8031   00134C  EFBD  F009         	goto	l11245
  8032   001350                     l2794:
  8033   001350  C029  F024         	movff	___flmul@temp,___flmul@bexp
  8034   001354  0EFF               	movlw	255
  8035   001356  1625               	andwf	___flmul@prod^0,f,c
  8036   001358  0EFF               	movlw	255
  8037   00135A  1626               	andwf	(___flmul@prod+1)^0,f,c
  8038   00135C  0E7F               	movlw	127
  8039   00135E  1627               	andwf	(___flmul@prod+2)^0,f,c
  8040   001360  0E00               	movlw	0
  8041   001362  1628               	andwf	(___flmul@prod+3)^0,f,c
  8042   001364  A024               	btfss	___flmul@bexp^0,0,c
  8043   001366  EFB7  F009         	goto	u9081
  8044   00136A  EFB9  F009         	goto	u9080
  8045   00136E                     u9081:
  8046   00136E  EFBA  F009         	goto	l11243
  8047   001372                     u9080:
  8048   001372  8E27               	bsf	(___flmul@prod+2)^0,7,c
  8049   001374                     l11243:
  8050   001374  90D8               	bcf	status,0,c
  8051   001376  3024               	rrcf	___flmul@bexp^0,w,c
  8052   001378  6E28               	movwf	(___flmul@prod+3)^0,c
  8053   00137A                     l11245:
  8054   00137A  501E               	movf	___flmul@sign^0,w,c
  8055   00137C  1228               	iorwf	(___flmul@prod+3)^0,f,c
  8056   00137E  C025  F012         	movff	___flmul@prod,?___flmul
  8057   001382  C026  F013         	movff	___flmul@prod+1,?___flmul+1
  8058   001386  C027  F014         	movff	___flmul@prod+2,?___flmul+2
  8059   00138A  C028  F015         	movff	___flmul@prod+3,?___flmul+3
  8060   00138E                     l2781:
  8061   00138E  0012               	return		;funcret
  8062   001390                     __end_of___flmul:
  8063                           	callstack 0
  8064                           
  8065 ;; *************** function _MSSP_I2C_Send_1_Byte *****************
  8066 ;; Defined at:
  8067 ;;		line 58 in file "main.c"
  8068 ;; Parameters:    Size  Location     Type
  8069 ;;  slave_add       1    wreg     unsigned char 
  8070 ;;  _data           1    8[COMRAM] unsigned char 
  8071 ;; Auto vars:     Size  Location     Type
  8072 ;;  slave_add       1   11[COMRAM] unsigned char 
  8073 ;;  ret             1    0        unsigned char 
  8074 ;; Return value:  Size  Location     Type
  8075 ;;                  1    wreg      void 
  8076 ;; Registers used:
  8077 ;;		wreg, fsr2l, fsr2h, status,2, status,0, cstack
  8078 ;; Tracked objects:
  8079 ;;		On entry : 0/0
  8080 ;;		On exit  : 0/0
  8081 ;;		Unchanged: 0/0
  8082 ;; Data sizes:     COMRAM   BANK0   BANK1   BANK2   BANK3   BANK4   BANK5   BANK6   BANK7   BANK8   BANK9  BANK10  BANK1
      +1  BANK12  BANK13  BANK14  BANK15
  8083 ;;      Params:         1       0       0       0       0       0       0       0       0       0       0       0       
      +0       0       0       0       0
  8084 ;;      Locals:         1       0       0       0       0       0       0       0       0       0       0       0       
      +0       0       0       0       0
  8085 ;;      Temps:          2       0       0       0       0       0       0       0       0       0       0       0       
      +0       0       0       0       0
  8086 ;;      Totals:         4       0       0       0       0       0       0       0       0       0       0       0       
      +0       0       0       0       0
  8087 ;;Total ram usage:        4 bytes
  8088 ;; Hardware stack levels used: 1
  8089 ;; Hardware stack levels required when called: 5
  8090 ;; This function calls:
  8091 ;;		_MSSP_I2C_Master_Send_Start
  8092 ;;		_MSSP_I2C_Master_Send_Stop
  8093 ;;		_MSSP_I2C_Master_Write_Blocking
  8094 ;; This function is called by:
  8095 ;;		_main
  8096 ;;		_room_2
  8097 ;;		_garage
  8098 ;;		_fire_check
  8099 ;; This function uses a non-reentrant model
  8100 ;;
  8101                           
  8102                           	psect	text30
  8103   002D56                     __ptext30:
  8104                           	callstack 0
  8105   002D56                     _MSSP_I2C_Send_1_Byte:
  8106                           	callstack 24
  8107                           
  8108                           ;incstack = 0
  8109                           ;MSSP_I2C_Send_1_Byte@slave_add stored from wreg
  8110   002D56  6E0C               	movwf	MSSP_I2C_Send_1_Byte@slave_add^0,c
  8111   002D58  0ED0               	movlw	low _i2c_obj
  8112   002D5A  6E04               	movwf	MSSP_I2C_Master_Send_Start@i2c_obj^0,c
  8113   002D5C  EC83  F019         	call	_MSSP_I2C_Master_Send_Start	;wreg free
  8114   002D60  0E02               	movlw	2
  8115   002D62  6E0B               	movwf	(??_MSSP_I2C_Send_1_Byte+1)^0,c
  8116   002D64  0EE1               	movlw	225
  8117   002D66  6E0A               	movwf	??_MSSP_I2C_Send_1_Byte^0,c
  8118   002D68  0E82               	movlw	130
  8119   002D6A                     u10787:
  8120   002D6A  2EE8               	decfsz	wreg,f,c
  8121   002D6C  D7FE               	bra	u10787
  8122   002D6E  2E0A               	decfsz	??_MSSP_I2C_Send_1_Byte^0,f,c
  8123   002D70  D7FC               	bra	u10787
  8124   002D72  2E0B               	decfsz	(??_MSSP_I2C_Send_1_Byte+1)^0,f,c
  8125   002D74  D7FA               	bra	u10787
  8126   002D76  0ED0               	movlw	low _i2c_obj
  8127   002D78  6E04               	movwf	MSSP_I2C_Master_Write_Blocking@i2c_obj^0,c
  8128   002D7A  C00C  F005         	movff	MSSP_I2C_Send_1_Byte@slave_add,MSSP_I2C_Master_Write_Blocking@i2c_data
  8129   002D7E  0E53               	movlw	low _slave_ack
  8130   002D80  6E06               	movwf	MSSP_I2C_Master_Write_Blocking@_ack^0,c
  8131   002D82  EC07  F018         	call	_MSSP_I2C_Master_Write_Blocking	;wreg free
  8132   002D86  0E02               	movlw	2
  8133   002D88  6E0B               	movwf	(??_MSSP_I2C_Send_1_Byte+1)^0,c
  8134   002D8A  0EE1               	movlw	225
  8135   002D8C  6E0A               	movwf	??_MSSP_I2C_Send_1_Byte^0,c
  8136   002D8E  0E82               	movlw	130
  8137   002D90                     u10797:
  8138   002D90  2EE8               	decfsz	wreg,f,c
  8139   002D92  D7FE               	bra	u10797
  8140   002D94  2E0A               	decfsz	??_MSSP_I2C_Send_1_Byte^0,f,c
  8141   002D96  D7FC               	bra	u10797
  8142   002D98  2E0B               	decfsz	(??_MSSP_I2C_Send_1_Byte+1)^0,f,c
  8143   002D9A  D7FA               	bra	u10797
  8144   002D9C  0ED0               	movlw	low _i2c_obj
  8145   002D9E  6E04               	movwf	MSSP_I2C_Master_Write_Blocking@i2c_obj^0,c
  8146   002DA0  C009  F005         	movff	MSSP_I2C_Send_1_Byte@_data,MSSP_I2C_Master_Write_Blocking@i2c_data
  8147   002DA4  0E53               	movlw	low _slave_ack
  8148   002DA6  6E06               	movwf	MSSP_I2C_Master_Write_Blocking@_ack^0,c
  8149   002DA8  EC07  F018         	call	_MSSP_I2C_Master_Write_Blocking	;wreg free
  8150   002DAC  0E02               	movlw	2
  8151   002DAE  6E0B               	movwf	(??_MSSP_I2C_Send_1_Byte+1)^0,c
  8152   002DB0  0EE1               	movlw	225
  8153   002DB2  6E0A               	movwf	??_MSSP_I2C_Send_1_Byte^0,c
  8154   002DB4  0E82               	movlw	130
  8155   002DB6                     u10807:
  8156   002DB6  2EE8               	decfsz	wreg,f,c
  8157   002DB8  D7FE               	bra	u10807
  8158   002DBA  2E0A               	decfsz	??_MSSP_I2C_Send_1_Byte^0,f,c
  8159   002DBC  D7FC               	bra	u10807
  8160   002DBE  2E0B               	decfsz	(??_MSSP_I2C_Send_1_Byte+1)^0,f,c
  8161   002DC0  D7FA               	bra	u10807
  8162   002DC2  0ED0               	movlw	low _i2c_obj
  8163   002DC4  6E04               	movwf	MSSP_I2C_Master_Send_Stop@i2c_obj^0,c
  8164   002DC6  EC63  F019         	call	_MSSP_I2C_Master_Send_Stop	;wreg free
  8165   002DCA  0E02               	movlw	2
  8166   002DCC  6E0B               	movwf	(??_MSSP_I2C_Send_1_Byte+1)^0,c
  8167   002DCE  0EE1               	movlw	225
  8168   002DD0  6E0A               	movwf	??_MSSP_I2C_Send_1_Byte^0,c
  8169   002DD2  0E82               	movlw	130
  8170   002DD4                     u10817:
  8171   002DD4  2EE8               	decfsz	wreg,f,c
  8172   002DD6  D7FE               	bra	u10817
  8173   002DD8  2E0A               	decfsz	??_MSSP_I2C_Send_1_Byte^0,f,c
  8174   002DDA  D7FC               	bra	u10817
  8175   002DDC  2E0B               	decfsz	(??_MSSP_I2C_Send_1_Byte+1)^0,f,c
  8176   002DDE  D7FA               	bra	u10817
  8177   002DE0  0012               	return		;funcret
  8178   002DE2                     __end_of_MSSP_I2C_Send_1_Byte:
  8179                           	callstack 0
  8180                           
  8181 ;; *************** function _MSSP_I2C_Master_Write_Blocking *****************
  8182 ;; Defined at:
  8183 ;;		line 166 in file "I2C/I2C.c"
  8184 ;; Parameters:    Size  Location     Type
  8185 ;;  i2c_obj         1    3[COMRAM] PTR const struct .
  8186 ;;		 -> i2c_obj(7), 
  8187 ;;  i2c_data        1    4[COMRAM] unsigned char 
  8188 ;;  _ack            1    5[COMRAM] PTR unsigned char 
  8189 ;;		 -> slave_ack(1), 
  8190 ;; Auto vars:     Size  Location     Type
  8191 ;;  ret             1    7[COMRAM] unsigned char 
  8192 ;; Return value:  Size  Location     Type
  8193 ;;                  1    wreg      unsigned char 
  8194 ;; Registers used:
  8195 ;;		wreg, fsr2l, fsr2h, status,2
  8196 ;; Tracked objects:
  8197 ;;		On entry : 0/0
  8198 ;;		On exit  : 0/0
  8199 ;;		Unchanged: 0/0
  8200 ;; Data sizes:     COMRAM   BANK0   BANK1   BANK2   BANK3   BANK4   BANK5   BANK6   BANK7   BANK8   BANK9  BANK10  BANK1
      +1  BANK12  BANK13  BANK14  BANK15
  8201 ;;      Params:         3       0       0       0       0       0       0       0       0       0       0       0       
      +0       0       0       0       0
  8202 ;;      Locals:         1       0       0       0       0       0       0       0       0       0       0       0       
      +0       0       0       0       0
  8203 ;;      Temps:          1       0       0       0       0       0       0       0       0       0       0       0       
      +0       0       0       0       0
  8204 ;;      Totals:         5       0       0       0       0       0       0       0       0       0       0       0       
      +0       0       0       0       0
  8205 ;;Total ram usage:        5 bytes
  8206 ;; Hardware stack levels used: 1
  8207 ;; Hardware stack levels required when called: 4
  8208 ;; This function calls:
  8209 ;;		Nothing
  8210 ;; This function is called by:
  8211 ;;		_MSSP_I2C_Send_1_Byte
  8212 ;; This function uses a non-reentrant model
  8213 ;;
  8214                           
  8215                           	psect	text31
  8216   00300E                     __ptext31:
  8217                           	callstack 0
  8218   00300E                     _MSSP_I2C_Master_Write_Blocking:
  8219                           	callstack 24
  8220   00300E                     
  8221                           ;I2C/I2C.c: 168:     if((((void*)0) == i2c_obj) || (((void*)0) == _ack)){
  8222   00300E  5004               	movf	MSSP_I2C_Master_Write_Blocking@i2c_obj^0,w,c
  8223   003010  B4D8               	btfsc	status,2,c
  8224   003012  EF0D  F018         	goto	u8321
  8225   003016  EF0F  F018         	goto	u8320
  8226   00301A                     u8321:
  8227   00301A  EF17  F018         	goto	l10631
  8228   00301E                     u8320:
  8229   00301E  5006               	movf	MSSP_I2C_Master_Write_Blocking@_ack^0,w,c
  8230   003020  A4D8               	btfss	status,2,c
  8231   003022  EF15  F018         	goto	u8331
  8232   003026  EF17  F018         	goto	u8330
  8233   00302A                     u8331:
  8234   00302A  EF1B  F018         	goto	l296
  8235   00302E                     u8330:
  8236   00302E                     l10631:
  8237                           
  8238                           ;I2C/I2C.c: 169:         ret = (Std_ReturnType)0x01;
  8239   00302E  0E01               	movlw	1
  8240   003030  6E08               	movwf	MSSP_I2C_Master_Write_Blocking@ret^0,c
  8241                           
  8242                           ;I2C/I2C.c: 170:     }
  8243   003032  EF39  F018         	goto	l10645
  8244   003036                     l296:
  8245                           
  8246                           ;I2C/I2C.c: 173:         SSPBUF = i2c_data;
  8247   003036  C005  FFC9         	movff	MSSP_I2C_Master_Write_Blocking@i2c_data,4041	;volatile
  8248   00303A                     
  8249                           ;I2C/I2C.c: 176:         _delay((unsigned long)((5)*(8000000/4000.0)));
  8250   00303A  0E0D               	movlw	13
  8251   00303C  6E07               	movwf	??_MSSP_I2C_Master_Write_Blocking^0,c
  8252   00303E  0EFC               	movlw	252
  8253   003040                     u10827:
  8254   003040  2EE8               	decfsz	wreg,f,c
  8255   003042  D7FE               	bra	u10827
  8256   003044  2E07               	decfsz	??_MSSP_I2C_Master_Write_Blocking^0,f,c
  8257   003046  D7FC               	bra	u10827
  8258   003048                     
  8259                           ;I2C/I2C.c: 178:         PIR1bits.SSPIF = 0;
  8260   003048  969E               	bcf	158,3,c	;volatile
  8261   00304A                     
  8262                           ;I2C/I2C.c: 180:         if(0 == SSPCON2bits.ACKSTAT){
  8263   00304A  BCC5               	btfsc	197,6,c	;volatile
  8264   00304C  EF2A  F018         	goto	u8341
  8265   003050  EF2C  F018         	goto	u8340
  8266   003054                     u8341:
  8267   003054  EF32  F018         	goto	l10641
  8268   003058                     u8340:
  8269   003058                     
  8270                           ;I2C/I2C.c: 181:             *_ack = 0;
  8271   003058  5006               	movf	MSSP_I2C_Master_Write_Blocking@_ack^0,w,c
  8272   00305A  6ED9               	movwf	fsr2l,c
  8273   00305C  6ADA               	clrf	fsr2h,c
  8274   00305E  6ADF               	clrf	indf2,c
  8275                           
  8276                           ;I2C/I2C.c: 182:         }
  8277   003060  EF37  F018         	goto	l10643
  8278   003064                     l10641:
  8279                           
  8280                           ;I2C/I2C.c: 184:             *_ack = 1;
  8281   003064  5006               	movf	MSSP_I2C_Master_Write_Blocking@_ack^0,w,c
  8282   003066  6ED9               	movwf	fsr2l,c
  8283   003068  6ADA               	clrf	fsr2h,c
  8284   00306A  0E01               	movlw	1
  8285   00306C  6EDF               	movwf	indf2,c
  8286   00306E                     l10643:
  8287                           
  8288                           ;I2C/I2C.c: 186:         ret = (Std_ReturnType)0x00;
  8289   00306E  0E00               	movlw	0
  8290   003070  6E08               	movwf	MSSP_I2C_Master_Write_Blocking@ret^0,c
  8291   003072                     l10645:
  8292                           
  8293                           ;I2C/I2C.c: 188:     return ret;
  8294   003072  5008               	movf	MSSP_I2C_Master_Write_Blocking@ret^0,w,c
  8295   003074  0012               	return		;funcret
  8296   003076                     __end_of_MSSP_I2C_Master_Write_Blocking:
  8297                           	callstack 0
  8298                           
  8299 ;; *************** function _MSSP_I2C_Master_Send_Stop *****************
  8300 ;; Defined at:
  8301 ;;		line 143 in file "I2C/I2C.c"
  8302 ;; Parameters:    Size  Location     Type
  8303 ;;  i2c_obj         1    3[COMRAM] PTR const struct .
  8304 ;;		 -> i2c_obj(7), 
  8305 ;; Auto vars:     Size  Location     Type
  8306 ;;  ret             1    4[COMRAM] unsigned char 
  8307 ;; Return value:  Size  Location     Type
  8308 ;;                  1    wreg      unsigned char 
  8309 ;; Registers used:
  8310 ;;		wreg, status,2
  8311 ;; Tracked objects:
  8312 ;;		On entry : 0/0
  8313 ;;		On exit  : 0/0
  8314 ;;		Unchanged: 0/0
  8315 ;; Data sizes:     COMRAM   BANK0   BANK1   BANK2   BANK3   BANK4   BANK5   BANK6   BANK7   BANK8   BANK9  BANK10  BANK1
      +1  BANK12  BANK13  BANK14  BANK15
  8316 ;;      Params:         1       0       0       0       0       0       0       0       0       0       0       0       
      +0       0       0       0       0
  8317 ;;      Locals:         1       0       0       0       0       0       0       0       0       0       0       0       
      +0       0       0       0       0
  8318 ;;      Temps:          0       0       0       0       0       0       0       0       0       0       0       0       
      +0       0       0       0       0
  8319 ;;      Totals:         2       0       0       0       0       0       0       0       0       0       0       0       
      +0       0       0       0       0
  8320 ;;Total ram usage:        2 bytes
  8321 ;; Hardware stack levels used: 1
  8322 ;; Hardware stack levels required when called: 4
  8323 ;; This function calls:
  8324 ;;		Nothing
  8325 ;; This function is called by:
  8326 ;;		_MSSP_I2C_Send_1_Byte
  8327 ;; This function uses a non-reentrant model
  8328 ;;
  8329                           
  8330                           	psect	text32
  8331   0032C6                     __ptext32:
  8332                           	callstack 0
  8333   0032C6                     _MSSP_I2C_Master_Send_Stop:
  8334                           	callstack 24
  8335   0032C6                     
  8336                           ;I2C/I2C.c: 145:     if(((void*)0) == i2c_obj){
  8337   0032C6  5004               	movf	MSSP_I2C_Master_Send_Stop@i2c_obj^0,w,c
  8338   0032C8  A4D8               	btfss	status,2,c
  8339   0032CA  EF69  F019         	goto	u8291
  8340   0032CE  EF6B  F019         	goto	u8290
  8341   0032D2                     u8291:
  8342   0032D2  EF6F  F019         	goto	l286
  8343   0032D6                     u8290:
  8344   0032D6                     l10619:
  8345                           
  8346                           ;I2C/I2C.c: 146:         ret = (Std_ReturnType)0x01;
  8347   0032D6  0E01               	movlw	1
  8348   0032D8  6E05               	movwf	MSSP_I2C_Master_Send_Stop@ret^0,c
  8349                           
  8350                           ;I2C/I2C.c: 147:     }
  8351   0032DA  EF81  F019         	goto	l287
  8352   0032DE                     l286:
  8353                           
  8354                           ;I2C/I2C.c: 150:         SSPCON2bits.PEN = 1;
  8355   0032DE  84C5               	bsf	197,2,c	;volatile
  8356   0032E0                     l288:
  8357   0032E0  B4C5               	btfsc	197,2,c	;volatile
  8358   0032E2  EF75  F019         	goto	u8301
  8359   0032E6  EF77  F019         	goto	u8300
  8360   0032EA                     u8301:
  8361   0032EA  EF70  F019         	goto	l288
  8362   0032EE                     u8300:
  8363   0032EE                     
  8364                           ;I2C/I2C.c: 154:         PIR1bits.SSPIF = 0;
  8365   0032EE  969E               	bcf	158,3,c	;volatile
  8366                           
  8367                           ;I2C/I2C.c: 156:         if(1 == SSPSTATbits.P){
  8368   0032F0  A8C7               	btfss	199,4,c	;volatile
  8369   0032F2  EF7D  F019         	goto	u8311
  8370   0032F6  EF7F  F019         	goto	u8310
  8371   0032FA                     u8311:
  8372   0032FA  EF6B  F019         	goto	l10619
  8373   0032FE                     u8310:
  8374   0032FE                     
  8375                           ;I2C/I2C.c: 157:             ret = (Std_ReturnType)0x00;
  8376   0032FE  0E00               	movlw	0
  8377   003300  6E05               	movwf	MSSP_I2C_Master_Send_Stop@ret^0,c
  8378   003302                     l287:
  8379                           
  8380                           ;I2C/I2C.c: 163:     return ret;
  8381   003302  5005               	movf	MSSP_I2C_Master_Send_Stop@ret^0,w,c
  8382   003304  0012               	return		;funcret
  8383   003306                     __end_of_MSSP_I2C_Master_Send_Stop:
  8384                           	callstack 0
  8385                           
  8386 ;; *************** function _MSSP_I2C_Master_Send_Start *****************
  8387 ;; Defined at:
  8388 ;;		line 103 in file "I2C/I2C.c"
  8389 ;; Parameters:    Size  Location     Type
  8390 ;;  i2c_obj         1    3[COMRAM] PTR const struct .
  8391 ;;		 -> i2c_obj(7), 
  8392 ;; Auto vars:     Size  Location     Type
  8393 ;;  ret             1    4[COMRAM] unsigned char 
  8394 ;; Return value:  Size  Location     Type
  8395 ;;                  1    wreg      unsigned char 
  8396 ;; Registers used:
  8397 ;;		wreg, status,2
  8398 ;; Tracked objects:
  8399 ;;		On entry : 0/0
  8400 ;;		On exit  : 0/0
  8401 ;;		Unchanged: 0/0
  8402 ;; Data sizes:     COMRAM   BANK0   BANK1   BANK2   BANK3   BANK4   BANK5   BANK6   BANK7   BANK8   BANK9  BANK10  BANK1
      +1  BANK12  BANK13  BANK14  BANK15
  8403 ;;      Params:         1       0       0       0       0       0       0       0       0       0       0       0       
      +0       0       0       0       0
  8404 ;;      Locals:         1       0       0       0       0       0       0       0       0       0       0       0       
      +0       0       0       0       0
  8405 ;;      Temps:          0       0       0       0       0       0       0       0       0       0       0       0       
      +0       0       0       0       0
  8406 ;;      Totals:         2       0       0       0       0       0       0       0       0       0       0       0       
      +0       0       0       0       0
  8407 ;;Total ram usage:        2 bytes
  8408 ;; Hardware stack levels used: 1
  8409 ;; Hardware stack levels required when called: 4
  8410 ;; This function calls:
  8411 ;;		Nothing
  8412 ;; This function is called by:
  8413 ;;		_MSSP_I2C_Send_1_Byte
  8414 ;; This function uses a non-reentrant model
  8415 ;;
  8416                           
  8417                           	psect	text33
  8418   003306                     __ptext33:
  8419                           	callstack 0
  8420   003306                     _MSSP_I2C_Master_Send_Start:
  8421                           	callstack 24
  8422   003306                     
  8423                           ;I2C/I2C.c: 105:     if(((void*)0) == i2c_obj){
  8424   003306  5004               	movf	MSSP_I2C_Master_Send_Start@i2c_obj^0,w,c
  8425   003308  A4D8               	btfss	status,2,c
  8426   00330A  EF89  F019         	goto	u8261
  8427   00330E  EF8B  F019         	goto	u8260
  8428   003312                     u8261:
  8429   003312  EF8F  F019         	goto	l268
  8430   003316                     u8260:
  8431   003316                     l10609:
  8432                           
  8433                           ;I2C/I2C.c: 106:         ret = (Std_ReturnType)0x01;
  8434   003316  0E01               	movlw	1
  8435   003318  6E05               	movwf	MSSP_I2C_Master_Send_Start@ret^0,c
  8436                           
  8437                           ;I2C/I2C.c: 107:     }
  8438   00331A  EFA1  F019         	goto	l269
  8439   00331E                     l268:
  8440                           
  8441                           ;I2C/I2C.c: 110:         SSPCON2bits.SEN = 1;
  8442   00331E  80C5               	bsf	197,0,c	;volatile
  8443   003320                     l270:
  8444   003320  B0C5               	btfsc	197,0,c	;volatile
  8445   003322  EF95  F019         	goto	u8271
  8446   003326  EF97  F019         	goto	u8270
  8447   00332A                     u8271:
  8448   00332A  EF90  F019         	goto	l270
  8449   00332E                     u8270:
  8450   00332E                     
  8451                           ;I2C/I2C.c: 114:         PIR1bits.SSPIF = 0;
  8452   00332E  969E               	bcf	158,3,c	;volatile
  8453                           
  8454                           ;I2C/I2C.c: 116:         if(1 == SSPSTATbits.S){
  8455   003330  A6C7               	btfss	199,3,c	;volatile
  8456   003332  EF9D  F019         	goto	u8281
  8457   003336  EF9F  F019         	goto	u8280
  8458   00333A                     u8281:
  8459   00333A  EF8B  F019         	goto	l10609
  8460   00333E                     u8280:
  8461   00333E                     
  8462                           ;I2C/I2C.c: 117:             ret = (Std_ReturnType)0x00;
  8463   00333E  0E00               	movlw	0
  8464   003340  6E05               	movwf	MSSP_I2C_Master_Send_Start@ret^0,c
  8465   003342                     l269:
  8466                           
  8467                           ;I2C/I2C.c: 123:     return ret;
  8468   003342  5005               	movf	MSSP_I2C_Master_Send_Start@ret^0,w,c
  8469   003344  0012               	return		;funcret
  8470   003346                     __end_of_MSSP_I2C_Master_Send_Start:
  8471                           	callstack 0
  8472                           
  8473 ;; *************** function _EUSART_Read *****************
  8474 ;; Defined at:
  8475 ;;		line 113 in file "mcc_generated_files/eusart.c"
  8476 ;; Parameters:    Size  Location     Type
  8477 ;;		None
  8478 ;; Auto vars:     Size  Location     Type
  8479 ;;		None
  8480 ;; Return value:  Size  Location     Type
  8481 ;;                  1    wreg      unsigned char 
  8482 ;; Registers used:
  8483 ;;		wreg, status,2
  8484 ;; Tracked objects:
  8485 ;;		On entry : 0/0
  8486 ;;		On exit  : 0/0
  8487 ;;		Unchanged: 0/0
  8488 ;; Data sizes:     COMRAM   BANK0   BANK1   BANK2   BANK3   BANK4   BANK5   BANK6   BANK7   BANK8   BANK9  BANK10  BANK1
      +1  BANK12  BANK13  BANK14  BANK15
  8489 ;;      Params:         0       0       0       0       0       0       0       0       0       0       0       0       
      +0       0       0       0       0
  8490 ;;      Locals:         0       0       0       0       0       0       0       0       0       0       0       0       
      +0       0       0       0       0
  8491 ;;      Temps:          0       0       0       0       0       0       0       0       0       0       0       0       
      +0       0       0       0       0
  8492 ;;      Totals:         0       0       0       0       0       0       0       0       0       0       0       0       
      +0       0       0       0       0
  8493 ;;Total ram usage:        0 bytes
  8494 ;; Hardware stack levels used: 1
  8495 ;; Hardware stack levels required when called: 4
  8496 ;; This function calls:
  8497 ;;		Nothing
  8498 ;; This function is called by:
  8499 ;;		_main
  8500 ;;		_home_page
  8501 ;;		_check_password
  8502 ;;		_room_1
  8503 ;;		_room_2
  8504 ;;		_garage
  8505 ;; This function uses a non-reentrant model
  8506 ;;
  8507                           
  8508                           	psect	text34
  8509   0034F4                     __ptext34:
  8510                           	callstack 0
  8511   0034F4                     _EUSART_Read:
  8512                           	callstack 25
  8513   0034F4                     l1085:
  8514                           
  8515                           ;mcc_generated_files/eusart.c: 115:     while(!PIR1bits.RC1IF)
  8516   0034F4  AA9E               	btfss	158,5,c	;volatile
  8517   0034F6  EF7F  F01A         	goto	u8491
  8518   0034FA  EF81  F01A         	goto	u8490
  8519   0034FE                     u8491:
  8520   0034FE  EF7A  F01A         	goto	l1085
  8521   003502                     u8490:
  8522   003502                     
  8523                           ;mcc_generated_files/eusart.c: 119:     eusartRxLastError.status = 0;
  8524   003502  0E00               	movlw	0
  8525   003504  0100               	movlb	0	; () banked
  8526   003506  6FC9               	movwf	_eusartRxLastError& (0+255),b	;volatile
  8527   003508                     
  8528                           ; BSR set to: 0
  8529                           ;mcc_generated_files/eusart.c: 121:     if(1 == RCSTAbits.OERR)
  8530   003508  A2AB               	btfss	171,1,c	;volatile
  8531   00350A  EF89  F01A         	goto	u8501
  8532   00350E  EF8B  F01A         	goto	u8500
  8533   003512                     u8501:
  8534   003512  EF8D  F01A         	goto	l10759
  8535   003516                     u8500:
  8536   003516                     
  8537                           ; BSR set to: 0
  8538                           ;mcc_generated_files/eusart.c: 122:     {;mcc_generated_files/eusart.c: 125:         RCS
      +                          TAbits.CREN = 0;
  8539   003516  98AB               	bcf	171,4,c	;volatile
  8540                           
  8541                           ;mcc_generated_files/eusart.c: 126:         RCSTAbits.CREN = 1;
  8542   003518  88AB               	bsf	171,4,c	;volatile
  8543   00351A                     l10759:
  8544                           
  8545                           ; BSR set to: 0
  8546                           ;mcc_generated_files/eusart.c: 128:     return RCREG;
  8547   00351A  50AE               	movf	174,w,c	;volatile
  8548   00351C                     
  8549                           ; BSR set to: 0
  8550   00351C  0012               	return		;funcret
  8551   00351E                     __end_of_EUSART_Read:
  8552                           	callstack 0
  8553                           
  8554 ;; *************** function _ADC_GetConversion *****************
  8555 ;; Defined at:
  8556 ;;		line 110 in file "mcc_generated_files/adc.c"
  8557 ;; Parameters:    Size  Location     Type
  8558 ;;  channel         1    wreg     enum E2740
  8559 ;; Auto vars:     Size  Location     Type
  8560 ;;  channel         1    7[COMRAM] enum E2740
  8561 ;; Return value:  Size  Location     Type
  8562 ;;                  2    3[COMRAM] unsigned short 
  8563 ;; Registers used:
  8564 ;;		wreg, status,2, status,0
  8565 ;; Tracked objects:
  8566 ;;		On entry : 0/0
  8567 ;;		On exit  : 0/0
  8568 ;;		Unchanged: 0/0
  8569 ;; Data sizes:     COMRAM   BANK0   BANK1   BANK2   BANK3   BANK4   BANK5   BANK6   BANK7   BANK8   BANK9  BANK10  BANK1
      +1  BANK12  BANK13  BANK14  BANK15
  8570 ;;      Params:         2       0       0       0       0       0       0       0       0       0       0       0       
      +0       0       0       0       0
  8571 ;;      Locals:         1       0       0       0       0       0       0       0       0       0       0       0       
      +0       0       0       0       0
  8572 ;;      Temps:          2       0       0       0       0       0       0       0       0       0       0       0       
      +0       0       0       0       0
  8573 ;;      Totals:         5       0       0       0       0       0       0       0       0       0       0       0       
      +0       0       0       0       0
  8574 ;;Total ram usage:        5 bytes
  8575 ;; Hardware stack levels used: 1
  8576 ;; Hardware stack levels required when called: 4
  8577 ;; This function calls:
  8578 ;;		Nothing
  8579 ;; This function is called by:
  8580 ;;		_room_1
  8581 ;;		_room_2
  8582 ;;		_garage
  8583 ;;		_fire_check
  8584 ;; This function uses a non-reentrant model
  8585 ;;
  8586                           
  8587                           	psect	text35
  8588   0033C2                     __ptext35:
  8589                           	callstack 0
  8590   0033C2                     _ADC_GetConversion:
  8591                           	callstack 25
  8592                           
  8593                           ; BSR set to: 0
  8594                           ;incstack = 0
  8595                           ;ADC_GetConversion@channel stored from wreg
  8596   0033C2  6E08               	movwf	ADC_GetConversion@channel^0,c
  8597   0033C4                     
  8598                           ;mcc_generated_files/adc.c: 110: adc_result_t ADC_GetConversion(adc_channel_t channel);m
      +                          cc_generated_files/adc.c: 111: {;mcc_generated_files/adc.c: 113:     ADCON0bits.CHS = ch
      +                          annel;
  8599   0033C4  C008  F006         	movff	ADC_GetConversion@channel,??_ADC_GetConversion
  8600   0033C8  4606               	rlncf	??_ADC_GetConversion^0,f,c
  8601   0033CA  4606               	rlncf	??_ADC_GetConversion^0,f,c
  8602   0033CC  50C2               	movf	194,w,c	;volatile
  8603   0033CE  1806               	xorwf	??_ADC_GetConversion^0,w,c
  8604   0033D0  0BC3               	andlw	-61
  8605   0033D2  1806               	xorwf	??_ADC_GetConversion^0,w,c
  8606   0033D4  6EC2               	movwf	194,c	;volatile
  8607   0033D6                     
  8608                           ;mcc_generated_files/adc.c: 116:     ADCON0bits.ADON = 1;
  8609   0033D6  80C2               	bsf	194,0,c	;volatile
  8610   0033D8                     
  8611                           ;mcc_generated_files/adc.c: 119:     ADCON0bits.GO_nDONE = 1;
  8612   0033D8  82C2               	bsf	194,1,c	;volatile
  8613   0033DA                     l1147:
  8614                           
  8615                           ;mcc_generated_files/adc.c: 122:     while (ADCON0bits.GO_nDONE)
  8616   0033DA  B2C2               	btfsc	194,1,c	;volatile
  8617   0033DC  EFF2  F019         	goto	u8511
  8618   0033E0  EFF4  F019         	goto	u8510
  8619   0033E4                     u8511:
  8620   0033E4  EFED  F019         	goto	l1147
  8621   0033E8                     u8510:
  8622   0033E8                     
  8623                           ;mcc_generated_files/adc.c: 127:     return ((adc_result_t)((ADRESH << 8) + ADRESL));
  8624   0033E8  50C4               	movf	196,w,c	;volatile
  8625   0033EA  6E07               	movwf	(??_ADC_GetConversion+1)^0,c
  8626   0033EC  6A06               	clrf	??_ADC_GetConversion^0,c
  8627   0033EE  50C3               	movf	195,w,c	;volatile
  8628   0033F0  2406               	addwf	??_ADC_GetConversion^0,w,c
  8629   0033F2  6E04               	movwf	?_ADC_GetConversion^0,c
  8630   0033F4  0E00               	movlw	0
  8631   0033F6  2007               	addwfc	(??_ADC_GetConversion+1)^0,w,c
  8632   0033F8  6E05               	movwf	(?_ADC_GetConversion+1)^0,c
  8633   0033FA  0012               	return		;funcret
  8634   0033FC                     __end_of_ADC_GetConversion:
  8635                           	callstack 0
  8636                           
  8637 ;; *************** function _ecu_lcd_4_bits_initialization *****************
  8638 ;; Defined at:
  8639 ;;		line 27 in file "LCD/ecu_chr_lcd.c"
  8640 ;; Parameters:    Size  Location     Type
  8641 ;;  lcd             1   17[COMRAM] PTR const struct .
  8642 ;;		 -> lcd(6), 
  8643 ;; Auto vars:     Size  Location     Type
  8644 ;;  ret             1   20[COMRAM] unsigned char 
  8645 ;;  counter         1   19[COMRAM] unsigned char 
  8646 ;; Return value:  Size  Location     Type
  8647 ;;                  1    wreg      unsigned char 
  8648 ;; Registers used:
  8649 ;;		wreg, fsr2l, fsr2h, status,2, status,0, prodl, prodh, cstack
  8650 ;; Tracked objects:
  8651 ;;		On entry : 0/0
  8652 ;;		On exit  : 0/0
  8653 ;;		Unchanged: 0/0
  8654 ;; Data sizes:     COMRAM   BANK0   BANK1   BANK2   BANK3   BANK4   BANK5   BANK6   BANK7   BANK8   BANK9  BANK10  BANK1
      +1  BANK12  BANK13  BANK14  BANK15
  8655 ;;      Params:         1       0       0       0       0       0       0       0       0       0       0       0       
      +0       0       0       0       0
  8656 ;;      Locals:         2       0       0       0       0       0       0       0       0       0       0       0       
      +0       0       0       0       0
  8657 ;;      Temps:          1       0       0       0       0       0       0       0       0       0       0       0       
      +0       0       0       0       0
  8658 ;;      Totals:         4       0       0       0       0       0       0       0       0       0       0       0       
      +0       0       0       0       0
  8659 ;;Total ram usage:        4 bytes
  8660 ;; Hardware stack levels used: 1
  8661 ;; Hardware stack levels required when called: 7
  8662 ;; This function calls:
  8663 ;;		_ecu_lcd_4_bits_send_command
  8664 ;;		_gpio_pin_direction_intialization
  8665 ;; This function is called by:
  8666 ;;		_main
  8667 ;; This function uses a non-reentrant model
  8668 ;;
  8669                           
  8670                           	psect	text36
  8671   0027B4                     __ptext36:
  8672                           	callstack 0
  8673   0027B4                     _ecu_lcd_4_bits_initialization:
  8674                           	callstack 23
  8675   0027B4                     
  8676                           ;LCD/ecu_chr_lcd.c: 29:     uint8 counter = 0X00;
  8677   0027B4  0E00               	movlw	0
  8678   0027B6  6E14               	movwf	ecu_lcd_4_bits_initialization@counter^0,c
  8679                           
  8680                           ;LCD/ecu_chr_lcd.c: 30:     if(((void*)0) == lcd){
  8681   0027B8  5012               	movf	ecu_lcd_4_bits_initialization@lcd^0,w,c
  8682   0027BA  A4D8               	btfss	status,2,c
  8683   0027BC  EFE2  F013         	goto	u9211
  8684   0027C0  EFE4  F013         	goto	u9210
  8685   0027C4                     u9211:
  8686   0027C4  EFE6  F013         	goto	l11329
  8687   0027C8                     u9210:
  8688   0027C8                     
  8689                           ;LCD/ecu_chr_lcd.c: 32:     }
  8690   0027C8  EF49  F014         	goto	l695
  8691   0027CC                     l11329:
  8692                           
  8693                           ;LCD/ecu_chr_lcd.c: 34:         ret = gpio_pin_direction_intialization(&(lcd->lcd_regist
      +                          er_select));
  8694   0027CC  5012               	movf	ecu_lcd_4_bits_initialization@lcd^0,w,c
  8695   0027CE  0F05               	addlw	5
  8696   0027D0  6E04               	movwf	gpio_pin_direction_intialization@_pin_config^0,c
  8697   0027D2  EC46  F012         	call	_gpio_pin_direction_intialization	;wreg free
  8698   0027D6  6E15               	movwf	ecu_lcd_4_bits_initialization@ret^0,c
  8699                           
  8700                           ;LCD/ecu_chr_lcd.c: 35:         ret = gpio_pin_direction_intialization(&(lcd->lcd_enable
      +                          _pin));
  8701   0027D8  5012               	movf	ecu_lcd_4_bits_initialization@lcd^0,w,c
  8702   0027DA  0F04               	addlw	4
  8703   0027DC  6E04               	movwf	gpio_pin_direction_intialization@_pin_config^0,c
  8704   0027DE  EC46  F012         	call	_gpio_pin_direction_intialization	;wreg free
  8705   0027E2  6E15               	movwf	ecu_lcd_4_bits_initialization@ret^0,c
  8706   0027E4                     
  8707                           ;LCD/ecu_chr_lcd.c: 36:         for(counter = 0X00;counter<4;counter++){
  8708   0027E4  0E00               	movlw	0
  8709   0027E6  6E14               	movwf	ecu_lcd_4_bits_initialization@counter^0,c
  8710   0027E8                     l11337:
  8711   0027E8  5012               	movf	ecu_lcd_4_bits_initialization@lcd^0,w,c
  8712   0027EA  2414               	addwf	ecu_lcd_4_bits_initialization@counter^0,w,c
  8713   0027EC  6E04               	movwf	gpio_pin_direction_intialization@_pin_config^0,c
  8714   0027EE  EC46  F012         	call	_gpio_pin_direction_intialization	;wreg free
  8715   0027F2                     
  8716                           ;LCD/ecu_chr_lcd.c: 39:         }
  8717   0027F2  2A14               	incf	ecu_lcd_4_bits_initialization@counter^0,f,c
  8718   0027F4  0E03               	movlw	3
  8719   0027F6  6414               	cpfsgt	ecu_lcd_4_bits_initialization@counter^0,c
  8720   0027F8  EF00  F014         	goto	u9221
  8721   0027FC  EF02  F014         	goto	u9220
  8722   002800                     u9221:
  8723   002800  EFF4  F013         	goto	l11337
  8724   002804                     u9220:
  8725   002804                     
  8726                           ;LCD/ecu_chr_lcd.c: 40:         _delay((unsigned long)((20)*(8000000/4000.0)));
  8727   002804  0E34               	movlw	52
  8728   002806  6E13               	movwf	??_ecu_lcd_4_bits_initialization^0,c
  8729   002808  0EF2               	movlw	242
  8730   00280A                     u10837:
  8731   00280A  2EE8               	decfsz	wreg,f,c
  8732   00280C  D7FE               	bra	u10837
  8733   00280E  2E13               	decfsz	??_ecu_lcd_4_bits_initialization^0,f,c
  8734   002810  D7FC               	bra	u10837
  8735   002812  C012  F00F         	movff	ecu_lcd_4_bits_initialization@lcd,ecu_lcd_4_bits_send_command@lcd
  8736   002816  0E38               	movlw	56
  8737   002818  6E10               	movwf	ecu_lcd_4_bits_send_command@command^0,c
  8738   00281A  ECCC  F018         	call	_ecu_lcd_4_bits_send_command	;wreg free
  8739   00281E                     
  8740                           ;LCD/ecu_chr_lcd.c: 42:         _delay((unsigned long)((5)*(8000000/4000.0)));
  8741   00281E  0E0D               	movlw	13
  8742   002820  6E13               	movwf	??_ecu_lcd_4_bits_initialization^0,c
  8743   002822  0EFC               	movlw	252
  8744   002824                     u10847:
  8745   002824  2EE8               	decfsz	wreg,f,c
  8746   002826  D7FE               	bra	u10847
  8747   002828  2E13               	decfsz	??_ecu_lcd_4_bits_initialization^0,f,c
  8748   00282A  D7FC               	bra	u10847
  8749   00282C  C012  F00F         	movff	ecu_lcd_4_bits_initialization@lcd,ecu_lcd_4_bits_send_command@lcd
  8750   002830  0E38               	movlw	56
  8751   002832  6E10               	movwf	ecu_lcd_4_bits_send_command@command^0,c
  8752   002834  ECCC  F018         	call	_ecu_lcd_4_bits_send_command	;wreg free
  8753   002838                     
  8754                           ;LCD/ecu_chr_lcd.c: 44:         _delay((unsigned long)((150)*(8000000/4000000.0)));
  8755   002838  0E64               	movlw	100
  8756   00283A                     u10857:
  8757   00283A  2EE8               	decfsz	wreg,f,c
  8758   00283C  D7FE               	bra	u10857
  8759   00283E  C012  F00F         	movff	ecu_lcd_4_bits_initialization@lcd,ecu_lcd_4_bits_send_command@lcd
  8760   002842  0E38               	movlw	56
  8761   002844  6E10               	movwf	ecu_lcd_4_bits_send_command@command^0,c
  8762   002846  ECCC  F018         	call	_ecu_lcd_4_bits_send_command	;wreg free
  8763   00284A  C012  F00F         	movff	ecu_lcd_4_bits_initialization@lcd,ecu_lcd_4_bits_send_command@lcd
  8764   00284E  0E01               	movlw	1
  8765   002850  6E10               	movwf	ecu_lcd_4_bits_send_command@command^0,c
  8766   002852  ECCC  F018         	call	_ecu_lcd_4_bits_send_command	;wreg free
  8767   002856  C012  F00F         	movff	ecu_lcd_4_bits_initialization@lcd,ecu_lcd_4_bits_send_command@lcd
  8768   00285A  0E02               	movlw	2
  8769   00285C  6E10               	movwf	ecu_lcd_4_bits_send_command@command^0,c
  8770   00285E  ECCC  F018         	call	_ecu_lcd_4_bits_send_command	;wreg free
  8771   002862  C012  F00F         	movff	ecu_lcd_4_bits_initialization@lcd,ecu_lcd_4_bits_send_command@lcd
  8772   002866  0E06               	movlw	6
  8773   002868  6E10               	movwf	ecu_lcd_4_bits_send_command@command^0,c
  8774   00286A  ECCC  F018         	call	_ecu_lcd_4_bits_send_command	;wreg free
  8775   00286E  C012  F00F         	movff	ecu_lcd_4_bits_initialization@lcd,ecu_lcd_4_bits_send_command@lcd
  8776   002872  0E0C               	movlw	12
  8777   002874  6E10               	movwf	ecu_lcd_4_bits_send_command@command^0,c
  8778   002876  ECCC  F018         	call	_ecu_lcd_4_bits_send_command	;wreg free
  8779   00287A  C012  F00F         	movff	ecu_lcd_4_bits_initialization@lcd,ecu_lcd_4_bits_send_command@lcd
  8780   00287E  0E80               	movlw	128
  8781   002880  6E10               	movwf	ecu_lcd_4_bits_send_command@command^0,c
  8782   002882  ECCC  F018         	call	_ecu_lcd_4_bits_send_command	;wreg free
  8783   002886  C012  F00F         	movff	ecu_lcd_4_bits_initialization@lcd,ecu_lcd_4_bits_send_command@lcd
  8784   00288A  0E28               	movlw	40
  8785   00288C  6E10               	movwf	ecu_lcd_4_bits_send_command@command^0,c
  8786   00288E  ECCC  F018         	call	_ecu_lcd_4_bits_send_command	;wreg free
  8787   002892                     l695:
  8788   002892  0012               	return		;funcret
  8789   002894                     __end_of_ecu_lcd_4_bits_initialization:
  8790                           	callstack 0
  8791                           
  8792 ;; *************** function _gpio_pin_direction_intialization *****************
  8793 ;; Defined at:
  8794 ;;		line 18 in file "GPIO_MODULES/hal_GPIO.c"
  8795 ;; Parameters:    Size  Location     Type
  8796 ;;  _pin_config     1    3[COMRAM] PTR const struct .
  8797 ;;		 -> lcd$lcd_data(4), lcd(6), motor$motor(2), motor(2), 
  8798 ;;		 -> ecu_led_initialization@mid_term(1), 
  8799 ;; Auto vars:     Size  Location     Type
  8800 ;;  ret             1    9[COMRAM] unsigned char 
  8801 ;; Return value:  Size  Location     Type
  8802 ;;                  1    wreg      unsigned char 
  8803 ;; Registers used:
  8804 ;;		wreg, fsr2l, fsr2h, status,2, status,0, prodl, prodh
  8805 ;; Tracked objects:
  8806 ;;		On entry : 0/0
  8807 ;;		On exit  : 0/0
  8808 ;;		Unchanged: 0/0
  8809 ;; Data sizes:     COMRAM   BANK0   BANK1   BANK2   BANK3   BANK4   BANK5   BANK6   BANK7   BANK8   BANK9  BANK10  BANK1
      +1  BANK12  BANK13  BANK14  BANK15
  8810 ;;      Params:         1       0       0       0       0       0       0       0       0       0       0       0       
      +0       0       0       0       0
  8811 ;;      Locals:         1       0       0       0       0       0       0       0       0       0       0       0       
      +0       0       0       0       0
  8812 ;;      Temps:          5       0       0       0       0       0       0       0       0       0       0       0       
      +0       0       0       0       0
  8813 ;;      Totals:         7       0       0       0       0       0       0       0       0       0       0       0       
      +0       0       0       0       0
  8814 ;;Total ram usage:        7 bytes
  8815 ;; Hardware stack levels used: 1
  8816 ;; Hardware stack levels required when called: 4
  8817 ;; This function calls:
  8818 ;;		Nothing
  8819 ;; This function is called by:
  8820 ;;		_ecu_motor_initialization
  8821 ;;		_ecu_lcd_4_bits_initialization
  8822 ;;		_ecu_led_initialization
  8823 ;;		_ecu_button_initialization
  8824 ;;		_gpio_pin_initialization
  8825 ;;		_intx_pin_handler
  8826 ;;		_mcal_interrupt_RBx_init
  8827 ;;		_ecu_lcd_8_bits_initialization
  8828 ;;		_mode_select
  8829 ;; This function uses a non-reentrant model
  8830 ;;
  8831                           
  8832                           	psect	text37
  8833   00248C                     __ptext37:
  8834                           	callstack 0
  8835   00248C                     _gpio_pin_direction_intialization:
  8836                           	callstack 24
  8837   00248C                     
  8838                           ;GPIO_MODULES/hal_GPIO.c: 20:     Std_ReturnType ret = (Std_ReturnType)0x00;
  8839   00248C  0E00               	movlw	0
  8840   00248E  6E0A               	movwf	gpio_pin_direction_intialization@ret^0,c
  8841                           
  8842                           ;GPIO_MODULES/hal_GPIO.c: 22:     if(((void*)0) == _pin_config || (_pin_config ->pin) > 
      +                          8 ){
  8843   002490  5004               	movf	gpio_pin_direction_intialization@_pin_config^0,w,c
  8844   002492  B4D8               	btfsc	status,2,c
  8845   002494  EF4E  F012         	goto	u8371
  8846   002498  EF50  F012         	goto	u8370
  8847   00249C                     u8371:
  8848   00249C  EF60  F012         	goto	l10691
  8849   0024A0                     u8370:
  8850   0024A0  5004               	movf	gpio_pin_direction_intialization@_pin_config^0,w,c
  8851   0024A2  6ED9               	movwf	fsr2l,c
  8852   0024A4  6ADA               	clrf	fsr2h,c
  8853   0024A6  30DF               	rrcf	223,w,c
  8854   0024A8  32E8               	rrcf	wreg,f,c
  8855   0024AA  32E8               	rrcf	wreg,f,c
  8856   0024AC  0B07               	andlw	7
  8857   0024AE  6E05               	movwf	??_gpio_pin_direction_intialization^0,c
  8858   0024B0  0E08               	movlw	8
  8859   0024B2  6405               	cpfsgt	??_gpio_pin_direction_intialization^0,c
  8860   0024B4  EF5E  F012         	goto	u8381
  8861   0024B8  EF60  F012         	goto	u8380
  8862   0024BC                     u8381:
  8863   0024BC  EFB7  F012         	goto	l10701
  8864   0024C0                     u8380:
  8865   0024C0                     l10691:
  8866                           
  8867                           ;GPIO_MODULES/hal_GPIO.c: 23:         ret = (Std_ReturnType)0x01;
  8868   0024C0  0E01               	movlw	1
  8869   0024C2  6E0A               	movwf	gpio_pin_direction_intialization@ret^0,c
  8870                           
  8871                           ;GPIO_MODULES/hal_GPIO.c: 24:     }
  8872   0024C4  EFCD  F012         	goto	l10703
  8873   0024C8                     l10693:
  8874                           
  8875                           ;GPIO_MODULES/hal_GPIO.c: 30:                 (*(tris_reg[_pin_config->port]) &= ~((uint
      +                          8)1 << (_pin_config->pin)));
  8876   0024C8  5004               	movf	gpio_pin_direction_intialization@_pin_config^0,w,c
  8877   0024CA  6ED9               	movwf	fsr2l,c
  8878   0024CC  6ADA               	clrf	fsr2h,c
  8879   0024CE  30DF               	rrcf	223,w,c
  8880   0024D0  32E8               	rrcf	wreg,f,c
  8881   0024D2  32E8               	rrcf	wreg,f,c
  8882   0024D4  0B07               	andlw	7
  8883   0024D6  6E05               	movwf	??_gpio_pin_direction_intialization^0,c
  8884   0024D8  0E01               	movlw	1
  8885   0024DA  6E06               	movwf	(??_gpio_pin_direction_intialization+1)^0,c
  8886   0024DC  2A05               	incf	??_gpio_pin_direction_intialization^0,f,c
  8887   0024DE  EF73  F012         	goto	u8394
  8888   0024E2                     u8395:
  8889   0024E2  90D8               	bcf	status,0,c
  8890   0024E4  3606               	rlcf	(??_gpio_pin_direction_intialization+1)^0,f,c
  8891   0024E6                     u8394:
  8892   0024E6  2E05               	decfsz	??_gpio_pin_direction_intialization^0,f,c
  8893   0024E8  EF71  F012         	goto	u8395
  8894   0024EC  5006               	movf	(??_gpio_pin_direction_intialization+1)^0,w,c
  8895   0024EE  0AFF               	xorlw	255
  8896   0024F0  6E07               	movwf	(??_gpio_pin_direction_intialization+2)^0,c
  8897   0024F2  5004               	movf	gpio_pin_direction_intialization@_pin_config^0,w,c
  8898   0024F4  6ED9               	movwf	fsr2l,c
  8899   0024F6  6ADA               	clrf	fsr2h,c
  8900   0024F8  50DF               	movf	223,w,c
  8901   0024FA  0B07               	andlw	7
  8902   0024FC  0D02               	mullw	2
  8903   0024FE  50F3               	movf	243,w,c
  8904   002500  0FEB               	addlw	low _tris_reg
  8905   002502  6ED9               	movwf	fsr2l,c
  8906   002504  6ADA               	clrf	fsr2h,c
  8907   002506  CFDE F008          	movff	postinc2,??_gpio_pin_direction_intialization+3
  8908   00250A  CFDD F009          	movff	postdec2,??_gpio_pin_direction_intialization+4
  8909   00250E  C008  FFD9         	movff	??_gpio_pin_direction_intialization+3,fsr2l
  8910   002512  C009  FFDA         	movff	??_gpio_pin_direction_intialization+4,fsr2h
  8911   002516  5007               	movf	(??_gpio_pin_direction_intialization+2)^0,w,c
  8912   002518  16DF               	andwf	indf2,f,c
  8913                           
  8914                           ;GPIO_MODULES/hal_GPIO.c: 31:                 break;
  8915   00251A  EFCD  F012         	goto	l10703
  8916   00251E                     l10695:
  8917                           
  8918                           ;GPIO_MODULES/hal_GPIO.c: 33:                 (*(tris_reg[_pin_config->port]) |= ((uint8
      +                          )1 << (_pin_config->pin)));
  8919   00251E  5004               	movf	gpio_pin_direction_intialization@_pin_config^0,w,c
  8920   002520  6ED9               	movwf	fsr2l,c
  8921   002522  6ADA               	clrf	fsr2h,c
  8922   002524  30DF               	rrcf	223,w,c
  8923   002526  32E8               	rrcf	wreg,f,c
  8924   002528  32E8               	rrcf	wreg,f,c
  8925   00252A  0B07               	andlw	7
  8926   00252C  6E05               	movwf	??_gpio_pin_direction_intialization^0,c
  8927   00252E  0E01               	movlw	1
  8928   002530  6E06               	movwf	(??_gpio_pin_direction_intialization+1)^0,c
  8929   002532  2A05               	incf	??_gpio_pin_direction_intialization^0,f,c
  8930   002534  EF9E  F012         	goto	u8404
  8931   002538                     u8405:
  8932   002538  90D8               	bcf	status,0,c
  8933   00253A  3606               	rlcf	(??_gpio_pin_direction_intialization+1)^0,f,c
  8934   00253C                     u8404:
  8935   00253C  2E05               	decfsz	??_gpio_pin_direction_intialization^0,f,c
  8936   00253E  EF9C  F012         	goto	u8405
  8937   002542  5004               	movf	gpio_pin_direction_intialization@_pin_config^0,w,c
  8938   002544  6ED9               	movwf	fsr2l,c
  8939   002546  6ADA               	clrf	fsr2h,c
  8940   002548  50DF               	movf	223,w,c
  8941   00254A  0B07               	andlw	7
  8942   00254C  0D02               	mullw	2
  8943   00254E  50F3               	movf	243,w,c
  8944   002550  0FEB               	addlw	low _tris_reg
  8945   002552  6ED9               	movwf	fsr2l,c
  8946   002554  6ADA               	clrf	fsr2h,c
  8947   002556  CFDE F007          	movff	postinc2,??_gpio_pin_direction_intialization+2
  8948   00255A  CFDD F008          	movff	postdec2,??_gpio_pin_direction_intialization+3
  8949   00255E  C007  FFD9         	movff	??_gpio_pin_direction_intialization+2,fsr2l
  8950   002562  C008  FFDA         	movff	??_gpio_pin_direction_intialization+3,fsr2h
  8951   002566  5006               	movf	(??_gpio_pin_direction_intialization+1)^0,w,c
  8952   002568  12DF               	iorwf	indf2,f,c
  8953                           
  8954                           ;GPIO_MODULES/hal_GPIO.c: 34:                 break;
  8955   00256A  EFCD  F012         	goto	l10703
  8956   00256E                     l10701:
  8957   00256E  5004               	movf	gpio_pin_direction_intialization@_pin_config^0,w,c
  8958   002570  6ED9               	movwf	fsr2l,c
  8959   002572  6ADA               	clrf	fsr2h,c
  8960   002574  BCDF               	btfsc	indf2,6,c
  8961   002576  EFBF  F012         	goto	u8411
  8962   00257A  EFC2  F012         	goto	u8410
  8963   00257E                     u8411:
  8964   00257E  0E01               	movlw	1
  8965   002580  EFC3  F012         	goto	u8416
  8966   002584                     u8410:
  8967   002584  0E00               	movlw	0
  8968   002586                     u8416:
  8969                           
  8970                           ; Switch size 1, requested type "simple"
  8971                           ; Number of cases is 2, Range of values is 0 to 1
  8972                           ; switch strategies available:
  8973                           ; Name         Instructions Cycles
  8974                           ; simple_byte            7     4 (average)
  8975                           ;	Chosen strategy is simple_byte
  8976   002586  0A00               	xorlw	0	; case 0
  8977   002588  B4D8               	btfsc	status,2,c
  8978   00258A  EF64  F012         	goto	l10693
  8979   00258E  0A01               	xorlw	1	; case 1
  8980   002590  B4D8               	btfsc	status,2,c
  8981   002592  EF8F  F012         	goto	l10695
  8982   002596  EF60  F012         	goto	l10691
  8983   00259A                     l10703:
  8984                           
  8985                           ;GPIO_MODULES/hal_GPIO.c: 41:     return ret;
  8986   00259A  500A               	movf	gpio_pin_direction_intialization@ret^0,w,c
  8987   00259C  0012               	return		;funcret
  8988   00259E                     __end_of_gpio_pin_direction_intialization:
  8989                           	callstack 0
  8990                           
  8991 ;; *************** function _ecu_lcd_4_bits_send_command *****************
  8992 ;; Defined at:
  8993 ;;		line 61 in file "LCD/ecu_chr_lcd.c"
  8994 ;; Parameters:    Size  Location     Type
  8995 ;;  lcd             1   14[COMRAM] PTR const struct .
  8996 ;;		 -> lcd(6), 
  8997 ;;  command         1   15[COMRAM] unsigned char 
  8998 ;; Auto vars:     Size  Location     Type
  8999 ;;  ret             1   16[COMRAM] unsigned char 
  9000 ;; Return value:  Size  Location     Type
  9001 ;;                  1    wreg      unsigned char 
  9002 ;; Registers used:
  9003 ;;		wreg, fsr2l, fsr2h, status,2, status,0, prodl, prodh, cstack
  9004 ;; Tracked objects:
  9005 ;;		On entry : 0/0
  9006 ;;		On exit  : 0/0
  9007 ;;		Unchanged: 0/0
  9008 ;; Data sizes:     COMRAM   BANK0   BANK1   BANK2   BANK3   BANK4   BANK5   BANK6   BANK7   BANK8   BANK9  BANK10  BANK1
      +1  BANK12  BANK13  BANK14  BANK15
  9009 ;;      Params:         2       0       0       0       0       0       0       0       0       0       0       0       
      +0       0       0       0       0
  9010 ;;      Locals:         1       0       0       0       0       0       0       0       0       0       0       0       
      +0       0       0       0       0
  9011 ;;      Temps:          0       0       0       0       0       0       0       0       0       0       0       0       
      +0       0       0       0       0
  9012 ;;      Totals:         3       0       0       0       0       0       0       0       0       0       0       0       
      +0       0       0       0       0
  9013 ;;Total ram usage:        3 bytes
  9014 ;; Hardware stack levels used: 1
  9015 ;; Hardware stack levels required when called: 6
  9016 ;; This function calls:
  9017 ;;		_gpio_pin_write_logic
  9018 ;;		_send_4bits_data_command
  9019 ;;		_send_4bits_enable
  9020 ;; This function is called by:
  9021 ;;		_ecu_lcd_4_bits_initialization
  9022 ;;		_send_4bits_set_cursor
  9023 ;;		_main
  9024 ;;		_home_page
  9025 ;;		_check_password
  9026 ;;		_room_1
  9027 ;;		_room_2
  9028 ;;		_garage
  9029 ;;		_fire_check
  9030 ;;		_ecu_lcd_4_bits_send_custom_char_data_pos
  9031 ;; This function uses a non-reentrant model
  9032 ;;
  9033                           
  9034                           	psect	text38
  9035   003198                     __ptext38:
  9036                           	callstack 0
  9037   003198                     _ecu_lcd_4_bits_send_command:
  9038                           	callstack 21
  9039   003198                     
  9040                           ;LCD/ecu_chr_lcd.c: 63:     if(((void*)0) == lcd){
  9041   003198  500F               	movf	ecu_lcd_4_bits_send_command@lcd^0,w,c
  9042   00319A  A4D8               	btfss	status,2,c
  9043   00319C  EFD2  F018         	goto	u8151
  9044   0031A0  EFD4  F018         	goto	u8150
  9045   0031A4                     u8151:
  9046   0031A4  EFD8  F018         	goto	l10551
  9047   0031A8                     u8150:
  9048   0031A8                     
  9049                           ;LCD/ecu_chr_lcd.c: 64:         ret = (Std_ReturnType)0x01;
  9050   0031A8  0E01               	movlw	1
  9051   0031AA  6E11               	movwf	ecu_lcd_4_bits_send_command@ret^0,c
  9052                           
  9053                           ;LCD/ecu_chr_lcd.c: 65:     }
  9054   0031AC  EFF9  F018         	goto	l10553
  9055   0031B0                     l10551:
  9056                           
  9057                           ;LCD/ecu_chr_lcd.c: 67:         ret=gpio_pin_write_logic(&(lcd->lcd_register_select),GPI
      +                          O_LOW);
  9058   0031B0  500F               	movf	ecu_lcd_4_bits_send_command@lcd^0,w,c
  9059   0031B2  0F05               	addlw	5
  9060   0031B4  6E04               	movwf	gpio_pin_write_logic@_pin_config^0,c
  9061   0031B6  0E00               	movlw	0
  9062   0031B8  6E05               	movwf	gpio_pin_write_logic@logic^0,c
  9063   0031BA  ECCF  F012         	call	_gpio_pin_write_logic	;wreg free
  9064   0031BE  6E11               	movwf	ecu_lcd_4_bits_send_command@ret^0,c
  9065                           
  9066                           ;LCD/ecu_chr_lcd.c: 68:         ret = send_4bits_data_command(lcd,command>>4);
  9067   0031C0  C00F  F00C         	movff	ecu_lcd_4_bits_send_command@lcd,send_4bits_data_command@lcd
  9068   0031C4  3810               	swapf	ecu_lcd_4_bits_send_command@command^0,w,c
  9069   0031C6  0B0F               	andlw	15
  9070   0031C8  6E0D               	movwf	send_4bits_data_command@data^0,c
  9071   0031CA  ECFB  F018         	call	_send_4bits_data_command	;wreg free
  9072   0031CE  6E11               	movwf	ecu_lcd_4_bits_send_command@ret^0,c
  9073                           
  9074                           ;LCD/ecu_chr_lcd.c: 69:         ret=send_4bits_enable(lcd);
  9075   0031D0  C00F  F00C         	movff	ecu_lcd_4_bits_send_command@lcd,send_4bits_enable@lcd
  9076   0031D4  EC8F  F01A         	call	_send_4bits_enable	;wreg free
  9077   0031D8  6E11               	movwf	ecu_lcd_4_bits_send_command@ret^0,c
  9078                           
  9079                           ;LCD/ecu_chr_lcd.c: 70:         ret = send_4bits_data_command(lcd,command);
  9080   0031DA  C00F  F00C         	movff	ecu_lcd_4_bits_send_command@lcd,send_4bits_data_command@lcd
  9081   0031DE  C010  F00D         	movff	ecu_lcd_4_bits_send_command@command,send_4bits_data_command@data
  9082   0031E2  ECFB  F018         	call	_send_4bits_data_command	;wreg free
  9083   0031E6  6E11               	movwf	ecu_lcd_4_bits_send_command@ret^0,c
  9084                           
  9085                           ;LCD/ecu_chr_lcd.c: 71:         ret=send_4bits_enable(lcd);
  9086   0031E8  C00F  F00C         	movff	ecu_lcd_4_bits_send_command@lcd,send_4bits_enable@lcd
  9087   0031EC  EC8F  F01A         	call	_send_4bits_enable	;wreg free
  9088   0031F0  6E11               	movwf	ecu_lcd_4_bits_send_command@ret^0,c
  9089   0031F2                     l10553:
  9090                           
  9091                           ;LCD/ecu_chr_lcd.c: 73:     return ret;
  9092   0031F2  5011               	movf	ecu_lcd_4_bits_send_command@ret^0,w,c
  9093   0031F4  0012               	return		;funcret
  9094   0031F6                     __end_of_ecu_lcd_4_bits_send_command:
  9095                           	callstack 0
  9096                           
  9097 ;; *************** function _send_4bits_enable *****************
  9098 ;; Defined at:
  9099 ;;		line 350 in file "LCD/ecu_chr_lcd.c"
  9100 ;; Parameters:    Size  Location     Type
  9101 ;;  lcd             1   11[COMRAM] PTR const struct .
  9102 ;;		 -> lcd(6), 
  9103 ;; Auto vars:     Size  Location     Type
  9104 ;;  ret             1   12[COMRAM] unsigned char 
  9105 ;; Return value:  Size  Location     Type
  9106 ;;                  1    wreg      unsigned char 
  9107 ;; Registers used:
  9108 ;;		wreg, fsr2l, fsr2h, status,2, status,0, prodl, prodh, cstack
  9109 ;; Tracked objects:
  9110 ;;		On entry : 0/0
  9111 ;;		On exit  : 0/0
  9112 ;;		Unchanged: 0/0
  9113 ;; Data sizes:     COMRAM   BANK0   BANK1   BANK2   BANK3   BANK4   BANK5   BANK6   BANK7   BANK8   BANK9  BANK10  BANK1
      +1  BANK12  BANK13  BANK14  BANK15
  9114 ;;      Params:         1       0       0       0       0       0       0       0       0       0       0       0       
      +0       0       0       0       0
  9115 ;;      Locals:         1       0       0       0       0       0       0       0       0       0       0       0       
      +0       0       0       0       0
  9116 ;;      Temps:          0       0       0       0       0       0       0       0       0       0       0       0       
      +0       0       0       0       0
  9117 ;;      Totals:         2       0       0       0       0       0       0       0       0       0       0       0       
      +0       0       0       0       0
  9118 ;;Total ram usage:        2 bytes
  9119 ;; Hardware stack levels used: 1
  9120 ;; Hardware stack levels required when called: 5
  9121 ;; This function calls:
  9122 ;;		_gpio_pin_write_logic
  9123 ;; This function is called by:
  9124 ;;		_ecu_lcd_4_bits_send_command
  9125 ;;		_ecu_lcd_4_bits_send_char_data
  9126 ;; This function uses a non-reentrant model
  9127 ;;
  9128                           
  9129                           	psect	text39
  9130   00351E                     __ptext39:
  9131                           	callstack 0
  9132   00351E                     _send_4bits_enable:
  9133                           	callstack 21
  9134   00351E  500C               	movf	send_4bits_enable@lcd^0,w,c
  9135   003520  0F04               	addlw	4
  9136   003522  6E04               	movwf	gpio_pin_write_logic@_pin_config^0,c
  9137   003524  0E01               	movlw	1
  9138   003526  6E05               	movwf	gpio_pin_write_logic@logic^0,c
  9139   003528  ECCF  F012         	call	_gpio_pin_write_logic	;wreg free
  9140   00352C                     
  9141                           ;LCD/ecu_chr_lcd.c: 354:             _delay((unsigned long)((5)*(8000000/4000000.0)));
  9142   00352C  0E03               	movlw	3
  9143   00352E                     u10867:
  9144   00352E  2EE8               	decfsz	wreg,f,c
  9145   003530  D7FE               	bra	u10867
  9146   003532  0000               	nop	
  9147   003534                     
  9148                           ;LCD/ecu_chr_lcd.c: 355:             ret=gpio_pin_write_logic(&(lcd->lcd_enable_pin),GPI
      +                          O_LOW);
  9149   003534  500C               	movf	send_4bits_enable@lcd^0,w,c
  9150   003536  0F04               	addlw	4
  9151   003538  6E04               	movwf	gpio_pin_write_logic@_pin_config^0,c
  9152   00353A  0E00               	movlw	0
  9153   00353C  6E05               	movwf	gpio_pin_write_logic@logic^0,c
  9154   00353E  ECCF  F012         	call	_gpio_pin_write_logic	;wreg free
  9155   003542  6E0D               	movwf	send_4bits_enable@ret^0,c
  9156   003544                     
  9157                           ;LCD/ecu_chr_lcd.c: 358:     return ret;
  9158   003544  500D               	movf	send_4bits_enable@ret^0,w,c
  9159   003546  0012               	return		;funcret
  9160   003548                     __end_of_send_4bits_enable:
  9161                           	callstack 0
  9162                           
  9163 ;; *************** function _send_4bits_data_command *****************
  9164 ;; Defined at:
  9165 ;;		line 324 in file "LCD/ecu_chr_lcd.c"
  9166 ;; Parameters:    Size  Location     Type
  9167 ;;  lcd             1   11[COMRAM] PTR const struct .
  9168 ;;		 -> lcd(6), 
  9169 ;;  data            1   12[COMRAM] unsigned char 
  9170 ;; Auto vars:     Size  Location     Type
  9171 ;;  ret             1   13[COMRAM] unsigned char 
  9172 ;; Return value:  Size  Location     Type
  9173 ;;                  1    wreg      unsigned char 
  9174 ;; Registers used:
  9175 ;;		wreg, fsr2l, fsr2h, status,2, status,0, prodl, prodh, cstack
  9176 ;; Tracked objects:
  9177 ;;		On entry : 0/0
  9178 ;;		On exit  : 0/0
  9179 ;;		Unchanged: 0/0
  9180 ;; Data sizes:     COMRAM   BANK0   BANK1   BANK2   BANK3   BANK4   BANK5   BANK6   BANK7   BANK8   BANK9  BANK10  BANK1
      +1  BANK12  BANK13  BANK14  BANK15
  9181 ;;      Params:         2       0       0       0       0       0       0       0       0       0       0       0       
      +0       0       0       0       0
  9182 ;;      Locals:         1       0       0       0       0       0       0       0       0       0       0       0       
      +0       0       0       0       0
  9183 ;;      Temps:          0       0       0       0       0       0       0       0       0       0       0       0       
      +0       0       0       0       0
  9184 ;;      Totals:         3       0       0       0       0       0       0       0       0       0       0       0       
      +0       0       0       0       0
  9185 ;;Total ram usage:        3 bytes
  9186 ;; Hardware stack levels used: 1
  9187 ;; Hardware stack levels required when called: 5
  9188 ;; This function calls:
  9189 ;;		_gpio_pin_write_logic
  9190 ;; This function is called by:
  9191 ;;		_ecu_lcd_4_bits_send_command
  9192 ;;		_ecu_lcd_4_bits_send_char_data
  9193 ;; This function uses a non-reentrant model
  9194 ;;
  9195                           
  9196                           	psect	text40
  9197   0031F6                     __ptext40:
  9198                           	callstack 0
  9199   0031F6                     _send_4bits_data_command:
  9200                           	callstack 21
  9201   0031F6  C00C  F004         	movff	send_4bits_data_command@lcd,gpio_pin_write_logic@_pin_config
  9202   0031FA  500D               	movf	send_4bits_data_command@data^0,w,c
  9203   0031FC  0B01               	andlw	1
  9204   0031FE  6E05               	movwf	gpio_pin_write_logic@logic^0,c
  9205   003200  ECCF  F012         	call	_gpio_pin_write_logic	;wreg free
  9206   003204  280C               	incf	send_4bits_data_command@lcd^0,w,c
  9207   003206  6E04               	movwf	gpio_pin_write_logic@_pin_config^0,c
  9208   003208  90D8               	bcf	status,0,c
  9209   00320A  300D               	rrcf	send_4bits_data_command@data^0,w,c
  9210   00320C  0B01               	andlw	1
  9211   00320E  6E05               	movwf	gpio_pin_write_logic@logic^0,c
  9212   003210  ECCF  F012         	call	_gpio_pin_write_logic	;wreg free
  9213   003214  500C               	movf	send_4bits_data_command@lcd^0,w,c
  9214   003216  0F02               	addlw	2
  9215   003218  6E04               	movwf	gpio_pin_write_logic@_pin_config^0,c
  9216   00321A  400D               	rrncf	send_4bits_data_command@data^0,w,c
  9217   00321C  42E8               	rrncf	wreg,f,c
  9218   00321E  0B3F               	andlw	63
  9219   003220  0B01               	andlw	1
  9220   003222  6E05               	movwf	gpio_pin_write_logic@logic^0,c
  9221   003224  ECCF  F012         	call	_gpio_pin_write_logic	;wreg free
  9222   003228                     
  9223                           ;LCD/ecu_chr_lcd.c: 330:             ret=gpio_pin_write_logic(&(lcd->lcd_data[3]),(data>
      +                          >3)&(uint8)0x01);
  9224   003228  500C               	movf	send_4bits_data_command@lcd^0,w,c
  9225   00322A  0F03               	addlw	3
  9226   00322C  6E04               	movwf	gpio_pin_write_logic@_pin_config^0,c
  9227   00322E  380D               	swapf	send_4bits_data_command@data^0,w,c
  9228   003230  46E8               	rlncf	wreg,f,c
  9229   003232  0B1F               	andlw	31
  9230   003234  0B01               	andlw	1
  9231   003236  6E05               	movwf	gpio_pin_write_logic@logic^0,c
  9232   003238  ECCF  F012         	call	_gpio_pin_write_logic	;wreg free
  9233   00323C  6E0E               	movwf	send_4bits_data_command@ret^0,c
  9234                           
  9235                           ;LCD/ecu_chr_lcd.c: 332:     return ret;
  9236   00323E  500E               	movf	send_4bits_data_command@ret^0,w,c
  9237   003240  0012               	return		;funcret
  9238   003242                     __end_of_send_4bits_data_command:
  9239                           	callstack 0
  9240                           
  9241 ;; *************** function _gpio_pin_write_logic *****************
  9242 ;; Defined at:
  9243 ;;		line 47 in file "GPIO_MODULES/hal_GPIO.c"
  9244 ;; Parameters:    Size  Location     Type
  9245 ;;  _pin_config     1    3[COMRAM] PTR const struct .
  9246 ;;		 -> lcd$lcd_data(4), lcd(6), motor$motor(2), motor(2), 
  9247 ;;		 -> ecu_led_off@mid_term(1), ecu_led_on@mid_term(1), 
  9248 ;;  logic           1    4[COMRAM] enum E3664
  9249 ;; Auto vars:     Size  Location     Type
  9250 ;;  ret             1   10[COMRAM] unsigned char 
  9251 ;; Return value:  Size  Location     Type
  9252 ;;                  1    wreg      unsigned char 
  9253 ;; Registers used:
  9254 ;;		wreg, fsr2l, fsr2h, status,2, status,0, prodl, prodh
  9255 ;; Tracked objects:
  9256 ;;		On entry : 0/0
  9257 ;;		On exit  : 0/0
  9258 ;;		Unchanged: 0/0
  9259 ;; Data sizes:     COMRAM   BANK0   BANK1   BANK2   BANK3   BANK4   BANK5   BANK6   BANK7   BANK8   BANK9  BANK10  BANK1
      +1  BANK12  BANK13  BANK14  BANK15
  9260 ;;      Params:         2       0       0       0       0       0       0       0       0       0       0       0       
      +0       0       0       0       0
  9261 ;;      Locals:         1       0       0       0       0       0       0       0       0       0       0       0       
      +0       0       0       0       0
  9262 ;;      Temps:          5       0       0       0       0       0       0       0       0       0       0       0       
      +0       0       0       0       0
  9263 ;;      Totals:         8       0       0       0       0       0       0       0       0       0       0       0       
      +0       0       0       0       0
  9264 ;;Total ram usage:        8 bytes
  9265 ;; Hardware stack levels used: 1
  9266 ;; Hardware stack levels required when called: 4
  9267 ;; This function calls:
  9268 ;;		Nothing
  9269 ;; This function is called by:
  9270 ;;		_ecu_motor_move_right
  9271 ;;		_ecu_motor_stop
  9272 ;;		_ecu_lcd_4_bits_send_command
  9273 ;;		_ecu_lcd_4_bits_send_char_data
  9274 ;;		_send_4bits_data_command
  9275 ;;		_send_4bits_enable
  9276 ;;		_ecu_led_on
  9277 ;;		_ecu_led_off
  9278 ;;		_ecu_motor_move_left
  9279 ;;		_gpio_pin_initialization
  9280 ;;		_ecu_keypad_get_value
  9281 ;;		_ecu_lcd_8_bits_send_command
  9282 ;;		_ecu_lcd_8_bits_send_char_data
  9283 ;;		_send_8bits_data_command
  9284 ;;		_send_8bits_enable
  9285 ;; This function uses a non-reentrant model
  9286 ;;
  9287                           
  9288                           	psect	text41
  9289   00259E                     __ptext41:
  9290                           	callstack 0
  9291   00259E                     _gpio_pin_write_logic:
  9292                           	callstack 21
  9293   00259E                     
  9294                           ;GPIO_MODULES/hal_GPIO.c: 49:   Std_ReturnType ret = (Std_ReturnType)0x00;
  9295   00259E  0E00               	movlw	0
  9296   0025A0  6E0B               	movwf	gpio_pin_write_logic@ret^0,c
  9297                           
  9298                           ;GPIO_MODULES/hal_GPIO.c: 51:     if(((void*)0) == _pin_config || (_pin_config ->pin) > 
      +                          8 -1 ){
  9299   0025A2  5004               	movf	gpio_pin_write_logic@_pin_config^0,w,c
  9300   0025A4  B4D8               	btfsc	status,2,c
  9301   0025A6  EFD7  F012         	goto	u7941
  9302   0025AA  EFD9  F012         	goto	u7940
  9303   0025AE                     u7941:
  9304   0025AE  EFE9  F012         	goto	l10405
  9305   0025B2                     u7940:
  9306   0025B2  5004               	movf	gpio_pin_write_logic@_pin_config^0,w,c
  9307   0025B4  6ED9               	movwf	fsr2l,c
  9308   0025B6  6ADA               	clrf	fsr2h,c
  9309   0025B8  30DF               	rrcf	223,w,c
  9310   0025BA  32E8               	rrcf	wreg,f,c
  9311   0025BC  32E8               	rrcf	wreg,f,c
  9312   0025BE  0B07               	andlw	7
  9313   0025C0  6E06               	movwf	??_gpio_pin_write_logic^0,c
  9314   0025C2  0E07               	movlw	7
  9315   0025C4  6406               	cpfsgt	??_gpio_pin_write_logic^0,c
  9316   0025C6  EFE7  F012         	goto	u7951
  9317   0025CA  EFE9  F012         	goto	u7950
  9318   0025CE                     u7951:
  9319   0025CE  EF40  F013         	goto	l10415
  9320   0025D2                     u7950:
  9321   0025D2                     l10405:
  9322                           
  9323                           ;GPIO_MODULES/hal_GPIO.c: 52:         ret = (Std_ReturnType)0x01;
  9324   0025D2  0E01               	movlw	1
  9325   0025D4  6E0B               	movwf	gpio_pin_write_logic@ret^0,c
  9326                           
  9327                           ;GPIO_MODULES/hal_GPIO.c: 53:     }
  9328   0025D6  EF55  F013         	goto	l10417
  9329   0025DA                     l10407:
  9330                           
  9331                           ;GPIO_MODULES/hal_GPIO.c: 59:                 (*(lat_reg[_pin_config->port]) &= ~((uint8
      +                          )1 << (_pin_config->pin)));
  9332   0025DA  5004               	movf	gpio_pin_write_logic@_pin_config^0,w,c
  9333   0025DC  6ED9               	movwf	fsr2l,c
  9334   0025DE  6ADA               	clrf	fsr2h,c
  9335   0025E0  30DF               	rrcf	223,w,c
  9336   0025E2  32E8               	rrcf	wreg,f,c
  9337   0025E4  32E8               	rrcf	wreg,f,c
  9338   0025E6  0B07               	andlw	7
  9339   0025E8  6E06               	movwf	??_gpio_pin_write_logic^0,c
  9340   0025EA  0E01               	movlw	1
  9341   0025EC  6E07               	movwf	(??_gpio_pin_write_logic+1)^0,c
  9342   0025EE  2A06               	incf	??_gpio_pin_write_logic^0,f,c
  9343   0025F0  EFFC  F012         	goto	u7964
  9344   0025F4                     u7965:
  9345   0025F4  90D8               	bcf	status,0,c
  9346   0025F6  3607               	rlcf	(??_gpio_pin_write_logic+1)^0,f,c
  9347   0025F8                     u7964:
  9348   0025F8  2E06               	decfsz	??_gpio_pin_write_logic^0,f,c
  9349   0025FA  EFFA  F012         	goto	u7965
  9350   0025FE  5007               	movf	(??_gpio_pin_write_logic+1)^0,w,c
  9351   002600  0AFF               	xorlw	255
  9352   002602  6E08               	movwf	(??_gpio_pin_write_logic+2)^0,c
  9353   002604  5004               	movf	gpio_pin_write_logic@_pin_config^0,w,c
  9354   002606  6ED9               	movwf	fsr2l,c
  9355   002608  6ADA               	clrf	fsr2h,c
  9356   00260A  50DF               	movf	223,w,c
  9357   00260C  0B07               	andlw	7
  9358   00260E  0D02               	mullw	2
  9359   002610  50F3               	movf	243,w,c
  9360   002612  0FE1               	addlw	low _lat_reg
  9361   002614  6ED9               	movwf	fsr2l,c
  9362   002616  6ADA               	clrf	fsr2h,c
  9363   002618  CFDE F009          	movff	postinc2,??_gpio_pin_write_logic+3
  9364   00261C  CFDD F00A          	movff	postdec2,??_gpio_pin_write_logic+4
  9365   002620  C009  FFD9         	movff	??_gpio_pin_write_logic+3,fsr2l
  9366   002624  C00A  FFDA         	movff	??_gpio_pin_write_logic+4,fsr2h
  9367   002628  5008               	movf	(??_gpio_pin_write_logic+2)^0,w,c
  9368   00262A  16DF               	andwf	indf2,f,c
  9369                           
  9370                           ;GPIO_MODULES/hal_GPIO.c: 60:                 break;
  9371   00262C  EF55  F013         	goto	l10417
  9372   002630                     l10409:
  9373                           
  9374                           ;GPIO_MODULES/hal_GPIO.c: 62:                 (*(lat_reg[_pin_config->port]) |= ((uint8)
      +                          1 << (_pin_config->pin)));
  9375   002630  5004               	movf	gpio_pin_write_logic@_pin_config^0,w,c
  9376   002632  6ED9               	movwf	fsr2l,c
  9377   002634  6ADA               	clrf	fsr2h,c
  9378   002636  30DF               	rrcf	223,w,c
  9379   002638  32E8               	rrcf	wreg,f,c
  9380   00263A  32E8               	rrcf	wreg,f,c
  9381   00263C  0B07               	andlw	7
  9382   00263E  6E06               	movwf	??_gpio_pin_write_logic^0,c
  9383   002640  0E01               	movlw	1
  9384   002642  6E07               	movwf	(??_gpio_pin_write_logic+1)^0,c
  9385   002644  2A06               	incf	??_gpio_pin_write_logic^0,f,c
  9386   002646  EF27  F013         	goto	u7974
  9387   00264A                     u7975:
  9388   00264A  90D8               	bcf	status,0,c
  9389   00264C  3607               	rlcf	(??_gpio_pin_write_logic+1)^0,f,c
  9390   00264E                     u7974:
  9391   00264E  2E06               	decfsz	??_gpio_pin_write_logic^0,f,c
  9392   002650  EF25  F013         	goto	u7975
  9393   002654  5004               	movf	gpio_pin_write_logic@_pin_config^0,w,c
  9394   002656  6ED9               	movwf	fsr2l,c
  9395   002658  6ADA               	clrf	fsr2h,c
  9396   00265A  50DF               	movf	223,w,c
  9397   00265C  0B07               	andlw	7
  9398   00265E  0D02               	mullw	2
  9399   002660  50F3               	movf	243,w,c
  9400   002662  0FE1               	addlw	low _lat_reg
  9401   002664  6ED9               	movwf	fsr2l,c
  9402   002666  6ADA               	clrf	fsr2h,c
  9403   002668  CFDE F008          	movff	postinc2,??_gpio_pin_write_logic+2
  9404   00266C  CFDD F009          	movff	postdec2,??_gpio_pin_write_logic+3
  9405   002670  C008  FFD9         	movff	??_gpio_pin_write_logic+2,fsr2l
  9406   002674  C009  FFDA         	movff	??_gpio_pin_write_logic+3,fsr2h
  9407   002678  5007               	movf	(??_gpio_pin_write_logic+1)^0,w,c
  9408   00267A  12DF               	iorwf	indf2,f,c
  9409                           
  9410                           ;GPIO_MODULES/hal_GPIO.c: 63:                 break;
  9411   00267C  EF55  F013         	goto	l10417
  9412   002680                     l10415:
  9413   002680  5005               	movf	gpio_pin_write_logic@logic^0,w,c
  9414   002682  6E06               	movwf	??_gpio_pin_write_logic^0,c
  9415   002684  6A07               	clrf	(??_gpio_pin_write_logic+1)^0,c
  9416                           
  9417                           ; Switch on 2 bytes has been partitioned into a top level switch of size 1, and 1 sub-sw
      +                          itches
  9418                           ; Switch size 1, requested type "simple"
  9419                           ; Number of cases is 1, Range of values is 0 to 0
  9420                           ; switch strategies available:
  9421                           ; Name         Instructions Cycles
  9422                           ; simple_byte            4     3 (average)
  9423                           ;	Chosen strategy is simple_byte
  9424   002686  5007               	movf	(??_gpio_pin_write_logic+1)^0,w,c
  9425   002688  0A00               	xorlw	0	; case 0
  9426   00268A  B4D8               	btfsc	status,2,c
  9427   00268C  EF4A  F013         	goto	l13001
  9428   002690  EFE9  F012         	goto	l10405
  9429   002694                     l13001:
  9430                           
  9431                           ; Switch size 1, requested type "simple"
  9432                           ; Number of cases is 2, Range of values is 0 to 1
  9433                           ; switch strategies available:
  9434                           ; Name         Instructions Cycles
  9435                           ; simple_byte            7     4 (average)
  9436                           ;	Chosen strategy is simple_byte
  9437   002694  5006               	movf	??_gpio_pin_write_logic^0,w,c
  9438   002696  0A00               	xorlw	0	; case 0
  9439   002698  B4D8               	btfsc	status,2,c
  9440   00269A  EFED  F012         	goto	l10407
  9441   00269E  0A01               	xorlw	1	; case 1
  9442   0026A0  B4D8               	btfsc	status,2,c
  9443   0026A2  EF18  F013         	goto	l10409
  9444   0026A6  EFE9  F012         	goto	l10405
  9445   0026AA                     l10417:
  9446                           
  9447                           ;GPIO_MODULES/hal_GPIO.c: 70:     return ret;
  9448   0026AA  500B               	movf	gpio_pin_write_logic@ret^0,w,c
  9449   0026AC  0012               	return		;funcret
  9450   0026AE                     __end_of_gpio_pin_write_logic:
  9451                           	callstack 0
  9452                           
  9453 ;; *************** function _SYSTEM_Initialize *****************
  9454 ;; Defined at:
  9455 ;;		line 50 in file "mcc_generated_files/mcc.c"
  9456 ;; Parameters:    Size  Location     Type
  9457 ;;		None
  9458 ;; Auto vars:     Size  Location     Type
  9459 ;;		None
  9460 ;; Return value:  Size  Location     Type
  9461 ;;                  1    wreg      void 
  9462 ;; Registers used:
  9463 ;;		wreg, status,2, status,0, cstack
  9464 ;; Tracked objects:
  9465 ;;		On entry : 0/0
  9466 ;;		On exit  : 0/0
  9467 ;;		Unchanged: 0/0
  9468 ;; Data sizes:     COMRAM   BANK0   BANK1   BANK2   BANK3   BANK4   BANK5   BANK6   BANK7   BANK8   BANK9  BANK10  BANK1
      +1  BANK12  BANK13  BANK14  BANK15
  9469 ;;      Params:         0       0       0       0       0       0       0       0       0       0       0       0       
      +0       0       0       0       0
  9470 ;;      Locals:         0       0       0       0       0       0       0       0       0       0       0       0       
      +0       0       0       0       0
  9471 ;;      Temps:          0       0       0       0       0       0       0       0       0       0       0       0       
      +0       0       0       0       0
  9472 ;;      Totals:         0       0       0       0       0       0       0       0       0       0       0       0       
      +0       0       0       0       0
  9473 ;;Total ram usage:        0 bytes
  9474 ;; Hardware stack levels used: 1
  9475 ;; Hardware stack levels required when called: 6
  9476 ;; This function calls:
  9477 ;;		_ADC_Initialize
  9478 ;;		_EUSART_Initialize
  9479 ;;		_I2C_Initialize
  9480 ;;		_OSCILLATOR_Initialize
  9481 ;;		_PIN_MANAGER_Initialize
  9482 ;; This function is called by:
  9483 ;;		_main
  9484 ;; This function uses a non-reentrant model
  9485 ;;
  9486                           
  9487                           	psect	text42
  9488   0035CC                     __ptext42:
  9489                           	callstack 0
  9490   0035CC                     _SYSTEM_Initialize:
  9491                           	callstack 24
  9492   0035CC                     
  9493                           ;mcc_generated_files/mcc.c: 53:     I2C_Initialize();
  9494   0035CC  ECFC  F01A         	call	_I2C_Initialize	;wreg free
  9495                           
  9496                           ;mcc_generated_files/mcc.c: 54:     PIN_MANAGER_Initialize();
  9497   0035D0  EC34  F01A         	call	_PIN_MANAGER_Initialize	;wreg free
  9498                           
  9499                           ;mcc_generated_files/mcc.c: 55:     OSCILLATOR_Initialize();
  9500   0035D4  EC19  F01B         	call	_OSCILLATOR_Initialize	;wreg free
  9501                           
  9502                           ;mcc_generated_files/mcc.c: 56:     ADC_Initialize();
  9503   0035D8  ECF1  F01A         	call	_ADC_Initialize	;wreg free
  9504   0035DC                     
  9505                           ;mcc_generated_files/mcc.c: 62:    EUSART_Initialize();
  9506   0035DC  ECA3  F019         	call	_EUSART_Initialize	;wreg free
  9507   0035E0  0012               	return		;funcret
  9508   0035E2                     __end_of_SYSTEM_Initialize:
  9509                           	callstack 0
  9510                           
  9511 ;; *************** function _PIN_MANAGER_Initialize *****************
  9512 ;; Defined at:
  9513 ;;		line 55 in file "mcc_generated_files/pin_manager.c"
  9514 ;; Parameters:    Size  Location     Type
  9515 ;;		None
  9516 ;; Auto vars:     Size  Location     Type
  9517 ;;		None
  9518 ;; Return value:  Size  Location     Type
  9519 ;;                  1    wreg      void 
  9520 ;; Registers used:
  9521 ;;		wreg, status,2
  9522 ;; Tracked objects:
  9523 ;;		On entry : 0/0
  9524 ;;		On exit  : 0/0
  9525 ;;		Unchanged: 0/0
  9526 ;; Data sizes:     COMRAM   BANK0   BANK1   BANK2   BANK3   BANK4   BANK5   BANK6   BANK7   BANK8   BANK9  BANK10  BANK1
      +1  BANK12  BANK13  BANK14  BANK15
  9527 ;;      Params:         0       0       0       0       0       0       0       0       0       0       0       0       
      +0       0       0       0       0
  9528 ;;      Locals:         0       0       0       0       0       0       0       0       0       0       0       0       
      +0       0       0       0       0
  9529 ;;      Temps:          0       0       0       0       0       0       0       0       0       0       0       0       
      +0       0       0       0       0
  9530 ;;      Totals:         0       0       0       0       0       0       0       0       0       0       0       0       
      +0       0       0       0       0
  9531 ;;Total ram usage:        0 bytes
  9532 ;; Hardware stack levels used: 1
  9533 ;; Hardware stack levels required when called: 4
  9534 ;; This function calls:
  9535 ;;		Nothing
  9536 ;; This function is called by:
  9537 ;;		_SYSTEM_Initialize
  9538 ;; This function uses a non-reentrant model
  9539 ;;
  9540                           
  9541                           	psect	text43
  9542   003468                     __ptext43:
  9543                           	callstack 0
  9544   003468                     _PIN_MANAGER_Initialize:
  9545                           	callstack 25
  9546   003468                     
  9547                           ;mcc_generated_files/pin_manager.c: 60:     LATE = 0x00;
  9548   003468  0E00               	movlw	0
  9549   00346A  6E8D               	movwf	141,c	;volatile
  9550                           
  9551                           ;mcc_generated_files/pin_manager.c: 61:     LATD = 0x00;
  9552   00346C  0E00               	movlw	0
  9553   00346E  6E8C               	movwf	140,c	;volatile
  9554                           
  9555                           ;mcc_generated_files/pin_manager.c: 62:     LATA = 0x00;
  9556   003470  0E00               	movlw	0
  9557   003472  6E89               	movwf	137,c	;volatile
  9558                           
  9559                           ;mcc_generated_files/pin_manager.c: 63:     LATB = 0x00;
  9560   003474  0E00               	movlw	0
  9561   003476  6E8A               	movwf	138,c	;volatile
  9562                           
  9563                           ;mcc_generated_files/pin_manager.c: 64:     LATC = 0x00;
  9564   003478  0E00               	movlw	0
  9565   00347A  6E8B               	movwf	139,c	;volatile
  9566                           
  9567                           ;mcc_generated_files/pin_manager.c: 69:     TRISE = 0x07;
  9568   00347C  0E07               	movlw	7
  9569   00347E  6E96               	movwf	150,c	;volatile
  9570   003480                     
  9571                           ;mcc_generated_files/pin_manager.c: 70:     TRISA = 0xFF;
  9572   003480  6892               	setf	146,c	;volatile
  9573   003482                     
  9574                           ;mcc_generated_files/pin_manager.c: 71:     TRISB = 0xFF;
  9575   003482  6893               	setf	147,c	;volatile
  9576                           
  9577                           ;mcc_generated_files/pin_manager.c: 72:     TRISC = 0xBB;
  9578   003484  0EBB               	movlw	187
  9579   003486  6E94               	movwf	148,c	;volatile
  9580   003488                     
  9581                           ;mcc_generated_files/pin_manager.c: 73:     TRISD = 0xFF;
  9582   003488  6895               	setf	149,c	;volatile
  9583   00348A                     
  9584                           ;mcc_generated_files/pin_manager.c: 78:     ANSEL = 0xFF;
  9585   00348A  687E               	setf	126,c	;volatile
  9586                           
  9587                           ;mcc_generated_files/pin_manager.c: 79:     ANSELH = 0x1F;
  9588   00348C  0E1F               	movlw	31
  9589   00348E  6E7F               	movwf	127,c	;volatile
  9590                           
  9591                           ;mcc_generated_files/pin_manager.c: 84:     WPUB = 0x00;
  9592   003490  0E00               	movlw	0
  9593   003492  6E7C               	movwf	124,c	;volatile
  9594   003494                     
  9595                           ;mcc_generated_files/pin_manager.c: 85:     INTCON2bits.nRBPU = 1;
  9596   003494  8EF1               	bsf	241,7,c	;volatile
  9597   003496  0012               	return		;funcret
  9598   003498                     __end_of_PIN_MANAGER_Initialize:
  9599                           	callstack 0
  9600                           
  9601 ;; *************** function _OSCILLATOR_Initialize *****************
  9602 ;; Defined at:
  9603 ;;		line 65 in file "mcc_generated_files/mcc.c"
  9604 ;; Parameters:    Size  Location     Type
  9605 ;;		None
  9606 ;; Auto vars:     Size  Location     Type
  9607 ;;		None
  9608 ;; Return value:  Size  Location     Type
  9609 ;;                  1    wreg      void 
  9610 ;; Registers used:
  9611 ;;		wreg, status,2
  9612 ;; Tracked objects:
  9613 ;;		On entry : 0/0
  9614 ;;		On exit  : 0/0
  9615 ;;		Unchanged: 0/0
  9616 ;; Data sizes:     COMRAM   BANK0   BANK1   BANK2   BANK3   BANK4   BANK5   BANK6   BANK7   BANK8   BANK9  BANK10  BANK1
      +1  BANK12  BANK13  BANK14  BANK15
  9617 ;;      Params:         0       0       0       0       0       0       0       0       0       0       0       0       
      +0       0       0       0       0
  9618 ;;      Locals:         0       0       0       0       0       0       0       0       0       0       0       0       
      +0       0       0       0       0
  9619 ;;      Temps:          0       0       0       0       0       0       0       0       0       0       0       0       
      +0       0       0       0       0
  9620 ;;      Totals:         0       0       0       0       0       0       0       0       0       0       0       0       
      +0       0       0       0       0
  9621 ;;Total ram usage:        0 bytes
  9622 ;; Hardware stack levels used: 1
  9623 ;; Hardware stack levels required when called: 4
  9624 ;; This function calls:
  9625 ;;		Nothing
  9626 ;; This function is called by:
  9627 ;;		_SYSTEM_Initialize
  9628 ;; This function uses a non-reentrant model
  9629 ;;
  9630                           
  9631                           	psect	text44
  9632   003632                     __ptext44:
  9633                           	callstack 0
  9634   003632                     _OSCILLATOR_Initialize:
  9635                           	callstack 25
  9636   003632                     
  9637                           ;mcc_generated_files/mcc.c: 68:     OSCCON = 0x30;
  9638   003632  0E30               	movlw	48
  9639   003634  6ED3               	movwf	211,c	;volatile
  9640                           
  9641                           ;mcc_generated_files/mcc.c: 70:     OSCTUNE = 0x00;
  9642   003636  0E00               	movlw	0
  9643   003638  6E9B               	movwf	155,c	;volatile
  9644   00363A  0012               	return		;funcret
  9645   00363C                     __end_of_OSCILLATOR_Initialize:
  9646                           	callstack 0
  9647                           
  9648 ;; *************** function _I2C_Initialize *****************
  9649 ;; Defined at:
  9650 ;;		line 167 in file "mcc_generated_files/i2c_master.c"
  9651 ;; Parameters:    Size  Location     Type
  9652 ;;		None
  9653 ;; Auto vars:     Size  Location     Type
  9654 ;;		None
  9655 ;; Return value:  Size  Location     Type
  9656 ;;                  1    wreg      void 
  9657 ;; Registers used:
  9658 ;;		wreg, status,2
  9659 ;; Tracked objects:
  9660 ;;		On entry : 0/0
  9661 ;;		On exit  : 0/0
  9662 ;;		Unchanged: 0/0
  9663 ;; Data sizes:     COMRAM   BANK0   BANK1   BANK2   BANK3   BANK4   BANK5   BANK6   BANK7   BANK8   BANK9  BANK10  BANK1
      +1  BANK12  BANK13  BANK14  BANK15
  9664 ;;      Params:         0       0       0       0       0       0       0       0       0       0       0       0       
      +0       0       0       0       0
  9665 ;;      Locals:         0       0       0       0       0       0       0       0       0       0       0       0       
      +0       0       0       0       0
  9666 ;;      Temps:          0       0       0       0       0       0       0       0       0       0       0       0       
      +0       0       0       0       0
  9667 ;;      Totals:         0       0       0       0       0       0       0       0       0       0       0       0       
      +0       0       0       0       0
  9668 ;;Total ram usage:        0 bytes
  9669 ;; Hardware stack levels used: 1
  9670 ;; Hardware stack levels required when called: 4
  9671 ;; This function calls:
  9672 ;;		Nothing
  9673 ;; This function is called by:
  9674 ;;		_SYSTEM_Initialize
  9675 ;; This function uses a non-reentrant model
  9676 ;;
  9677                           
  9678                           	psect	text45
  9679   0035F8                     __ptext45:
  9680                           	callstack 0
  9681   0035F8                     _I2C_Initialize:
  9682                           	callstack 25
  9683   0035F8                     
  9684                           ;mcc_generated_files/i2c_master.c: 169:     SSPSTAT = 0x00;
  9685   0035F8  0E00               	movlw	0
  9686   0035FA  6EC7               	movwf	199,c	;volatile
  9687                           
  9688                           ;mcc_generated_files/i2c_master.c: 170:     SSPCON1 = 0x08;
  9689   0035FC  0E08               	movlw	8
  9690   0035FE  6EC6               	movwf	198,c	;volatile
  9691                           
  9692                           ;mcc_generated_files/i2c_master.c: 171:     SSPCON2 = 0x00;
  9693   003600  0E00               	movlw	0
  9694   003602  6EC5               	movwf	197,c	;volatile
  9695                           
  9696                           ;mcc_generated_files/i2c_master.c: 172:     SSPADD = 0x27;
  9697   003604  0E27               	movlw	39
  9698   003606  6EC8               	movwf	200,c	;volatile
  9699   003608                     
  9700                           ;mcc_generated_files/i2c_master.c: 173:     SSPCON1bits.SSPEN = 0;
  9701   003608  9AC6               	bcf	198,5,c	;volatile
  9702   00360A  0012               	return		;funcret
  9703   00360C                     __end_of_I2C_Initialize:
  9704                           	callstack 0
  9705                           
  9706 ;; *************** function _EUSART_Initialize *****************
  9707 ;; Defined at:
  9708 ;;		line 66 in file "mcc_generated_files/eusart.c"
  9709 ;; Parameters:    Size  Location     Type
  9710 ;;		None
  9711 ;; Auto vars:     Size  Location     Type
  9712 ;;		None
  9713 ;; Return value:  Size  Location     Type
  9714 ;;                  1    wreg      void 
  9715 ;; Registers used:
  9716 ;;		wreg, status,2, status,0, cstack
  9717 ;; Tracked objects:
  9718 ;;		On entry : 0/0
  9719 ;;		On exit  : 0/0
  9720 ;;		Unchanged: 0/0
  9721 ;; Data sizes:     COMRAM   BANK0   BANK1   BANK2   BANK3   BANK4   BANK5   BANK6   BANK7   BANK8   BANK9  BANK10  BANK1
      +1  BANK12  BANK13  BANK14  BANK15
  9722 ;;      Params:         0       0       0       0       0       0       0       0       0       0       0       0       
      +0       0       0       0       0
  9723 ;;      Locals:         0       0       0       0       0       0       0       0       0       0       0       0       
      +0       0       0       0       0
  9724 ;;      Temps:          0       0       0       0       0       0       0       0       0       0       0       0       
      +0       0       0       0       0
  9725 ;;      Totals:         0       0       0       0       0       0       0       0       0       0       0       0       
      +0       0       0       0       0
  9726 ;;Total ram usage:        0 bytes
  9727 ;; Hardware stack levels used: 1
  9728 ;; Hardware stack levels required when called: 5
  9729 ;; This function calls:
  9730 ;;		_EUSART_SetErrorHandler
  9731 ;;		_EUSART_SetFramingErrorHandler
  9732 ;;		_EUSART_SetOverrunErrorHandler
  9733 ;; This function is called by:
  9734 ;;		_SYSTEM_Initialize
  9735 ;; This function uses a non-reentrant model
  9736 ;;
  9737                           
  9738                           	psect	text46
  9739   003346                     __ptext46:
  9740                           	callstack 0
  9741   003346                     _EUSART_Initialize:
  9742                           	callstack 24
  9743   003346                     
  9744                           ;mcc_generated_files/eusart.c: 71:     BAUDCON = 0x08;
  9745   003346  0E08               	movlw	8
  9746   003348  6EB8               	movwf	184,c	;volatile
  9747                           
  9748                           ;mcc_generated_files/eusart.c: 74:     RCSTA = 0x90;
  9749   00334A  0E90               	movlw	144
  9750   00334C  6EAB               	movwf	171,c	;volatile
  9751                           
  9752                           ;mcc_generated_files/eusart.c: 77:     TXSTA = 0x24;
  9753   00334E  0E24               	movlw	36
  9754   003350  6EAC               	movwf	172,c	;volatile
  9755                           
  9756                           ;mcc_generated_files/eusart.c: 80:     SPBRG = 0xA0;
  9757   003352  0EA0               	movlw	160
  9758   003354  6EAF               	movwf	175,c	;volatile
  9759                           
  9760                           ;mcc_generated_files/eusart.c: 83:     SPBRGH = 0x01;
  9761   003356  0E01               	movlw	1
  9762   003358  6EB0               	movwf	176,c	;volatile
  9763   00335A                     
  9764                           ;mcc_generated_files/eusart.c: 86:     EUSART_SetFramingErrorHandler(EUSART_DefaultFrami
      +                          ngErrorHandler);
  9765   00335A  0E00               	movlw	0
  9766   00335C  6E04               	movwf	EUSART_SetFramingErrorHandler@interruptHandler^0,c
  9767   00335E  0E00               	movlw	0
  9768   003360  6E05               	movwf	(EUSART_SetFramingErrorHandler@interruptHandler+1)^0,c
  9769   003362  EC23  F01B         	call	_EUSART_SetFramingErrorHandler	;wreg free
  9770   003366                     
  9771                           ;mcc_generated_files/eusart.c: 87:     EUSART_SetOverrunErrorHandler(EUSART_DefaultOverr
      +                          unErrorHandler);
  9772   003366  0E00               	movlw	0
  9773   003368  6E04               	movwf	EUSART_SetOverrunErrorHandler@interruptHandler^0,c
  9774   00336A  0E00               	movlw	0
  9775   00336C  6E05               	movwf	(EUSART_SetOverrunErrorHandler@interruptHandler+1)^0,c
  9776   00336E  EC1E  F01B         	call	_EUSART_SetOverrunErrorHandler	;wreg free
  9777   003372                     
  9778                           ;mcc_generated_files/eusart.c: 88:     EUSART_SetErrorHandler(EUSART_DefaultErrorHandler
      +                          );
  9779   003372  0E00               	movlw	0
  9780   003374  6E04               	movwf	EUSART_SetErrorHandler@interruptHandler^0,c
  9781   003376  0E00               	movlw	0
  9782   003378  6E05               	movwf	(EUSART_SetErrorHandler@interruptHandler+1)^0,c
  9783   00337A  EC28  F01B         	call	_EUSART_SetErrorHandler	;wreg free
  9784   00337E                     
  9785                           ;mcc_generated_files/eusart.c: 90:     eusartRxLastError.status = 0;
  9786   00337E  0E00               	movlw	0
  9787   003380  0100               	movlb	0	; () banked
  9788   003382  6FC9               	movwf	_eusartRxLastError& (0+255),b	;volatile
  9789   003384                     
  9790                           ; BSR set to: 0
  9791   003384  0012               	return		;funcret
  9792   003386                     __end_of_EUSART_Initialize:
  9793                           	callstack 0
  9794                           
  9795 ;; *************** function _EUSART_SetOverrunErrorHandler *****************
  9796 ;; Defined at:
  9797 ;;		line 160 in file "mcc_generated_files/eusart.c"
  9798 ;; Parameters:    Size  Location     Type
  9799 ;;  interruptHan    2    3[COMRAM] PTR FTN()void 
  9800 ;;		 -> EUSART_DefaultOverrunErrorHandler(1), 
  9801 ;; Auto vars:     Size  Location     Type
  9802 ;;		None
  9803 ;; Return value:  Size  Location     Type
  9804 ;;                  1    wreg      void 
  9805 ;; Registers used:
  9806 ;;		wreg, status,2, status,0
  9807 ;; Tracked objects:
  9808 ;;		On entry : 0/0
  9809 ;;		On exit  : 0/0
  9810 ;;		Unchanged: 0/0
  9811 ;; Data sizes:     COMRAM   BANK0   BANK1   BANK2   BANK3   BANK4   BANK5   BANK6   BANK7   BANK8   BANK9  BANK10  BANK1
      +1  BANK12  BANK13  BANK14  BANK15
  9812 ;;      Params:         2       0       0       0       0       0       0       0       0       0       0       0       
      +0       0       0       0       0
  9813 ;;      Locals:         0       0       0       0       0       0       0       0       0       0       0       0       
      +0       0       0       0       0
  9814 ;;      Temps:          0       0       0       0       0       0       0       0       0       0       0       0       
      +0       0       0       0       0
  9815 ;;      Totals:         2       0       0       0       0       0       0       0       0       0       0       0       
      +0       0       0       0       0
  9816 ;;Total ram usage:        2 bytes
  9817 ;; Hardware stack levels used: 1
  9818 ;; Hardware stack levels required when called: 4
  9819 ;; This function calls:
  9820 ;;		Nothing
  9821 ;; This function is called by:
  9822 ;;		_EUSART_Initialize
  9823 ;; This function uses a non-reentrant model
  9824 ;;
  9825                           
  9826                           	psect	text47
  9827   00363C                     __ptext47:
  9828                           	callstack 0
  9829   00363C                     _EUSART_SetOverrunErrorHandler:
  9830                           	callstack 24
  9831   00363C                     
  9832                           ;mcc_generated_files/eusart.c: 161:     EUSART_OverrunErrorHandler = interruptHandler;
  9833   00363C  C004  F131         	movff	EUSART_SetOverrunErrorHandler@interruptHandler,_EUSART_OverrunErrorHandler
  9834   003640  C005  F132         	movff	EUSART_SetOverrunErrorHandler@interruptHandler+1,_EUSART_OverrunErrorHandler+1
  9835   003644  0012               	return		;funcret
  9836   003646                     __end_of_EUSART_SetOverrunErrorHandler:
  9837                           	callstack 0
  9838                           
  9839 ;; *************** function _EUSART_SetFramingErrorHandler *****************
  9840 ;; Defined at:
  9841 ;;		line 156 in file "mcc_generated_files/eusart.c"
  9842 ;; Parameters:    Size  Location     Type
  9843 ;;  interruptHan    2    3[COMRAM] PTR FTN()void 
  9844 ;;		 -> EUSART_DefaultFramingErrorHandler(1), 
  9845 ;; Auto vars:     Size  Location     Type
  9846 ;;		None
  9847 ;; Return value:  Size  Location     Type
  9848 ;;                  1    wreg      void 
  9849 ;; Registers used:
  9850 ;;		wreg, status,2, status,0
  9851 ;; Tracked objects:
  9852 ;;		On entry : 0/0
  9853 ;;		On exit  : 0/0
  9854 ;;		Unchanged: 0/0
  9855 ;; Data sizes:     COMRAM   BANK0   BANK1   BANK2   BANK3   BANK4   BANK5   BANK6   BANK7   BANK8   BANK9  BANK10  BANK1
      +1  BANK12  BANK13  BANK14  BANK15
  9856 ;;      Params:         2       0       0       0       0       0       0       0       0       0       0       0       
      +0       0       0       0       0
  9857 ;;      Locals:         0       0       0       0       0       0       0       0       0       0       0       0       
      +0       0       0       0       0
  9858 ;;      Temps:          0       0       0       0       0       0       0       0       0       0       0       0       
      +0       0       0       0       0
  9859 ;;      Totals:         2       0       0       0       0       0       0       0       0       0       0       0       
      +0       0       0       0       0
  9860 ;;Total ram usage:        2 bytes
  9861 ;; Hardware stack levels used: 1
  9862 ;; Hardware stack levels required when called: 4
  9863 ;; This function calls:
  9864 ;;		Nothing
  9865 ;; This function is called by:
  9866 ;;		_EUSART_Initialize
  9867 ;; This function uses a non-reentrant model
  9868 ;;
  9869                           
  9870                           	psect	text48
  9871   003646                     __ptext48:
  9872                           	callstack 0
  9873   003646                     _EUSART_SetFramingErrorHandler:
  9874                           	callstack 24
  9875   003646                     
  9876                           ;mcc_generated_files/eusart.c: 157:     EUSART_FramingErrorHandler = interruptHandler;
  9877   003646  C004  F133         	movff	EUSART_SetFramingErrorHandler@interruptHandler,_EUSART_FramingErrorHandler
  9878   00364A  C005  F134         	movff	EUSART_SetFramingErrorHandler@interruptHandler+1,_EUSART_FramingErrorHandler+1
  9879   00364E  0012               	return		;funcret
  9880   003650                     __end_of_EUSART_SetFramingErrorHandler:
  9881                           	callstack 0
  9882                           
  9883 ;; *************** function _EUSART_SetErrorHandler *****************
  9884 ;; Defined at:
  9885 ;;		line 164 in file "mcc_generated_files/eusart.c"
  9886 ;; Parameters:    Size  Location     Type
  9887 ;;  interruptHan    2    3[COMRAM] PTR FTN()void 
  9888 ;;		 -> EUSART_DefaultErrorHandler(1), 
  9889 ;; Auto vars:     Size  Location     Type
  9890 ;;		None
  9891 ;; Return value:  Size  Location     Type
  9892 ;;                  1    wreg      void 
  9893 ;; Registers used:
  9894 ;;		wreg, status,2, status,0
  9895 ;; Tracked objects:
  9896 ;;		On entry : 0/0
  9897 ;;		On exit  : 0/0
  9898 ;;		Unchanged: 0/0
  9899 ;; Data sizes:     COMRAM   BANK0   BANK1   BANK2   BANK3   BANK4   BANK5   BANK6   BANK7   BANK8   BANK9  BANK10  BANK1
      +1  BANK12  BANK13  BANK14  BANK15
  9900 ;;      Params:         2       0       0       0       0       0       0       0       0       0       0       0       
      +0       0       0       0       0
  9901 ;;      Locals:         0       0       0       0       0       0       0       0       0       0       0       0       
      +0       0       0       0       0
  9902 ;;      Temps:          0       0       0       0       0       0       0       0       0       0       0       0       
      +0       0       0       0       0
  9903 ;;      Totals:         2       0       0       0       0       0       0       0       0       0       0       0       
      +0       0       0       0       0
  9904 ;;Total ram usage:        2 bytes
  9905 ;; Hardware stack levels used: 1
  9906 ;; Hardware stack levels required when called: 4
  9907 ;; This function calls:
  9908 ;;		Nothing
  9909 ;; This function is called by:
  9910 ;;		_EUSART_Initialize
  9911 ;; This function uses a non-reentrant model
  9912 ;;
  9913                           
  9914                           	psect	text49
  9915   003650                     __ptext49:
  9916                           	callstack 0
  9917   003650                     _EUSART_SetErrorHandler:
  9918                           	callstack 24
  9919   003650                     
  9920                           ;mcc_generated_files/eusart.c: 165:     EUSART_ErrorHandler = interruptHandler;
  9921   003650  C004  F12F         	movff	EUSART_SetErrorHandler@interruptHandler,_EUSART_ErrorHandler
  9922   003654  C005  F130         	movff	EUSART_SetErrorHandler@interruptHandler+1,_EUSART_ErrorHandler+1
  9923   003658  0012               	return		;funcret
  9924   00365A                     __end_of_EUSART_SetErrorHandler:
  9925                           	callstack 0
  9926                           
  9927 ;; *************** function _ADC_Initialize *****************
  9928 ;; Defined at:
  9929 ;;		line 62 in file "mcc_generated_files/adc.c"
  9930 ;; Parameters:    Size  Location     Type
  9931 ;;		None
  9932 ;; Auto vars:     Size  Location     Type
  9933 ;;		None
  9934 ;; Return value:  Size  Location     Type
  9935 ;;                  1    wreg      void 
  9936 ;; Registers used:
  9937 ;;		wreg, status,2
  9938 ;; Tracked objects:
  9939 ;;		On entry : 0/0
  9940 ;;		On exit  : 0/0
  9941 ;;		Unchanged: 0/0
  9942 ;; Data sizes:     COMRAM   BANK0   BANK1   BANK2   BANK3   BANK4   BANK5   BANK6   BANK7   BANK8   BANK9  BANK10  BANK1
      +1  BANK12  BANK13  BANK14  BANK15
  9943 ;;      Params:         0       0       0       0       0       0       0       0       0       0       0       0       
      +0       0       0       0       0
  9944 ;;      Locals:         0       0       0       0       0       0       0       0       0       0       0       0       
      +0       0       0       0       0
  9945 ;;      Temps:          0       0       0       0       0       0       0       0       0       0       0       0       
      +0       0       0       0       0
  9946 ;;      Totals:         0       0       0       0       0       0       0       0       0       0       0       0       
      +0       0       0       0       0
  9947 ;;Total ram usage:        0 bytes
  9948 ;; Hardware stack levels used: 1
  9949 ;; Hardware stack levels required when called: 4
  9950 ;; This function calls:
  9951 ;;		Nothing
  9952 ;; This function is called by:
  9953 ;;		_SYSTEM_Initialize
  9954 ;; This function uses a non-reentrant model
  9955 ;;
  9956                           
  9957                           	psect	text50
  9958   0035E2                     __ptext50:
  9959                           	callstack 0
  9960   0035E2                     _ADC_Initialize:
  9961                           	callstack 25
  9962   0035E2                     
  9963                           ;mcc_generated_files/adc.c: 67:     ADCON1 = 0x00;
  9964   0035E2  0E00               	movlw	0
  9965   0035E4  6EC1               	movwf	193,c	;volatile
  9966                           
  9967                           ;mcc_generated_files/adc.c: 70:     ADCON2 = 0x00;
  9968   0035E6  0E00               	movlw	0
  9969   0035E8  6EC0               	movwf	192,c	;volatile
  9970                           
  9971                           ;mcc_generated_files/adc.c: 73:     ADRESL = 0x00;
  9972   0035EA  0E00               	movlw	0
  9973   0035EC  6EC3               	movwf	195,c	;volatile
  9974                           
  9975                           ;mcc_generated_files/adc.c: 76:     ADRESH = 0x00;
  9976   0035EE  0E00               	movlw	0
  9977   0035F0  6EC4               	movwf	196,c	;volatile
  9978                           
  9979                           ;mcc_generated_files/adc.c: 79:     ADCON0 = 0x01;
  9980   0035F2  0E01               	movlw	1
  9981   0035F4  6EC2               	movwf	194,c	;volatile
  9982   0035F6  0012               	return		;funcret
  9983   0035F8                     __end_of_ADC_Initialize:
  9984                           	callstack 0
  9985                           
  9986 ;; *************** function _MSSP_I2C_Init *****************
  9987 ;; Defined at:
  9988 ;;		line 19 in file "I2C/I2C.c"
  9989 ;; Parameters:    Size  Location     Type
  9990 ;;  i2c_obj         1   70[COMRAM] PTR const struct .
  9991 ;;		 -> i2c_obj(7), 
  9992 ;; Auto vars:     Size  Location     Type
  9993 ;;  ret             1    0        unsigned char 
  9994 ;; Return value:  Size  Location     Type
  9995 ;;                  1    wreg      unsigned char 
  9996 ;; Registers used:
  9997 ;;		wreg, fsr2l, fsr2h, status,2, status,0, cstack
  9998 ;; Tracked objects:
  9999 ;;		On entry : 0/0
 10000 ;;		On exit  : 0/0
 10001 ;;		Unchanged: 0/0
 10002 ;; Data sizes:     COMRAM   BANK0   BANK1   BANK2   BANK3   BANK4   BANK5   BANK6   BANK7   BANK8   BANK9  BANK10  BANK1
      +1  BANK12  BANK13  BANK14  BANK15
 10003 ;;      Params:         1       0       0       0       0       0       0       0       0       0       0       0       
      +0       0       0       0       0
 10004 ;;      Locals:         0       0       0       0       0       0       0       0       0       0       0       0       
      +0       0       0       0       0
 10005 ;;      Temps:          0       0       0       0       0       0       0       0       0       0       0       0       
      +0       0       0       0       0
 10006 ;;      Totals:         1       0       0       0       0       0       0       0       0       0       0       0       
      +0       0       0       0       0
 10007 ;;Total ram usage:        1 bytes
 10008 ;; Hardware stack levels used: 1
 10009 ;; Hardware stack levels required when called: 6
 10010 ;; This function calls:
 10011 ;;		_I2C_Master_Mode_Clock_Configurations
 10012 ;;		_I2C_Slave_Mode_Configurations
 10013 ;;		_MSSP_I2C_Mode_GPIO_CFG
 10014 ;; This function is called by:
 10015 ;;		_main
 10016 ;; This function uses a non-reentrant model
 10017 ;;
 10018                           
 10019                           	psect	text51
 10020   00236A                     __ptext51:
 10021                           	callstack 0
 10022   00236A                     _MSSP_I2C_Init:
 10023                           	callstack 24
 10024   00236A                     
 10025                           ;I2C/I2C.c: 21:     if(((void*)0) == i2c_obj){
 10026   00236A  5047               	movf	MSSP_I2C_Init@i2c_obj^0,w,c
 10027   00236C  A4D8               	btfss	status,2,c
 10028   00236E  EFBB  F011         	goto	u9121
 10029   002372  EFBD  F011         	goto	u9120
 10030   002376                     u9121:
 10031   002376  EFBF  F011         	goto	l242
 10032   00237A                     u9120:
 10033   00237A                     
 10034                           ;I2C/I2C.c: 23:     }
 10035   00237A  EF45  F012         	goto	l260
 10036   00237E                     l242:
 10037                           
 10038                           ;I2C/I2C.c: 26:         (SSPCON1bits.SSPEN = 0);
 10039   00237E  9AC6               	bcf	198,5,c	;volatile
 10040   002380                     
 10041                           ;I2C/I2C.c: 28:                     (TRISC &= ~((uint8)1 << 0x3));
 10042   002380  9694               	bcf	148,3,c	;volatile
 10043                           
 10044                           ;I2C/I2C.c: 29:             (TRISC &= ~((uint8)1 << 0x4));
 10045   002382  9894               	bcf	148,4,c	;volatile
 10046   002384                     
 10047                           ;I2C/I2C.c: 32:         if(1 == i2c_obj->i2c_cfg.i2c_mode){
 10048   002384  5047               	movf	MSSP_I2C_Init@i2c_obj^0,w,c
 10049   002386  6ED9               	movwf	fsr2l,c
 10050   002388  6ADA               	clrf	fsr2h,c
 10051   00238A  0E06               	movlw	6
 10052   00238C  26D9               	addwf	fsr2l,f,c
 10053   00238E  A0DF               	btfss	indf2,0,c
 10054   002390  EFCC  F011         	goto	u9131
 10055   002394  EFCE  F011         	goto	u9130
 10056   002398                     u9131:
 10057   002398  EFD4  F011         	goto	l11289
 10058   00239C                     u9130:
 10059   00239C                     
 10060                           ;I2C/I2C.c: 37:             I2C_Master_Mode_Clock_Configurations(i2c_obj);
 10061   00239C  C047  F045         	movff	MSSP_I2C_Init@i2c_obj,I2C_Master_Mode_Clock_Configurations@i2c_obj
 10062   0023A0  EC19  F016         	call	_I2C_Master_Mode_Clock_Configurations	;wreg free
 10063                           
 10064                           ;I2C/I2C.c: 39:         }
 10065   0023A4  EF0A  F012         	goto	l11303
 10066   0023A8                     l11289:
 10067   0023A8  5047               	movf	MSSP_I2C_Init@i2c_obj^0,w,c
 10068   0023AA  6ED9               	movwf	fsr2l,c
 10069   0023AC  6ADA               	clrf	fsr2h,c
 10070   0023AE  0E06               	movlw	6
 10071   0023B0  26D9               	addwf	fsr2l,f,c
 10072   0023B2  B0DF               	btfsc	indf2,0,c
 10073   0023B4  EFDE  F011         	goto	u9141
 10074   0023B8  EFE0  F011         	goto	u9140
 10075   0023BC                     u9141:
 10076   0023BC  EF0A  F012         	goto	l11303
 10077   0023C0                     u9140:
 10078   0023C0                     
 10079                           ;I2C/I2C.c: 44:             if(1 == i2c_obj->i2c_cfg.i2c_general_call){
 10080   0023C0  5047               	movf	MSSP_I2C_Init@i2c_obj^0,w,c
 10081   0023C2  6ED9               	movwf	fsr2l,c
 10082   0023C4  6ADA               	clrf	fsr2h,c
 10083   0023C6  0E06               	movlw	6
 10084   0023C8  26D9               	addwf	fsr2l,f,c
 10085   0023CA  A6DF               	btfss	indf2,3,c
 10086   0023CC  EFEA  F011         	goto	u9151
 10087   0023D0  EFEC  F011         	goto	u9150
 10088   0023D4                     u9151:
 10089   0023D4  EFEF  F011         	goto	l11295
 10090   0023D8                     u9150:
 10091   0023D8                     
 10092                           ;I2C/I2C.c: 45:                 (SSPCON2bits.GCEN = 1);
 10093   0023D8  8EC5               	bsf	197,7,c	;volatile
 10094                           
 10095                           ;I2C/I2C.c: 46:             }
 10096   0023DA  EFFC  F011         	goto	l248
 10097   0023DE                     l11295:
 10098   0023DE  5047               	movf	MSSP_I2C_Init@i2c_obj^0,w,c
 10099   0023E0  6ED9               	movwf	fsr2l,c
 10100   0023E2  6ADA               	clrf	fsr2h,c
 10101   0023E4  0E06               	movlw	6
 10102   0023E6  26D9               	addwf	fsr2l,f,c
 10103   0023E8  B6DF               	btfsc	indf2,3,c
 10104   0023EA  EFF9  F011         	goto	u9161
 10105   0023EE  EFFB  F011         	goto	u9160
 10106   0023F2                     u9161:
 10107   0023F2  EFFC  F011         	goto	l248
 10108   0023F6                     u9160:
 10109   0023F6                     
 10110                           ;I2C/I2C.c: 48:                 (SSPCON2bits.GCEN = 0);
 10111   0023F6  9EC5               	bcf	197,7,c	;volatile
 10112   0023F8                     l248:
 10113                           
 10114                           ;I2C/I2C.c: 52:             SSPCON1bits.WCOL = 0;
 10115   0023F8  9EC6               	bcf	198,7,c	;volatile
 10116                           
 10117                           ;I2C/I2C.c: 54:             SSPCON1bits.SSPOV = 0;
 10118   0023FA  9CC6               	bcf	198,6,c	;volatile
 10119                           
 10120                           ;I2C/I2C.c: 56:             SSPCON1bits.CKP = 1;
 10121   0023FC  88C6               	bsf	198,4,c	;volatile
 10122   0023FE                     
 10123                           ;I2C/I2C.c: 58:             SSPADD = i2c_obj->i2c_cfg.i2c_slave_address;
 10124   0023FE  5047               	movf	MSSP_I2C_Init@i2c_obj^0,w,c
 10125   002400  6ED9               	movwf	fsr2l,c
 10126   002402  6ADA               	clrf	fsr2h,c
 10127   002404  0E05               	movlw	5
 10128   002406  26D9               	addwf	fsr2l,f,c
 10129   002408  50DF               	movf	indf2,w,c
 10130   00240A  6EC8               	movwf	200,c	;volatile
 10131   00240C                     
 10132                           ;I2C/I2C.c: 60:             I2C_Slave_Mode_Configurations(i2c_obj);
 10133   00240C  C047  F004         	movff	MSSP_I2C_Init@i2c_obj,I2C_Slave_Mode_Configurations@i2c_obj
 10134   002410  ECD9  F01A         	call	_I2C_Slave_Mode_Configurations	;wreg free
 10135   002414                     l11303:
 10136                           
 10137                           ;I2C/I2C.c: 64:         MSSP_I2C_Mode_GPIO_CFG();
 10138   002414  EC31  F01B         	call	_MSSP_I2C_Mode_GPIO_CFG	;wreg free
 10139   002418                     
 10140                           ;I2C/I2C.c: 66:         if(1 == i2c_obj->i2c_cfg.i2c_slew_rate){
 10141   002418  5047               	movf	MSSP_I2C_Init@i2c_obj^0,w,c
 10142   00241A  6ED9               	movwf	fsr2l,c
 10143   00241C  6ADA               	clrf	fsr2h,c
 10144   00241E  0E06               	movlw	6
 10145   002420  26D9               	addwf	fsr2l,f,c
 10146   002422  A2DF               	btfss	indf2,1,c
 10147   002424  EF16  F012         	goto	u9171
 10148   002428  EF18  F012         	goto	u9170
 10149   00242C                     u9171:
 10150   00242C  EF1B  F012         	goto	l11309
 10151   002430                     u9170:
 10152   002430                     
 10153                           ;I2C/I2C.c: 67:             (SSPSTATbits.SMP = 1);
 10154   002430  8EC7               	bsf	199,7,c	;volatile
 10155                           
 10156                           ;I2C/I2C.c: 68:         }
 10157   002432  EF28  F012         	goto	l11313
 10158   002436                     l11309:
 10159   002436  5047               	movf	MSSP_I2C_Init@i2c_obj^0,w,c
 10160   002438  6ED9               	movwf	fsr2l,c
 10161   00243A  6ADA               	clrf	fsr2h,c
 10162   00243C  0E06               	movlw	6
 10163   00243E  26D9               	addwf	fsr2l,f,c
 10164   002440  B2DF               	btfsc	indf2,1,c
 10165   002442  EF25  F012         	goto	u9181
 10166   002446  EF27  F012         	goto	u9180
 10167   00244A                     u9181:
 10168   00244A  EF28  F012         	goto	l11313
 10169   00244E                     u9180:
 10170   00244E                     
 10171                           ;I2C/I2C.c: 70:             (SSPSTATbits.SMP = 0);
 10172   00244E  9EC7               	bcf	199,7,c	;volatile
 10173   002450                     l11313:
 10174                           
 10175                           ;I2C/I2C.c: 74:         if(1 == i2c_obj->i2c_cfg.i2c_SMBus_control){
 10176   002450  5047               	movf	MSSP_I2C_Init@i2c_obj^0,w,c
 10177   002452  6ED9               	movwf	fsr2l,c
 10178   002454  6ADA               	clrf	fsr2h,c
 10179   002456  0E06               	movlw	6
 10180   002458  26D9               	addwf	fsr2l,f,c
 10181   00245A  A4DF               	btfss	indf2,2,c
 10182   00245C  EF32  F012         	goto	u9191
 10183   002460  EF34  F012         	goto	u9190
 10184   002464                     u9191:
 10185   002464  EF37  F012         	goto	l11317
 10186   002468                     u9190:
 10187   002468                     
 10188                           ;I2C/I2C.c: 75:             (SSPSTATbits.CKE = 1);
 10189   002468  8CC7               	bsf	199,6,c	;volatile
 10190                           
 10191                           ;I2C/I2C.c: 76:         }
 10192   00246A  EF44  F012         	goto	l257
 10193   00246E                     l11317:
 10194   00246E  5047               	movf	MSSP_I2C_Init@i2c_obj^0,w,c
 10195   002470  6ED9               	movwf	fsr2l,c
 10196   002472  6ADA               	clrf	fsr2h,c
 10197   002474  0E06               	movlw	6
 10198   002476  26D9               	addwf	fsr2l,f,c
 10199   002478  B4DF               	btfsc	indf2,2,c
 10200   00247A  EF41  F012         	goto	u9201
 10201   00247E  EF43  F012         	goto	u9200
 10202   002482                     u9201:
 10203   002482  EF44  F012         	goto	l257
 10204   002486                     u9200:
 10205   002486                     
 10206                           ;I2C/I2C.c: 78:             (SSPSTATbits.CKE = 0);
 10207   002486  9CC7               	bcf	199,6,c	;volatile
 10208   002488                     l257:
 10209                           
 10210                           ;I2C/I2C.c: 83:         (SSPCON1bits.SSPEN = 1);
 10211   002488  8AC6               	bsf	198,5,c	;volatile
 10212   00248A                     l260:
 10213   00248A  0012               	return		;funcret
 10214   00248C                     __end_of_MSSP_I2C_Init:
 10215                           	callstack 0
 10216                           
 10217 ;; *************** function _MSSP_I2C_Mode_GPIO_CFG *****************
 10218 ;; Defined at:
 10219 ;;		line 258 in file "I2C/I2C.c"
 10220 ;; Parameters:    Size  Location     Type
 10221 ;;		None
 10222 ;; Auto vars:     Size  Location     Type
 10223 ;;		None
 10224 ;; Return value:  Size  Location     Type
 10225 ;;                  1    wreg      void 
 10226 ;; Registers used:
 10227 ;;		None
 10228 ;; Tracked objects:
 10229 ;;		On entry : 0/0
 10230 ;;		On exit  : 0/0
 10231 ;;		Unchanged: 0/0
 10232 ;; Data sizes:     COMRAM   BANK0   BANK1   BANK2   BANK3   BANK4   BANK5   BANK6   BANK7   BANK8   BANK9  BANK10  BANK1
      +1  BANK12  BANK13  BANK14  BANK15
 10233 ;;      Params:         0       0       0       0       0       0       0       0       0       0       0       0       
      +0       0       0       0       0
 10234 ;;      Locals:         0       0       0       0       0       0       0       0       0       0       0       0       
      +0       0       0       0       0
 10235 ;;      Temps:          0       0       0       0       0       0       0       0       0       0       0       0       
      +0       0       0       0       0
 10236 ;;      Totals:         0       0       0       0       0       0       0       0       0       0       0       0       
      +0       0       0       0       0
 10237 ;;Total ram usage:        0 bytes
 10238 ;; Hardware stack levels used: 1
 10239 ;; Hardware stack levels required when called: 4
 10240 ;; This function calls:
 10241 ;;		Nothing
 10242 ;; This function is called by:
 10243 ;;		_MSSP_I2C_Init
 10244 ;; This function uses a non-reentrant model
 10245 ;;
 10246                           
 10247                           	psect	text52
 10248   003662                     __ptext52:
 10249                           	callstack 0
 10250   003662                     _MSSP_I2C_Mode_GPIO_CFG:
 10251                           	callstack 25
 10252   003662                     
 10253                           ;I2C/I2C.c: 259:     TRISCbits.TRISC3 = 1;
 10254   003662  8694               	bsf	148,3,c	;volatile
 10255                           
 10256                           ;I2C/I2C.c: 260:     TRISCbits.TRISC4 = 1;
 10257   003664  8894               	bsf	148,4,c	;volatile
 10258   003666  0012               	return		;funcret
 10259   003668                     __end_of_MSSP_I2C_Mode_GPIO_CFG:
 10260                           	callstack 0
 10261                           
 10262 ;; *************** function _I2C_Slave_Mode_Configurations *****************
 10263 ;; Defined at:
 10264 ;;		line 269 in file "I2C/I2C.c"
 10265 ;; Parameters:    Size  Location     Type
 10266 ;;  i2c_obj         1    3[COMRAM] PTR const struct .
 10267 ;;		 -> i2c_obj(7), 
 10268 ;; Auto vars:     Size  Location     Type
 10269 ;;		None
 10270 ;; Return value:  Size  Location     Type
 10271 ;;                  1    wreg      void 
 10272 ;; Registers used:
 10273 ;;		wreg, fsr2l, fsr2h, status,2, status,0
 10274 ;; Tracked objects:
 10275 ;;		On entry : 0/0
 10276 ;;		On exit  : 0/0
 10277 ;;		Unchanged: 0/0
 10278 ;; Data sizes:     COMRAM   BANK0   BANK1   BANK2   BANK3   BANK4   BANK5   BANK6   BANK7   BANK8   BANK9  BANK10  BANK1
      +1  BANK12  BANK13  BANK14  BANK15
 10279 ;;      Params:         1       0       0       0       0       0       0       0       0       0       0       0       
      +0       0       0       0       0
 10280 ;;      Locals:         0       0       0       0       0       0       0       0       0       0       0       0       
      +0       0       0       0       0
 10281 ;;      Temps:          1       0       0       0       0       0       0       0       0       0       0       0       
      +0       0       0       0       0
 10282 ;;      Totals:         2       0       0       0       0       0       0       0       0       0       0       0       
      +0       0       0       0       0
 10283 ;;Total ram usage:        2 bytes
 10284 ;; Hardware stack levels used: 1
 10285 ;; Hardware stack levels required when called: 4
 10286 ;; This function calls:
 10287 ;;		Nothing
 10288 ;; This function is called by:
 10289 ;;		_MSSP_I2C_Init
 10290 ;; This function uses a non-reentrant model
 10291 ;;
 10292                           
 10293                           	psect	text53
 10294   0035B2                     __ptext53:
 10295                           	callstack 0
 10296   0035B2                     _I2C_Slave_Mode_Configurations:
 10297                           	callstack 25
 10298   0035B2                     
 10299                           ;I2C/I2C.c: 270:     SSPCON1bits.SSPM = i2c_obj->i2c_cfg.i2c_mode_cfg;
 10300   0035B2  5004               	movf	I2C_Slave_Mode_Configurations@i2c_obj^0,w,c
 10301   0035B4  6ED9               	movwf	fsr2l,c
 10302   0035B6  6ADA               	clrf	fsr2h,c
 10303   0035B8  0E04               	movlw	4
 10304   0035BA  26D9               	addwf	fsr2l,f,c
 10305   0035BC  50DF               	movf	indf2,w,c
 10306   0035BE  6E05               	movwf	??_I2C_Slave_Mode_Configurations^0,c
 10307   0035C0  50C6               	movf	198,w,c	;volatile
 10308   0035C2  1805               	xorwf	??_I2C_Slave_Mode_Configurations^0,w,c
 10309   0035C4  0BF0               	andlw	-16
 10310   0035C6  1805               	xorwf	??_I2C_Slave_Mode_Configurations^0,w,c
 10311   0035C8  6EC6               	movwf	198,c	;volatile
 10312   0035CA  0012               	return		;funcret
 10313   0035CC                     __end_of_I2C_Slave_Mode_Configurations:
 10314                           	callstack 0
 10315                           
 10316 ;; *************** function _I2C_Master_Mode_Clock_Configurations *****************
 10317 ;; Defined at:
 10318 ;;		line 263 in file "I2C/I2C.c"
 10319 ;; Parameters:    Size  Location     Type
 10320 ;;  i2c_obj         1   68[COMRAM] PTR const struct .
 10321 ;;		 -> i2c_obj(7), 
 10322 ;; Auto vars:     Size  Location     Type
 10323 ;;		None
 10324 ;; Return value:  Size  Location     Type
 10325 ;;                  1    wreg      void 
 10326 ;; Registers used:
 10327 ;;		wreg, fsr2l, fsr2h, status,2, status,0, cstack
 10328 ;; Tracked objects:
 10329 ;;		On entry : 0/0
 10330 ;;		On exit  : 0/0
 10331 ;;		Unchanged: 0/0
 10332 ;; Data sizes:     COMRAM   BANK0   BANK1   BANK2   BANK3   BANK4   BANK5   BANK6   BANK7   BANK8   BANK9  BANK10  BANK1
      +1  BANK12  BANK13  BANK14  BANK15
 10333 ;;      Params:         1       0       0       0       0       0       0       0       0       0       0       0       
      +0       0       0       0       0
 10334 ;;      Locals:         0       0       0       0       0       0       0       0       0       0       0       0       
      +0       0       0       0       0
 10335 ;;      Temps:          1       0       0       0       0       0       0       0       0       0       0       0       
      +0       0       0       0       0
 10336 ;;      Totals:         2       0       0       0       0       0       0       0       0       0       0       0       
      +0       0       0       0       0
 10337 ;;Total ram usage:        2 bytes
 10338 ;; Hardware stack levels used: 1
 10339 ;; Hardware stack levels required when called: 5
 10340 ;; This function calls:
 10341 ;;		___fladd
 10342 ;;		___fldiv
 10343 ;;		___fltol
 10344 ;;		___xxtofl
 10345 ;; This function is called by:
 10346 ;;		_MSSP_I2C_Init
 10347 ;; This function uses a non-reentrant model
 10348 ;;
 10349                           
 10350                           	psect	text54
 10351   002C32                     __ptext54:
 10352                           	callstack 0
 10353   002C32                     _I2C_Master_Mode_Clock_Configurations:
 10354                           	callstack 24
 10355   002C32                     
 10356                           ;I2C/I2C.c: 265:     SSPCON1bits.SSPM = i2c_obj->i2c_cfg.i2c_mode_cfg;
 10357   002C32  5045               	movf	I2C_Master_Mode_Clock_Configurations@i2c_obj^0,w,c
 10358   002C34  6ED9               	movwf	fsr2l,c
 10359   002C36  6ADA               	clrf	fsr2h,c
 10360   002C38  0E04               	movlw	4
 10361   002C3A  26D9               	addwf	fsr2l,f,c
 10362   002C3C  50DF               	movf	indf2,w,c
 10363   002C3E  6E46               	movwf	??_I2C_Master_Mode_Clock_Configurations^0,c
 10364   002C40  50C6               	movf	198,w,c	;volatile
 10365   002C42  1846               	xorwf	??_I2C_Master_Mode_Clock_Configurations^0,w,c
 10366   002C44  0BF0               	andlw	-16
 10367   002C46  1846               	xorwf	??_I2C_Master_Mode_Clock_Configurations^0,w,c
 10368   002C48  6EC6               	movwf	198,c	;volatile
 10369   002C4A                     
 10370                           ;I2C/I2C.c: 266:     SSPADD = (uint8)(((8000000 / 4.0) / i2c_obj->i2c_clock) - 1);
 10371   002C4A  0E00               	movlw	0
 10372   002C4C  6E2F               	movwf	___fladd@a^0,c
 10373   002C4E  0E00               	movlw	0
 10374   002C50  6E30               	movwf	(___fladd@a+1)^0,c
 10375   002C52  0E80               	movlw	128
 10376   002C54  6E31               	movwf	(___fladd@a+2)^0,c
 10377   002C56  0EBF               	movlw	191
 10378   002C58  6E32               	movwf	(___fladd@a+3)^0,c
 10379   002C5A  5045               	movf	I2C_Master_Mode_Clock_Configurations@i2c_obj^0,w,c
 10380   002C5C  6ED9               	movwf	fsr2l,c
 10381   002C5E  6ADA               	clrf	fsr2h,c
 10382   002C60  CFDE F004          	movff	postinc2,___xxtofl@val
 10383   002C64  CFDE F005          	movff	postinc2,___xxtofl@val+1
 10384   002C68  CFDE F006          	movff	postinc2,___xxtofl@val+2
 10385   002C6C  CFDE F007          	movff	postinc2,___xxtofl@val+3
 10386   002C70  0E00               	movlw	0
 10387   002C72  EC2A  F010         	call	___xxtofl
 10388   002C76  C004  F016         	movff	?___xxtofl,___fldiv@a
 10389   002C7A  C005  F017         	movff	?___xxtofl+1,___fldiv@a+1
 10390   002C7E  C006  F018         	movff	?___xxtofl+2,___fldiv@a+2
 10391   002C82  C007  F019         	movff	?___xxtofl+3,___fldiv@a+3
 10392   002C86  0E00               	movlw	0
 10393   002C88  6E12               	movwf	___fldiv@b^0,c
 10394   002C8A  0E24               	movlw	36
 10395   002C8C  6E13               	movwf	(___fldiv@b+1)^0,c
 10396   002C8E  0EF4               	movlw	244
 10397   002C90  6E14               	movwf	(___fldiv@b+2)^0,c
 10398   002C92  0E49               	movlw	73
 10399   002C94  6E15               	movwf	(___fldiv@b+3)^0,c
 10400   002C96  ECC8  F009         	call	___fldiv	;wreg free
 10401   002C9A  C012  F02B         	movff	?___fldiv,___fladd@b
 10402   002C9E  C013  F02C         	movff	?___fldiv+1,___fladd@b+1
 10403   002CA2  C014  F02D         	movff	?___fldiv+2,___fladd@b+2
 10404   002CA6  C015  F02E         	movff	?___fldiv+3,___fladd@b+3
 10405   002CAA  EC53  F005         	call	___fladd	;wreg free
 10406   002CAE  C02B  F03B         	movff	?___fladd,___fltol@f1
 10407   002CB2  C02C  F03C         	movff	?___fladd+1,___fltol@f1+1
 10408   002CB6  C02D  F03D         	movff	?___fladd+2,___fltol@f1+2
 10409   002CBA  C02E  F03E         	movff	?___fladd+3,___fltol@f1+3
 10410   002CBE  EC57  F013         	call	___fltol	;wreg free
 10411   002CC2  503B               	movf	?___fltol^0,w,c
 10412   002CC4  6EC8               	movwf	200,c	;volatile
 10413   002CC6  0012               	return		;funcret
 10414   002CC8                     __end_of_I2C_Master_Mode_Clock_Configurations:
 10415                           	callstack 0
 10416                           
 10417 ;; *************** function ___xxtofl *****************
 10418 ;; Defined at:
 10419 ;;		line 10 in file "C:\Program Files\Microchip\xc8\v2.46\pic\sources\c99\common\xxtofl.c"
 10420 ;; Parameters:    Size  Location     Type
 10421 ;;  sign            1    wreg     unsigned char 
 10422 ;;  val             4    3[COMRAM] long 
 10423 ;; Auto vars:     Size  Location     Type
 10424 ;;  sign            1   11[COMRAM] unsigned char 
 10425 ;;  arg             4   13[COMRAM] unsigned long 
 10426 ;;  exp             1   12[COMRAM] unsigned char 
 10427 ;; Return value:  Size  Location     Type
 10428 ;;                  4    3[COMRAM] unsigned char 
 10429 ;; Registers used:
 10430 ;;		wreg, status,2, status,0
 10431 ;; Tracked objects:
 10432 ;;		On entry : 0/0
 10433 ;;		On exit  : 0/0
 10434 ;;		Unchanged: 0/0
 10435 ;; Data sizes:     COMRAM   BANK0   BANK1   BANK2   BANK3   BANK4   BANK5   BANK6   BANK7   BANK8   BANK9  BANK10  BANK1
      +1  BANK12  BANK13  BANK14  BANK15
 10436 ;;      Params:         4       0       0       0       0       0       0       0       0       0       0       0       
      +0       0       0       0       0
 10437 ;;      Locals:         6       0       0       0       0       0       0       0       0       0       0       0       
      +0       0       0       0       0
 10438 ;;      Temps:          4       0       0       0       0       0       0       0       0       0       0       0       
      +0       0       0       0       0
 10439 ;;      Totals:        14       0       0       0       0       0       0       0       0       0       0       0       
      +0       0       0       0       0
 10440 ;;Total ram usage:       14 bytes
 10441 ;; Hardware stack levels used: 1
 10442 ;; Hardware stack levels required when called: 4
 10443 ;; This function calls:
 10444 ;;		Nothing
 10445 ;; This function is called by:
 10446 ;;		_I2C_Master_Mode_Clock_Configurations
 10447 ;;		_room_1
 10448 ;;		_room_2
 10449 ;;		_garage
 10450 ;;		_mcal_ccp1_initialization
 10451 ;;		_mcal_ccp1_pwm_set_duty
 10452 ;;		_ecu_keypad_get_value
 10453 ;; This function uses a non-reentrant model
 10454 ;;
 10455                           
 10456                           	psect	text55
 10457   002054                     __ptext55:
 10458                           	callstack 0
 10459   002054                     ___xxtofl:
 10460                           	callstack 25
 10461                           
 10462                           ;incstack = 0
 10463                           ;___xxtofl@sign stored from wreg
 10464   002054  6E0C               	movwf	___xxtofl@sign^0,c
 10465   002056  500C               	movf	___xxtofl@sign^0,w,c
 10466   002058  B4D8               	btfsc	status,2,c
 10467   00205A  EF31  F010         	goto	u8631
 10468   00205E  EF33  F010         	goto	u8630
 10469   002062                     u8631:
 10470   002062  EF55  F010         	goto	l2818
 10471   002066                     u8630:
 10472   002066  BE07               	btfsc	(___xxtofl@val+3)^0,7,c
 10473   002068  EF3A  F010         	goto	u8640
 10474   00206C  EF38  F010         	goto	u8641
 10475   002070                     u8641:
 10476   002070  EF55  F010         	goto	l2818
 10477   002074                     u8640:
 10478   002074  C004  F008         	movff	___xxtofl@val,??___xxtofl
 10479   002078  C005  F009         	movff	___xxtofl@val+1,??___xxtofl+1
 10480   00207C  C006  F00A         	movff	___xxtofl@val+2,??___xxtofl+2
 10481   002080  C007  F00B         	movff	___xxtofl@val+3,??___xxtofl+3
 10482   002084  1E08               	comf	??___xxtofl^0,f,c
 10483   002086  1E09               	comf	(??___xxtofl+1)^0,f,c
 10484   002088  1E0A               	comf	(??___xxtofl+2)^0,f,c
 10485   00208A  1E0B               	comf	(??___xxtofl+3)^0,f,c
 10486   00208C  2A08               	incf	??___xxtofl^0,f,c
 10487   00208E  0E00               	movlw	0
 10488   002090  2209               	addwfc	(??___xxtofl+1)^0,f,c
 10489   002092  220A               	addwfc	(??___xxtofl+2)^0,f,c
 10490   002094  220B               	addwfc	(??___xxtofl+3)^0,f,c
 10491   002096  C008  F00E         	movff	??___xxtofl,___xxtofl@arg
 10492   00209A  C009  F00F         	movff	??___xxtofl+1,___xxtofl@arg+1
 10493   00209E  C00A  F010         	movff	??___xxtofl+2,___xxtofl@arg+2
 10494   0020A2  C00B  F011         	movff	??___xxtofl+3,___xxtofl@arg+3
 10495   0020A6  EF5D  F010         	goto	l10869
 10496   0020AA                     l2818:
 10497   0020AA  C004  F00E         	movff	___xxtofl@val,___xxtofl@arg
 10498   0020AE  C005  F00F         	movff	___xxtofl@val+1,___xxtofl@arg+1
 10499   0020B2  C006  F010         	movff	___xxtofl@val+2,___xxtofl@arg+2
 10500   0020B6  C007  F011         	movff	___xxtofl@val+3,___xxtofl@arg+3
 10501   0020BA                     l10869:
 10502   0020BA  5004               	movf	___xxtofl@val^0,w,c
 10503   0020BC  1005               	iorwf	(___xxtofl@val+1)^0,w,c
 10504   0020BE  1006               	iorwf	(___xxtofl@val+2)^0,w,c
 10505   0020C0  1007               	iorwf	(___xxtofl@val+3)^0,w,c
 10506   0020C2  A4D8               	btfss	status,2,c
 10507   0020C4  EF66  F010         	goto	u8651
 10508   0020C8  EF68  F010         	goto	u8650
 10509   0020CC                     u8651:
 10510   0020CC  EF72  F010         	goto	l10875
 10511   0020D0                     u8650:
 10512   0020D0  0E00               	movlw	0
 10513   0020D2  6E04               	movwf	?___xxtofl^0,c
 10514   0020D4  0E00               	movlw	0
 10515   0020D6  6E05               	movwf	(?___xxtofl+1)^0,c
 10516   0020D8  0E00               	movlw	0
 10517   0020DA  6E06               	movwf	(?___xxtofl+2)^0,c
 10518   0020DC  0E00               	movlw	0
 10519   0020DE  6E07               	movwf	(?___xxtofl+3)^0,c
 10520   0020E0  EF03  F011         	goto	l2821
 10521   0020E4                     l10875:
 10522   0020E4  0E96               	movlw	150
 10523   0020E6  6E0D               	movwf	___xxtofl@exp^0,c
 10524   0020E8  EF7C  F010         	goto	l10879
 10525   0020EC                     l10877:
 10526   0020EC  2A0D               	incf	___xxtofl@exp^0,f,c
 10527   0020EE  90D8               	bcf	status,0,c
 10528   0020F0  3211               	rrcf	(___xxtofl@arg+3)^0,f,c
 10529   0020F2  3210               	rrcf	(___xxtofl@arg+2)^0,f,c
 10530   0020F4  320F               	rrcf	(___xxtofl@arg+1)^0,f,c
 10531   0020F6  320E               	rrcf	___xxtofl@arg^0,f,c
 10532   0020F8                     l10879:
 10533   0020F8  0E00               	movlw	0
 10534   0020FA  140E               	andwf	___xxtofl@arg^0,w,c
 10535   0020FC  6E08               	movwf	??___xxtofl^0,c
 10536   0020FE  0E00               	movlw	0
 10537   002100  140F               	andwf	(___xxtofl@arg+1)^0,w,c
 10538   002102  6E09               	movwf	(??___xxtofl+1)^0,c
 10539   002104  0E00               	movlw	0
 10540   002106  1410               	andwf	(___xxtofl@arg+2)^0,w,c
 10541   002108  6E0A               	movwf	(??___xxtofl+2)^0,c
 10542   00210A  0EFE               	movlw	254
 10543   00210C  1411               	andwf	(___xxtofl@arg+3)^0,w,c
 10544   00210E  6E0B               	movwf	(??___xxtofl+3)^0,c
 10545   002110  5008               	movf	??___xxtofl^0,w,c
 10546   002112  1009               	iorwf	(??___xxtofl+1)^0,w,c
 10547   002114  100A               	iorwf	(??___xxtofl+2)^0,w,c
 10548   002116  100B               	iorwf	(??___xxtofl+3)^0,w,c
 10549   002118  A4D8               	btfss	status,2,c
 10550   00211A  EF91  F010         	goto	u8661
 10551   00211E  EF93  F010         	goto	u8660
 10552   002122                     u8661:
 10553   002122  EF76  F010         	goto	l10877
 10554   002126                     u8660:
 10555   002126  EFA1  F010         	goto	l2825
 10556   00212A                     l10881:
 10557   00212A  2A0D               	incf	___xxtofl@exp^0,f,c
 10558   00212C  0E01               	movlw	1
 10559   00212E  260E               	addwf	___xxtofl@arg^0,f,c
 10560   002130  0E00               	movlw	0
 10561   002132  220F               	addwfc	(___xxtofl@arg+1)^0,f,c
 10562   002134  2210               	addwfc	(___xxtofl@arg+2)^0,f,c
 10563   002136  2211               	addwfc	(___xxtofl@arg+3)^0,f,c
 10564   002138  90D8               	bcf	status,0,c
 10565   00213A  3211               	rrcf	(___xxtofl@arg+3)^0,f,c
 10566   00213C  3210               	rrcf	(___xxtofl@arg+2)^0,f,c
 10567   00213E  320F               	rrcf	(___xxtofl@arg+1)^0,f,c
 10568   002140  320E               	rrcf	___xxtofl@arg^0,f,c
 10569   002142                     l2825:
 10570   002142  0E00               	movlw	0
 10571   002144  140E               	andwf	___xxtofl@arg^0,w,c
 10572   002146  6E08               	movwf	??___xxtofl^0,c
 10573   002148  0E00               	movlw	0
 10574   00214A  140F               	andwf	(___xxtofl@arg+1)^0,w,c
 10575   00214C  6E09               	movwf	(??___xxtofl+1)^0,c
 10576   00214E  0E00               	movlw	0
 10577   002150  1410               	andwf	(___xxtofl@arg+2)^0,w,c
 10578   002152  6E0A               	movwf	(??___xxtofl+2)^0,c
 10579   002154  0EFF               	movlw	255
 10580   002156  1411               	andwf	(___xxtofl@arg+3)^0,w,c
 10581   002158  6E0B               	movwf	(??___xxtofl+3)^0,c
 10582   00215A  5008               	movf	??___xxtofl^0,w,c
 10583   00215C  1009               	iorwf	(??___xxtofl+1)^0,w,c
 10584   00215E  100A               	iorwf	(??___xxtofl+2)^0,w,c
 10585   002160  100B               	iorwf	(??___xxtofl+3)^0,w,c
 10586   002162  A4D8               	btfss	status,2,c
 10587   002164  EFB6  F010         	goto	u8671
 10588   002168  EFB8  F010         	goto	u8670
 10589   00216C                     u8671:
 10590   00216C  EF95  F010         	goto	l10881
 10591   002170                     u8670:
 10592   002170  EFC0  F010         	goto	l10889
 10593   002174                     l10887:
 10594   002174  060D               	decf	___xxtofl@exp^0,f,c
 10595   002176  90D8               	bcf	status,0,c
 10596   002178  360E               	rlcf	___xxtofl@arg^0,f,c
 10597   00217A  360F               	rlcf	(___xxtofl@arg+1)^0,f,c
 10598   00217C  3610               	rlcf	(___xxtofl@arg+2)^0,f,c
 10599   00217E  3611               	rlcf	(___xxtofl@arg+3)^0,f,c
 10600   002180                     l10889:
 10601   002180  BE10               	btfsc	(___xxtofl@arg+2)^0,7,c
 10602   002182  EFC5  F010         	goto	u8681
 10603   002186  EFC7  F010         	goto	u8680
 10604   00218A                     u8681:
 10605   00218A  EFCF  F010         	goto	l2832
 10606   00218E                     u8680:
 10607   00218E  0E02               	movlw	2
 10608   002190  600D               	cpfslt	___xxtofl@exp^0,c
 10609   002192  EFCD  F010         	goto	u8691
 10610   002196  EFCF  F010         	goto	u8690
 10611   00219A                     u8691:
 10612   00219A  EFBA  F010         	goto	l10887
 10613   00219E                     u8690:
 10614   00219E                     l2832:
 10615   00219E  B00D               	btfsc	___xxtofl@exp^0,0,c
 10616   0021A0  EFD4  F010         	goto	u8701
 10617   0021A4  EFD6  F010         	goto	u8700
 10618   0021A8                     u8701:
 10619   0021A8  EFD7  F010         	goto	l10895
 10620   0021AC                     u8700:
 10621   0021AC  9E10               	bcf	(___xxtofl@arg+2)^0,7,c
 10622   0021AE                     l10895:
 10623   0021AE  90D8               	bcf	status,0,c
 10624   0021B0  320D               	rrcf	___xxtofl@exp^0,f,c
 10625   0021B2  C00D  F008         	movff	___xxtofl@exp,??___xxtofl
 10626   0021B6  6A09               	clrf	(??___xxtofl+1)^0,c
 10627   0021B8  6A0A               	clrf	(??___xxtofl+2)^0,c
 10628   0021BA  6A0B               	clrf	(??___xxtofl+3)^0,c
 10629   0021BC  C008  F00B         	movff	??___xxtofl,??___xxtofl+3
 10630   0021C0  6A0A               	clrf	(??___xxtofl+2)^0,c
 10631   0021C2  6A09               	clrf	(??___xxtofl+1)^0,c
 10632   0021C4  6A08               	clrf	??___xxtofl^0,c
 10633   0021C6  5008               	movf	??___xxtofl^0,w,c
 10634   0021C8  120E               	iorwf	___xxtofl@arg^0,f,c
 10635   0021CA  5009               	movf	(??___xxtofl+1)^0,w,c
 10636   0021CC  120F               	iorwf	(___xxtofl@arg+1)^0,f,c
 10637   0021CE  500A               	movf	(??___xxtofl+2)^0,w,c
 10638   0021D0  1210               	iorwf	(___xxtofl@arg+2)^0,f,c
 10639   0021D2  500B               	movf	(??___xxtofl+3)^0,w,c
 10640   0021D4  1211               	iorwf	(___xxtofl@arg+3)^0,f,c
 10641   0021D6  500C               	movf	___xxtofl@sign^0,w,c
 10642   0021D8  B4D8               	btfsc	status,2,c
 10643   0021DA  EFF1  F010         	goto	u8711
 10644   0021DE  EFF3  F010         	goto	u8710
 10645   0021E2                     u8711:
 10646   0021E2  EFFB  F010         	goto	l10905
 10647   0021E6                     u8710:
 10648   0021E6  BE07               	btfsc	(___xxtofl@val+3)^0,7,c
 10649   0021E8  EFFA  F010         	goto	u8720
 10650   0021EC  EFF8  F010         	goto	u8721
 10651   0021F0                     u8721:
 10652   0021F0  EFFB  F010         	goto	l10905
 10653   0021F4                     u8720:
 10654   0021F4  8E11               	bsf	(___xxtofl@arg+3)^0,7,c
 10655   0021F6                     l10905:
 10656   0021F6  C00E  F004         	movff	___xxtofl@arg,?___xxtofl
 10657   0021FA  C00F  F005         	movff	___xxtofl@arg+1,?___xxtofl+1
 10658   0021FE  C010  F006         	movff	___xxtofl@arg+2,?___xxtofl+2
 10659   002202  C011  F007         	movff	___xxtofl@arg+3,?___xxtofl+3
 10660   002206                     l2821:
 10661   002206  0012               	return		;funcret
 10662   002208                     __end_of___xxtofl:
 10663                           	callstack 0
 10664                           
 10665 ;; *************** function ___fltol *****************
 10666 ;; Defined at:
 10667 ;;		line 43 in file "C:\Program Files\Microchip\xc8\v2.46\pic\sources\c99\common\fltol.c"
 10668 ;; Parameters:    Size  Location     Type
 10669 ;;  f1              4   58[COMRAM] unsigned char 
 10670 ;; Auto vars:     Size  Location     Type
 10671 ;;  exp1            1   67[COMRAM] unsigned char 
 10672 ;;  sign1           1   66[COMRAM] unsigned char 
 10673 ;; Return value:  Size  Location     Type
 10674 ;;                  4   58[COMRAM] long 
 10675 ;; Registers used:
 10676 ;;		wreg, status,2, status,0
 10677 ;; Tracked objects:
 10678 ;;		On entry : 0/0
 10679 ;;		On exit  : 0/0
 10680 ;;		Unchanged: 0/0
 10681 ;; Data sizes:     COMRAM   BANK0   BANK1   BANK2   BANK3   BANK4   BANK5   BANK6   BANK7   BANK8   BANK9  BANK10  BANK1
      +1  BANK12  BANK13  BANK14  BANK15
 10682 ;;      Params:         4       0       0       0       0       0       0       0       0       0       0       0       
      +0       0       0       0       0
 10683 ;;      Locals:         2       0       0       0       0       0       0       0       0       0       0       0       
      +0       0       0       0       0
 10684 ;;      Temps:          4       0       0       0       0       0       0       0       0       0       0       0       
      +0       0       0       0       0
 10685 ;;      Totals:        10       0       0       0       0       0       0       0       0       0       0       0       
      +0       0       0       0       0
 10686 ;;Total ram usage:       10 bytes
 10687 ;; Hardware stack levels used: 1
 10688 ;; Hardware stack levels required when called: 4
 10689 ;; This function calls:
 10690 ;;		Nothing
 10691 ;; This function is called by:
 10692 ;;		_I2C_Master_Mode_Clock_Configurations
 10693 ;;		_room_1
 10694 ;;		_room_2
 10695 ;;		_garage
 10696 ;;		_mcal_ccp1_initialization
 10697 ;;		_mcal_ccp1_pwm_set_duty
 10698 ;;		_ecu_keypad_get_value
 10699 ;; This function uses a non-reentrant model
 10700 ;;
 10701                           
 10702                           	psect	text56
 10703   0026AE                     __ptext56:
 10704                           	callstack 0
 10705   0026AE                     ___fltol:
 10706                           	callstack 25
 10707   0026AE  343D               	rlcf	(___fltol@f1+2)^0,w,c
 10708   0026B0  343E               	rlcf	(___fltol@f1+3)^0,w,c
 10709   0026B2  6E44               	movwf	___fltol@exp1^0,c
 10710   0026B4  5044               	movf	___fltol@exp1^0,w,c
 10711   0026B6  A4D8               	btfss	status,2,c
 10712   0026B8  EF60  F013         	goto	u8561
 10713   0026BC  EF62  F013         	goto	u8560
 10714   0026C0                     u8561:
 10715   0026C0  EF6C  F013         	goto	l10825
 10716   0026C4                     u8560:
 10717   0026C4                     l10821:
 10718   0026C4  0E00               	movlw	0
 10719   0026C6  6E3B               	movwf	?___fltol^0,c
 10720   0026C8  0E00               	movlw	0
 10721   0026CA  6E3C               	movwf	(?___fltol+1)^0,c
 10722   0026CC  0E00               	movlw	0
 10723   0026CE  6E3D               	movwf	(?___fltol+2)^0,c
 10724   0026D0  0E00               	movlw	0
 10725   0026D2  6E3E               	movwf	(?___fltol+3)^0,c
 10726   0026D4  EFD9  F013         	goto	l2460
 10727   0026D8                     l10825:
 10728   0026D8  C03B  F03F         	movff	___fltol@f1,??___fltol
 10729   0026DC  C03C  F040         	movff	___fltol@f1+1,??___fltol+1
 10730   0026E0  C03D  F041         	movff	___fltol@f1+2,??___fltol+2
 10731   0026E4  C03E  F042         	movff	___fltol@f1+3,??___fltol+3
 10732   0026E8  0E20               	movlw	32
 10733   0026EA  EF7C  F013         	goto	u8570
 10734   0026EE                     u8575:
 10735   0026EE  90D8               	bcf	status,0,c
 10736   0026F0  3242               	rrcf	(??___fltol+3)^0,f,c
 10737   0026F2  3241               	rrcf	(??___fltol+2)^0,f,c
 10738   0026F4  3240               	rrcf	(??___fltol+1)^0,f,c
 10739   0026F6  323F               	rrcf	??___fltol^0,f,c
 10740   0026F8                     u8570:
 10741   0026F8  2EE8               	decfsz	wreg,f,c
 10742   0026FA  EF77  F013         	goto	u8575
 10743   0026FE  503F               	movf	??___fltol^0,w,c
 10744   002700  6E43               	movwf	___fltol@sign1^0,c
 10745   002702  8E3D               	bsf	(___fltol@f1+2)^0,7,c
 10746   002704  0EFF               	movlw	255
 10747   002706  163B               	andwf	___fltol@f1^0,f,c
 10748   002708  0EFF               	movlw	255
 10749   00270A  163C               	andwf	(___fltol@f1+1)^0,f,c
 10750   00270C  0EFF               	movlw	255
 10751   00270E  163D               	andwf	(___fltol@f1+2)^0,f,c
 10752   002710  0E00               	movlw	0
 10753   002712  163E               	andwf	(___fltol@f1+3)^0,f,c
 10754   002714  0E96               	movlw	150
 10755   002716  5E44               	subwf	___fltol@exp1^0,f,c
 10756   002718  BE44               	btfsc	___fltol@exp1^0,7,c
 10757   00271A  EF93  F013         	goto	u8580
 10758   00271E  EF91  F013         	goto	u8581
 10759   002722                     u8581:
 10760   002722  EFA9  F013         	goto	l10845
 10761   002726                     u8580:
 10762   002726  5044               	movf	___fltol@exp1^0,w,c
 10763   002728  0A80               	xorlw	128
 10764   00272A  0F97               	addlw	151
 10765   00272C  B0D8               	btfsc	status,0,c
 10766   00272E  EF9B  F013         	goto	u8591
 10767   002732  EF9D  F013         	goto	u8590
 10768   002736                     u8591:
 10769   002736  EF9F  F013         	goto	l10841
 10770   00273A                     u8590:
 10771   00273A  EF62  F013         	goto	l10821
 10772   00273E                     l10841:
 10773   00273E  90D8               	bcf	status,0,c
 10774   002740  323E               	rrcf	(___fltol@f1+3)^0,f,c
 10775   002742  323D               	rrcf	(___fltol@f1+2)^0,f,c
 10776   002744  323C               	rrcf	(___fltol@f1+1)^0,f,c
 10777   002746  323B               	rrcf	___fltol@f1^0,f,c
 10778   002748  3E44               	incfsz	___fltol@exp1^0,f,c
 10779   00274A  EF9F  F013         	goto	l10841
 10780   00274E  EFC1  F013         	goto	l10855
 10781   002752                     l10845:
 10782   002752  0E1F               	movlw	31
 10783   002754  6444               	cpfsgt	___fltol@exp1^0,c
 10784   002756  EFAF  F013         	goto	u8601
 10785   00275A  EFB1  F013         	goto	u8600
 10786   00275E                     u8601:
 10787   00275E  EFB9  F013         	goto	l10853
 10788   002762                     u8600:
 10789   002762  EF62  F013         	goto	l10821
 10790   002766                     l10851:
 10791   002766  90D8               	bcf	status,0,c
 10792   002768  363B               	rlcf	___fltol@f1^0,f,c
 10793   00276A  363C               	rlcf	(___fltol@f1+1)^0,f,c
 10794   00276C  363D               	rlcf	(___fltol@f1+2)^0,f,c
 10795   00276E  363E               	rlcf	(___fltol@f1+3)^0,f,c
 10796   002770  0644               	decf	___fltol@exp1^0,f,c
 10797   002772                     l10853:
 10798   002772  5044               	movf	___fltol@exp1^0,w,c
 10799   002774  A4D8               	btfss	status,2,c
 10800   002776  EFBF  F013         	goto	u8611
 10801   00277A  EFC1  F013         	goto	u8610
 10802   00277E                     u8611:
 10803   00277E  EFB3  F013         	goto	l10851
 10804   002782                     u8610:
 10805   002782                     l10855:
 10806   002782  5043               	movf	___fltol@sign1^0,w,c
 10807   002784  B4D8               	btfsc	status,2,c
 10808   002786  EFC7  F013         	goto	u8621
 10809   00278A  EFC9  F013         	goto	u8620
 10810   00278E                     u8621:
 10811   00278E  EFD1  F013         	goto	l10859
 10812   002792                     u8620:
 10813   002792  1E3E               	comf	(___fltol@f1+3)^0,f,c
 10814   002794  1E3D               	comf	(___fltol@f1+2)^0,f,c
 10815   002796  1E3C               	comf	(___fltol@f1+1)^0,f,c
 10816   002798  6C3B               	negf	___fltol@f1^0,c
 10817   00279A  0E00               	movlw	0
 10818   00279C  223C               	addwfc	(___fltol@f1+1)^0,f,c
 10819   00279E  223D               	addwfc	(___fltol@f1+2)^0,f,c
 10820   0027A0  223E               	addwfc	(___fltol@f1+3)^0,f,c
 10821   0027A2                     l10859:
 10822   0027A2  C03B  F03B         	movff	___fltol@f1,?___fltol
 10823   0027A6  C03C  F03C         	movff	___fltol@f1+1,?___fltol+1
 10824   0027AA  C03D  F03D         	movff	___fltol@f1+2,?___fltol+2
 10825   0027AE  C03E  F03E         	movff	___fltol@f1+3,?___fltol+3
 10826   0027B2                     l2460:
 10827   0027B2  0012               	return		;funcret
 10828   0027B4                     __end_of___fltol:
 10829                           	callstack 0
 10830                           
 10831 ;; *************** function ___fldiv *****************
 10832 ;; Defined at:
 10833 ;;		line 11 in file "C:\Program Files\Microchip\xc8\v2.46\pic\sources\c99\common\sprcdiv.c"
 10834 ;; Parameters:    Size  Location     Type
 10835 ;;  b               4   17[COMRAM] long 
 10836 ;;  a               4   21[COMRAM] long 
 10837 ;; Auto vars:     Size  Location     Type
 10838 ;;  grs             4   36[COMRAM] unsigned long 
 10839 ;;  rem             4   29[COMRAM] unsigned long 
 10840 ;;  new_exp         2   34[COMRAM] short 
 10841 ;;  aexp            1   41[COMRAM] unsigned char 
 10842 ;;  bexp            1   40[COMRAM] unsigned char 
 10843 ;;  sign            1   33[COMRAM] unsigned char 
 10844 ;; Return value:  Size  Location     Type
 10845 ;;                  4   17[COMRAM] unsigned char 
 10846 ;; Registers used:
 10847 ;;		wreg, status,2, status,0
 10848 ;; Tracked objects:
 10849 ;;		On entry : 0/0
 10850 ;;		On exit  : 0/0
 10851 ;;		Unchanged: 0/0
 10852 ;; Data sizes:     COMRAM   BANK0   BANK1   BANK2   BANK3   BANK4   BANK5   BANK6   BANK7   BANK8   BANK9  BANK10  BANK1
      +1  BANK12  BANK13  BANK14  BANK15
 10853 ;;      Params:         8       0       0       0       0       0       0       0       0       0       0       0       
      +0       0       0       0       0
 10854 ;;      Locals:        13       0       0       0       0       0       0       0       0       0       0       0       
      +0       0       0       0       0
 10855 ;;      Temps:          4       0       0       0       0       0       0       0       0       0       0       0       
      +0       0       0       0       0
 10856 ;;      Totals:        25       0       0       0       0       0       0       0       0       0       0       0       
      +0       0       0       0       0
 10857 ;;Total ram usage:       25 bytes
 10858 ;; Hardware stack levels used: 1
 10859 ;; Hardware stack levels required when called: 4
 10860 ;; This function calls:
 10861 ;;		Nothing
 10862 ;; This function is called by:
 10863 ;;		_I2C_Master_Mode_Clock_Configurations
 10864 ;;		_mcal_ccp1_initialization
 10865 ;;		_mcal_ccp1_pwm_set_duty
 10866 ;; This function uses a non-reentrant model
 10867 ;;
 10868                           
 10869                           	psect	text57
 10870   001390                     __ptext57:
 10871                           	callstack 0
 10872   001390                     ___fldiv:
 10873                           	callstack 24
 10874   001390  5015               	movf	(___fldiv@b+3)^0,w,c
 10875   001392  0B80               	andlw	128
 10876   001394  6E22               	movwf	___fldiv@sign^0,c
 10877   001396  5015               	movf	(___fldiv@b+3)^0,w,c
 10878   001398  2415               	addwf	(___fldiv@b+3)^0,w,c
 10879   00139A  6E29               	movwf	___fldiv@bexp^0,c
 10880   00139C  AE14               	btfss	(___fldiv@b+2)^0,7,c
 10881   00139E  EFD3  F009         	goto	u5291
 10882   0013A2  EFD5  F009         	goto	u5290
 10883   0013A6                     u5291:
 10884   0013A6  EFD6  F009         	goto	l7613
 10885   0013AA                     u5290:
 10886   0013AA  8029               	bsf	___fldiv@bexp^0,0,c
 10887   0013AC                     l7613:
 10888   0013AC  5029               	movf	___fldiv@bexp^0,w,c
 10889   0013AE  B4D8               	btfsc	status,2,c
 10890   0013B0  EFDC  F009         	goto	u5301
 10891   0013B4  EFDE  F009         	goto	u5300
 10892   0013B8                     u5301:
 10893   0013B8  EFF3  F009         	goto	l7623
 10894   0013BC                     u5300:
 10895   0013BC  2829               	incf	___fldiv@bexp^0,w,c
 10896   0013BE  A4D8               	btfss	status,2,c
 10897   0013C0  EFE4  F009         	goto	u5311
 10898   0013C4  EFE6  F009         	goto	u5310
 10899   0013C8                     u5311:
 10900   0013C8  EFEE  F009         	goto	l7619
 10901   0013CC                     u5310:
 10902   0013CC  0E00               	movlw	0
 10903   0013CE  6E12               	movwf	___fldiv@b^0,c
 10904   0013D0  0E00               	movlw	0
 10905   0013D2  6E13               	movwf	(___fldiv@b+1)^0,c
 10906   0013D4  0E00               	movlw	0
 10907   0013D6  6E14               	movwf	(___fldiv@b+2)^0,c
 10908   0013D8  0E00               	movlw	0
 10909   0013DA  6E15               	movwf	(___fldiv@b+3)^0,c
 10910   0013DC                     l7619:
 10911   0013DC  8E14               	bsf	(___fldiv@b+2)^0,7,c
 10912   0013DE  0E00               	movlw	0
 10913   0013E0  6E15               	movwf	(___fldiv@b+3)^0,c
 10914   0013E2  EFFB  F009         	goto	l7625
 10915   0013E6                     l7623:
 10916   0013E6  0E00               	movlw	0
 10917   0013E8  6E12               	movwf	___fldiv@b^0,c
 10918   0013EA  0E00               	movlw	0
 10919   0013EC  6E13               	movwf	(___fldiv@b+1)^0,c
 10920   0013EE  0E00               	movlw	0
 10921   0013F0  6E14               	movwf	(___fldiv@b+2)^0,c
 10922   0013F2  0E00               	movlw	0
 10923   0013F4  6E15               	movwf	(___fldiv@b+3)^0,c
 10924   0013F6                     l7625:
 10925   0013F6  5019               	movf	(___fldiv@a+3)^0,w,c
 10926   0013F8  0B80               	andlw	128
 10927   0013FA  1A22               	xorwf	___fldiv@sign^0,f,c
 10928   0013FC  5019               	movf	(___fldiv@a+3)^0,w,c
 10929   0013FE  2419               	addwf	(___fldiv@a+3)^0,w,c
 10930   001400  6E2A               	movwf	___fldiv@aexp^0,c
 10931   001402  AE18               	btfss	(___fldiv@a+2)^0,7,c
 10932   001404  EF06  F00A         	goto	u5321
 10933   001408  EF08  F00A         	goto	u5320
 10934   00140C                     u5321:
 10935   00140C  EF09  F00A         	goto	l7633
 10936   001410                     u5320:
 10937   001410  802A               	bsf	___fldiv@aexp^0,0,c
 10938   001412                     l7633:
 10939   001412  502A               	movf	___fldiv@aexp^0,w,c
 10940   001414  B4D8               	btfsc	status,2,c
 10941   001416  EF0F  F00A         	goto	u5331
 10942   00141A  EF11  F00A         	goto	u5330
 10943   00141E                     u5331:
 10944   00141E  EF26  F00A         	goto	l7643
 10945   001422                     u5330:
 10946   001422  282A               	incf	___fldiv@aexp^0,w,c
 10947   001424  A4D8               	btfss	status,2,c
 10948   001426  EF17  F00A         	goto	u5341
 10949   00142A  EF19  F00A         	goto	u5340
 10950   00142E                     u5341:
 10951   00142E  EF21  F00A         	goto	l7639
 10952   001432                     u5340:
 10953   001432  0E00               	movlw	0
 10954   001434  6E16               	movwf	___fldiv@a^0,c
 10955   001436  0E00               	movlw	0
 10956   001438  6E17               	movwf	(___fldiv@a+1)^0,c
 10957   00143A  0E00               	movlw	0
 10958   00143C  6E18               	movwf	(___fldiv@a+2)^0,c
 10959   00143E  0E00               	movlw	0
 10960   001440  6E19               	movwf	(___fldiv@a+3)^0,c
 10961   001442                     l7639:
 10962   001442  8E18               	bsf	(___fldiv@a+2)^0,7,c
 10963   001444  0E00               	movlw	0
 10964   001446  6E19               	movwf	(___fldiv@a+3)^0,c
 10965   001448  EF2E  F00A         	goto	l7645
 10966   00144C                     l7643:
 10967   00144C  0E00               	movlw	0
 10968   00144E  6E16               	movwf	___fldiv@a^0,c
 10969   001450  0E00               	movlw	0
 10970   001452  6E17               	movwf	(___fldiv@a+1)^0,c
 10971   001454  0E00               	movlw	0
 10972   001456  6E18               	movwf	(___fldiv@a+2)^0,c
 10973   001458  0E00               	movlw	0
 10974   00145A  6E19               	movwf	(___fldiv@a+3)^0,c
 10975   00145C                     l7645:
 10976   00145C  5016               	movf	___fldiv@a^0,w,c
 10977   00145E  1017               	iorwf	(___fldiv@a+1)^0,w,c
 10978   001460  1018               	iorwf	(___fldiv@a+2)^0,w,c
 10979   001462  1019               	iorwf	(___fldiv@a+3)^0,w,c
 10980   001464  A4D8               	btfss	status,2,c
 10981   001466  EF37  F00A         	goto	u5351
 10982   00146A  EF39  F00A         	goto	u5350
 10983   00146E                     u5351:
 10984   00146E  EF51  F00A         	goto	l7657
 10985   001472                     u5350:
 10986   001472  0E00               	movlw	0
 10987   001474  6E12               	movwf	___fldiv@b^0,c
 10988   001476  0E00               	movlw	0
 10989   001478  6E13               	movwf	(___fldiv@b+1)^0,c
 10990   00147A  0E00               	movlw	0
 10991   00147C  6E14               	movwf	(___fldiv@b+2)^0,c
 10992   00147E  0E00               	movlw	0
 10993   001480  6E15               	movwf	(___fldiv@b+3)^0,c
 10994   001482  0E80               	movlw	128
 10995   001484  1214               	iorwf	(___fldiv@b+2)^0,f,c
 10996   001486  0E7F               	movlw	127
 10997   001488  1215               	iorwf	(___fldiv@b+3)^0,f,c
 10998   00148A                     l7651:
 10999   00148A  5022               	movf	___fldiv@sign^0,w,c
 11000   00148C  1215               	iorwf	(___fldiv@b+3)^0,f,c
 11001   00148E  C012  F012         	movff	___fldiv@b,?___fldiv
 11002   001492  C013  F013         	movff	___fldiv@b+1,?___fldiv+1
 11003   001496  C014  F014         	movff	___fldiv@b+2,?___fldiv+2
 11004   00149A  C015  F015         	movff	___fldiv@b+3,?___fldiv+3
 11005   00149E  EF94  F00B         	goto	l2745
 11006   0014A2                     l7657:
 11007   0014A2  5029               	movf	___fldiv@bexp^0,w,c
 11008   0014A4  A4D8               	btfss	status,2,c
 11009   0014A6  EF57  F00A         	goto	u5361
 11010   0014AA  EF59  F00A         	goto	u5360
 11011   0014AE                     u5361:
 11012   0014AE  EF63  F00A         	goto	l7665
 11013   0014B2                     u5360:
 11014   0014B2  0E00               	movlw	0
 11015   0014B4  6E12               	movwf	?___fldiv^0,c
 11016   0014B6  0E00               	movlw	0
 11017   0014B8  6E13               	movwf	(?___fldiv+1)^0,c
 11018   0014BA  0E00               	movlw	0
 11019   0014BC  6E14               	movwf	(?___fldiv+2)^0,c
 11020   0014BE  0E00               	movlw	0
 11021   0014C0  6E15               	movwf	(?___fldiv+3)^0,c
 11022   0014C2  EF94  F00B         	goto	l2745
 11023   0014C6                     l7665:
 11024   0014C6  502A               	movf	___fldiv@aexp^0,w,c
 11025   0014C8  C029  F01A         	movff	___fldiv@bexp,??___fldiv
 11026   0014CC  6A1B               	clrf	(??___fldiv+1)^0,c
 11027   0014CE  5E1A               	subwf	??___fldiv^0,f,c
 11028   0014D0  0E00               	movlw	0
 11029   0014D2  5A1B               	subwfb	(??___fldiv+1)^0,f,c
 11030   0014D4  0E7F               	movlw	127
 11031   0014D6  241A               	addwf	??___fldiv^0,w,c
 11032   0014D8  6E23               	movwf	___fldiv@new_exp^0,c
 11033   0014DA  0E00               	movlw	0
 11034   0014DC  201B               	addwfc	(??___fldiv+1)^0,w,c
 11035   0014DE  6E24               	movwf	(___fldiv@new_exp+1)^0,c
 11036   0014E0  C012  F01E         	movff	___fldiv@b,___fldiv@rem
 11037   0014E4  C013  F01F         	movff	___fldiv@b+1,___fldiv@rem+1
 11038   0014E8  C014  F020         	movff	___fldiv@b+2,___fldiv@rem+2
 11039   0014EC  C015  F021         	movff	___fldiv@b+3,___fldiv@rem+3
 11040   0014F0  0E00               	movlw	0
 11041   0014F2  6E12               	movwf	___fldiv@b^0,c
 11042   0014F4  0E00               	movlw	0
 11043   0014F6  6E13               	movwf	(___fldiv@b+1)^0,c
 11044   0014F8  0E00               	movlw	0
 11045   0014FA  6E14               	movwf	(___fldiv@b+2)^0,c
 11046   0014FC  0E00               	movlw	0
 11047   0014FE  6E15               	movwf	(___fldiv@b+3)^0,c
 11048   001500  0E00               	movlw	0
 11049   001502  6E25               	movwf	___fldiv@grs^0,c
 11050   001504  0E00               	movlw	0
 11051   001506  6E26               	movwf	(___fldiv@grs+1)^0,c
 11052   001508  0E00               	movlw	0
 11053   00150A  6E27               	movwf	(___fldiv@grs+2)^0,c
 11054   00150C  0E00               	movlw	0
 11055   00150E  6E28               	movwf	(___fldiv@grs+3)^0,c
 11056   001510  0E00               	movlw	0
 11057   001512  6E2A               	movwf	___fldiv@aexp^0,c
 11058   001514  EFC4  F00A         	goto	l2747
 11059   001518                     l7675:
 11060   001518  502A               	movf	___fldiv@aexp^0,w,c
 11061   00151A  B4D8               	btfsc	status,2,c
 11062   00151C  EF92  F00A         	goto	u5371
 11063   001520  EF94  F00A         	goto	u5370
 11064   001524                     u5371:
 11065   001524  EFAB  F00A         	goto	l7683
 11066   001528                     u5370:
 11067   001528  90D8               	bcf	status,0,c
 11068   00152A  361E               	rlcf	___fldiv@rem^0,f,c
 11069   00152C  361F               	rlcf	(___fldiv@rem+1)^0,f,c
 11070   00152E  3620               	rlcf	(___fldiv@rem+2)^0,f,c
 11071   001530  3621               	rlcf	(___fldiv@rem+3)^0,f,c
 11072   001532  90D8               	bcf	status,0,c
 11073   001534  3612               	rlcf	___fldiv@b^0,f,c
 11074   001536  3613               	rlcf	(___fldiv@b+1)^0,f,c
 11075   001538  3614               	rlcf	(___fldiv@b+2)^0,f,c
 11076   00153A  3615               	rlcf	(___fldiv@b+3)^0,f,c
 11077   00153C  AE28               	btfss	(___fldiv@grs+3)^0,7,c
 11078   00153E  EFA3  F00A         	goto	u5381
 11079   001542  EFA5  F00A         	goto	u5380
 11080   001546                     u5381:
 11081   001546  EFA6  F00A         	goto	l2750
 11082   00154A                     u5380:
 11083   00154A  8012               	bsf	___fldiv@b^0,0,c
 11084   00154C                     l2750:
 11085   00154C  90D8               	bcf	status,0,c
 11086   00154E  3625               	rlcf	___fldiv@grs^0,f,c
 11087   001550  3626               	rlcf	(___fldiv@grs+1)^0,f,c
 11088   001552  3627               	rlcf	(___fldiv@grs+2)^0,f,c
 11089   001554  3628               	rlcf	(___fldiv@grs+3)^0,f,c
 11090   001556                     l7683:
 11091   001556  5016               	movf	___fldiv@a^0,w,c
 11092   001558  5C1E               	subwf	___fldiv@rem^0,w,c
 11093   00155A  5017               	movf	(___fldiv@a+1)^0,w,c
 11094   00155C  581F               	subwfb	(___fldiv@rem+1)^0,w,c
 11095   00155E  5018               	movf	(___fldiv@a+2)^0,w,c
 11096   001560  5820               	subwfb	(___fldiv@rem+2)^0,w,c
 11097   001562  5019               	movf	(___fldiv@a+3)^0,w,c
 11098   001564  5821               	subwfb	(___fldiv@rem+3)^0,w,c
 11099   001566  A0D8               	btfss	status,0,c
 11100   001568  EFB8  F00A         	goto	u5391
 11101   00156C  EFBA  F00A         	goto	u5390
 11102   001570                     u5391:
 11103   001570  EFC3  F00A         	goto	l7689
 11104   001574                     u5390:
 11105   001574  8C28               	bsf	(___fldiv@grs+3)^0,6,c
 11106   001576  5016               	movf	___fldiv@a^0,w,c
 11107   001578  5E1E               	subwf	___fldiv@rem^0,f,c
 11108   00157A  5017               	movf	(___fldiv@a+1)^0,w,c
 11109   00157C  5A1F               	subwfb	(___fldiv@rem+1)^0,f,c
 11110   00157E  5018               	movf	(___fldiv@a+2)^0,w,c
 11111   001580  5A20               	subwfb	(___fldiv@rem+2)^0,f,c
 11112   001582  5019               	movf	(___fldiv@a+3)^0,w,c
 11113   001584  5A21               	subwfb	(___fldiv@rem+3)^0,f,c
 11114   001586                     l7689:
 11115   001586  2A2A               	incf	___fldiv@aexp^0,f,c
 11116   001588                     l2747:
 11117   001588  0E19               	movlw	25
 11118   00158A  642A               	cpfsgt	___fldiv@aexp^0,c
 11119   00158C  EFCA  F00A         	goto	u5401
 11120   001590  EFCC  F00A         	goto	u5400
 11121   001594                     u5401:
 11122   001594  EF8C  F00A         	goto	l7675
 11123   001598                     u5400:
 11124   001598  501E               	movf	___fldiv@rem^0,w,c
 11125   00159A  101F               	iorwf	(___fldiv@rem+1)^0,w,c
 11126   00159C  1020               	iorwf	(___fldiv@rem+2)^0,w,c
 11127   00159E  1021               	iorwf	(___fldiv@rem+3)^0,w,c
 11128   0015A0  B4D8               	btfsc	status,2,c
 11129   0015A2  EFD5  F00A         	goto	u5411
 11130   0015A6  EFD7  F00A         	goto	u5410
 11131   0015AA                     u5411:
 11132   0015AA  EFEF  F00A         	goto	l7701
 11133   0015AE                     u5410:
 11134   0015AE  8025               	bsf	___fldiv@grs^0,0,c
 11135   0015B0  EFEF  F00A         	goto	l7701
 11136   0015B4                     l7695:
 11137   0015B4  90D8               	bcf	status,0,c
 11138   0015B6  3612               	rlcf	___fldiv@b^0,f,c
 11139   0015B8  3613               	rlcf	(___fldiv@b+1)^0,f,c
 11140   0015BA  3614               	rlcf	(___fldiv@b+2)^0,f,c
 11141   0015BC  3615               	rlcf	(___fldiv@b+3)^0,f,c
 11142   0015BE  AE28               	btfss	(___fldiv@grs+3)^0,7,c
 11143   0015C0  EFE4  F00A         	goto	u5421
 11144   0015C4  EFE6  F00A         	goto	u5420
 11145   0015C8                     u5421:
 11146   0015C8  EFE7  F00A         	goto	l2756
 11147   0015CC                     u5420:
 11148   0015CC  8012               	bsf	___fldiv@b^0,0,c
 11149   0015CE                     l2756:
 11150   0015CE  90D8               	bcf	status,0,c
 11151   0015D0  3625               	rlcf	___fldiv@grs^0,f,c
 11152   0015D2  3626               	rlcf	(___fldiv@grs+1)^0,f,c
 11153   0015D4  3627               	rlcf	(___fldiv@grs+2)^0,f,c
 11154   0015D6  3628               	rlcf	(___fldiv@grs+3)^0,f,c
 11155   0015D8  0623               	decf	___fldiv@new_exp^0,f,c
 11156   0015DA  A0D8               	btfss	status,0,c
 11157   0015DC  0624               	decf	(___fldiv@new_exp+1)^0,f,c
 11158   0015DE                     l7701:
 11159   0015DE  AE14               	btfss	(___fldiv@b+2)^0,7,c
 11160   0015E0  EFF4  F00A         	goto	u5431
 11161   0015E4  EFF6  F00A         	goto	u5430
 11162   0015E8                     u5431:
 11163   0015E8  EFDA  F00A         	goto	l7695
 11164   0015EC                     u5430:
 11165   0015EC  0E00               	movlw	0
 11166   0015EE  6E2A               	movwf	___fldiv@aexp^0,c
 11167   0015F0  AE28               	btfss	(___fldiv@grs+3)^0,7,c
 11168   0015F2  EFFD  F00A         	goto	u5441
 11169   0015F6  EFFF  F00A         	goto	u5440
 11170   0015FA                     u5441:
 11171   0015FA  EF23  F00B         	goto	l2758
 11172   0015FE                     u5440:
 11173   0015FE  0EFF               	movlw	255
 11174   001600  1425               	andwf	___fldiv@grs^0,w,c
 11175   001602  6E1A               	movwf	??___fldiv^0,c
 11176   001604  0EFF               	movlw	255
 11177   001606  1426               	andwf	(___fldiv@grs+1)^0,w,c
 11178   001608  6E1B               	movwf	(??___fldiv+1)^0,c
 11179   00160A  0EFF               	movlw	255
 11180   00160C  1427               	andwf	(___fldiv@grs+2)^0,w,c
 11181   00160E  6E1C               	movwf	(??___fldiv+2)^0,c
 11182   001610  0E7F               	movlw	127
 11183   001612  1428               	andwf	(___fldiv@grs+3)^0,w,c
 11184   001614  6E1D               	movwf	(??___fldiv+3)^0,c
 11185   001616  501A               	movf	??___fldiv^0,w,c
 11186   001618  101B               	iorwf	(??___fldiv+1)^0,w,c
 11187   00161A  101C               	iorwf	(??___fldiv+2)^0,w,c
 11188   00161C  101D               	iorwf	(??___fldiv+3)^0,w,c
 11189   00161E  B4D8               	btfsc	status,2,c
 11190   001620  EF14  F00B         	goto	u5451
 11191   001624  EF16  F00B         	goto	u5450
 11192   001628                     u5451:
 11193   001628  EF1A  F00B         	goto	l2759
 11194   00162C                     u5450:
 11195   00162C                     l7709:
 11196   00162C  0E01               	movlw	1
 11197   00162E  6E2A               	movwf	___fldiv@aexp^0,c
 11198   001630  EF23  F00B         	goto	l2758
 11199   001634                     l2759:
 11200   001634  A012               	btfss	___fldiv@b^0,0,c
 11201   001636  EF1F  F00B         	goto	u5461
 11202   00163A  EF21  F00B         	goto	u5460
 11203   00163E                     u5461:
 11204   00163E  EF23  F00B         	goto	l2758
 11205   001642                     u5460:
 11206   001642  EF16  F00B         	goto	l7709
 11207   001646                     l2758:
 11208   001646  502A               	movf	___fldiv@aexp^0,w,c
 11209   001648  B4D8               	btfsc	status,2,c
 11210   00164A  EF29  F00B         	goto	u5471
 11211   00164E  EF2B  F00B         	goto	u5470
 11212   001652                     u5471:
 11213   001652  EF4F  F00B         	goto	l7721
 11214   001656                     u5470:
 11215   001656  0E01               	movlw	1
 11216   001658  2612               	addwf	___fldiv@b^0,f,c
 11217   00165A  0E00               	movlw	0
 11218   00165C  2213               	addwfc	(___fldiv@b+1)^0,f,c
 11219   00165E  2214               	addwfc	(___fldiv@b+2)^0,f,c
 11220   001660  2215               	addwfc	(___fldiv@b+3)^0,f,c
 11221   001662  A015               	btfss	(___fldiv@b+3)^0,0,c
 11222   001664  EF36  F00B         	goto	u5481
 11223   001668  EF38  F00B         	goto	u5480
 11224   00166C                     u5481:
 11225   00166C  EF4F  F00B         	goto	l7721
 11226   001670                     u5480:
 11227   001670  C012  F01A         	movff	___fldiv@b,??___fldiv
 11228   001674  C013  F01B         	movff	___fldiv@b+1,??___fldiv+1
 11229   001678  C014  F01C         	movff	___fldiv@b+2,??___fldiv+2
 11230   00167C  C015  F01D         	movff	___fldiv@b+3,??___fldiv+3
 11231   001680  341D               	rlcf	(??___fldiv+3)^0,w,c
 11232   001682  321D               	rrcf	(??___fldiv+3)^0,f,c
 11233   001684  321C               	rrcf	(??___fldiv+2)^0,f,c
 11234   001686  321B               	rrcf	(??___fldiv+1)^0,f,c
 11235   001688  321A               	rrcf	??___fldiv^0,f,c
 11236   00168A  C01A  F012         	movff	??___fldiv,___fldiv@b
 11237   00168E  C01B  F013         	movff	??___fldiv+1,___fldiv@b+1
 11238   001692  C01C  F014         	movff	??___fldiv+2,___fldiv@b+2
 11239   001696  C01D  F015         	movff	??___fldiv+3,___fldiv@b+3
 11240   00169A  4A23               	infsnz	___fldiv@new_exp^0,f,c
 11241   00169C  2A24               	incf	(___fldiv@new_exp+1)^0,f,c
 11242   00169E                     l7721:
 11243   00169E  BE24               	btfsc	(___fldiv@new_exp+1)^0,7,c
 11244   0016A0  EF5A  F00B         	goto	u5491
 11245   0016A4  5024               	movf	(___fldiv@new_exp+1)^0,w,c
 11246   0016A6  E108               	bnz	u5490
 11247   0016A8  2823               	incf	___fldiv@new_exp^0,w,c
 11248   0016AA  A0D8               	btfss	status,0,c
 11249   0016AC  EF5A  F00B         	goto	u5491
 11250   0016B0  EF5C  F00B         	goto	u5490
 11251   0016B4                     u5491:
 11252   0016B4  EF67  F00B         	goto	l7725
 11253   0016B8                     u5490:
 11254   0016B8  0E00               	movlw	0
 11255   0016BA  6E24               	movwf	(___fldiv@new_exp+1)^0,c
 11256   0016BC  6823               	setf	___fldiv@new_exp^0,c
 11257   0016BE  0E00               	movlw	0
 11258   0016C0  6E12               	movwf	___fldiv@b^0,c
 11259   0016C2  0E00               	movlw	0
 11260   0016C4  6E13               	movwf	(___fldiv@b+1)^0,c
 11261   0016C6  0E00               	movlw	0
 11262   0016C8  6E14               	movwf	(___fldiv@b+2)^0,c
 11263   0016CA  0E00               	movlw	0
 11264   0016CC  6E15               	movwf	(___fldiv@b+3)^0,c
 11265   0016CE                     l7725:
 11266   0016CE  BE24               	btfsc	(___fldiv@new_exp+1)^0,7,c
 11267   0016D0  EF74  F00B         	goto	u5500
 11268   0016D4  5024               	movf	(___fldiv@new_exp+1)^0,w,c
 11269   0016D6  E106               	bnz	u5501
 11270   0016D8  0423               	decf	___fldiv@new_exp^0,w,c
 11271   0016DA  B0D8               	btfsc	status,0,c
 11272   0016DC  EF72  F00B         	goto	u5501
 11273   0016E0  EF74  F00B         	goto	u5500
 11274   0016E4                     u5501:
 11275   0016E4  EF82  F00B         	goto	l7729
 11276   0016E8                     u5500:
 11277   0016E8  0E00               	movlw	0
 11278   0016EA  6E24               	movwf	(___fldiv@new_exp+1)^0,c
 11279   0016EC  0E00               	movlw	0
 11280   0016EE  6E23               	movwf	___fldiv@new_exp^0,c
 11281   0016F0  0E00               	movlw	0
 11282   0016F2  6E12               	movwf	___fldiv@b^0,c
 11283   0016F4  0E00               	movlw	0
 11284   0016F6  6E13               	movwf	(___fldiv@b+1)^0,c
 11285   0016F8  0E00               	movlw	0
 11286   0016FA  6E14               	movwf	(___fldiv@b+2)^0,c
 11287   0016FC  0E00               	movlw	0
 11288   0016FE  6E15               	movwf	(___fldiv@b+3)^0,c
 11289   001700  0E00               	movlw	0
 11290   001702  6E22               	movwf	___fldiv@sign^0,c
 11291   001704                     l7729:
 11292   001704  C023  F029         	movff	___fldiv@new_exp,___fldiv@bexp
 11293   001708  A029               	btfss	___fldiv@bexp^0,0,c
 11294   00170A  EF89  F00B         	goto	u5511
 11295   00170E  EF8B  F00B         	goto	u5510
 11296   001712                     u5511:
 11297   001712  EF8E  F00B         	goto	l7735
 11298   001716                     u5510:
 11299   001716  8E14               	bsf	(___fldiv@b+2)^0,7,c
 11300   001718  EF8F  F00B         	goto	l7737
 11301   00171C                     l7735:
 11302   00171C  9E14               	bcf	(___fldiv@b+2)^0,7,c
 11303   00171E                     l7737:
 11304   00171E  90D8               	bcf	status,0,c
 11305   001720  3029               	rrcf	___fldiv@bexp^0,w,c
 11306   001722  6E15               	movwf	(___fldiv@b+3)^0,c
 11307   001724  EF45  F00A         	goto	l7651
 11308   001728                     l2745:
 11309   001728  0012               	return		;funcret
 11310   00172A                     __end_of___fldiv:
 11311                           	callstack 0
 11312                           
 11313 ;; *************** function ___fladd *****************
 11314 ;; Defined at:
 11315 ;;		line 10 in file "C:\Program Files\Microchip\xc8\v2.46\pic\sources\c99\common\sprcadd.c"
 11316 ;; Parameters:    Size  Location     Type
 11317 ;;  b               4   42[COMRAM] unsigned char 
 11318 ;;  a               4   46[COMRAM] unsigned char 
 11319 ;; Auto vars:     Size  Location     Type
 11320 ;;  grs             1   57[COMRAM] unsigned char 
 11321 ;;  bexp            1   56[COMRAM] unsigned char 
 11322 ;;  aexp            1   55[COMRAM] unsigned char 
 11323 ;;  signs           1   54[COMRAM] unsigned char 
 11324 ;; Return value:  Size  Location     Type
 11325 ;;                  4   42[COMRAM] unsigned char 
 11326 ;; Registers used:
 11327 ;;		wreg, status,2, status,0
 11328 ;; Tracked objects:
 11329 ;;		On entry : 0/0
 11330 ;;		On exit  : 0/0
 11331 ;;		Unchanged: 0/0
 11332 ;; Data sizes:     COMRAM   BANK0   BANK1   BANK2   BANK3   BANK4   BANK5   BANK6   BANK7   BANK8   BANK9  BANK10  BANK1
      +1  BANK12  BANK13  BANK14  BANK15
 11333 ;;      Params:         8       0       0       0       0       0       0       0       0       0       0       0       
      +0       0       0       0       0
 11334 ;;      Locals:         4       0       0       0       0       0       0       0       0       0       0       0       
      +0       0       0       0       0
 11335 ;;      Temps:          4       0       0       0       0       0       0       0       0       0       0       0       
      +0       0       0       0       0
 11336 ;;      Totals:        16       0       0       0       0       0       0       0       0       0       0       0       
      +0       0       0       0       0
 11337 ;;Total ram usage:       16 bytes
 11338 ;; Hardware stack levels used: 1
 11339 ;; Hardware stack levels required when called: 4
 11340 ;; This function calls:
 11341 ;;		Nothing
 11342 ;; This function is called by:
 11343 ;;		_I2C_Master_Mode_Clock_Configurations
 11344 ;;		_mcal_ccp1_initialization
 11345 ;; This function uses a non-reentrant model
 11346 ;;
 11347                           
 11348                           	psect	text58
 11349   000AA6                     __ptext58:
 11350                           	callstack 0
 11351   000AA6                     ___fladd:
 11352                           	callstack 24
 11353   000AA6  502E               	movf	(___fladd@b+3)^0,w,c
 11354   000AA8  0B80               	andlw	128
 11355   000AAA  6E37               	movwf	___fladd@signs^0,c
 11356   000AAC  502E               	movf	(___fladd@b+3)^0,w,c
 11357   000AAE  242E               	addwf	(___fladd@b+3)^0,w,c
 11358   000AB0  6E39               	movwf	___fladd@bexp^0,c
 11359   000AB2  AE2D               	btfss	(___fladd@b+2)^0,7,c
 11360   000AB4  EF5E  F005         	goto	u4901
 11361   000AB8  EF60  F005         	goto	u4900
 11362   000ABC                     u4901:
 11363   000ABC  EF61  F005         	goto	l7411
 11364   000AC0                     u4900:
 11365   000AC0  8039               	bsf	___fladd@bexp^0,0,c
 11366   000AC2                     l7411:
 11367   000AC2  5039               	movf	___fladd@bexp^0,w,c
 11368   000AC4  B4D8               	btfsc	status,2,c
 11369   000AC6  EF67  F005         	goto	u4911
 11370   000ACA  EF69  F005         	goto	u4910
 11371   000ACE                     u4911:
 11372   000ACE  EF7E  F005         	goto	l7421
 11373   000AD2                     u4910:
 11374   000AD2  2839               	incf	___fladd@bexp^0,w,c
 11375   000AD4  A4D8               	btfss	status,2,c
 11376   000AD6  EF6F  F005         	goto	u4921
 11377   000ADA  EF71  F005         	goto	u4920
 11378   000ADE                     u4921:
 11379   000ADE  EF79  F005         	goto	l7417
 11380   000AE2                     u4920:
 11381   000AE2  0E00               	movlw	0
 11382   000AE4  6E2B               	movwf	___fladd@b^0,c
 11383   000AE6  0E00               	movlw	0
 11384   000AE8  6E2C               	movwf	(___fladd@b+1)^0,c
 11385   000AEA  0E00               	movlw	0
 11386   000AEC  6E2D               	movwf	(___fladd@b+2)^0,c
 11387   000AEE  0E00               	movlw	0
 11388   000AF0  6E2E               	movwf	(___fladd@b+3)^0,c
 11389   000AF2                     l7417:
 11390   000AF2  8E2D               	bsf	(___fladd@b+2)^0,7,c
 11391   000AF4  0E00               	movlw	0
 11392   000AF6  6E2E               	movwf	(___fladd@b+3)^0,c
 11393   000AF8  EF86  F005         	goto	l7423
 11394   000AFC                     l7421:
 11395   000AFC  0E00               	movlw	0
 11396   000AFE  6E2B               	movwf	___fladd@b^0,c
 11397   000B00  0E00               	movlw	0
 11398   000B02  6E2C               	movwf	(___fladd@b+1)^0,c
 11399   000B04  0E00               	movlw	0
 11400   000B06  6E2D               	movwf	(___fladd@b+2)^0,c
 11401   000B08  0E00               	movlw	0
 11402   000B0A  6E2E               	movwf	(___fladd@b+3)^0,c
 11403   000B0C                     l7423:
 11404   000B0C  5032               	movf	(___fladd@a+3)^0,w,c
 11405   000B0E  0B80               	andlw	128
 11406   000B10  6E38               	movwf	___fladd@aexp^0,c
 11407   000B12  5037               	movf	___fladd@signs^0,w,c
 11408   000B14  1838               	xorwf	___fladd@aexp^0,w,c
 11409   000B16  B4D8               	btfsc	status,2,c
 11410   000B18  EF90  F005         	goto	u4931
 11411   000B1C  EF92  F005         	goto	u4930
 11412   000B20                     u4931:
 11413   000B20  EF93  F005         	goto	l7429
 11414   000B24                     u4930:
 11415   000B24  8C37               	bsf	___fladd@signs^0,6,c
 11416   000B26                     l7429:
 11417   000B26  5032               	movf	(___fladd@a+3)^0,w,c
 11418   000B28  2432               	addwf	(___fladd@a+3)^0,w,c
 11419   000B2A  6E38               	movwf	___fladd@aexp^0,c
 11420   000B2C  AE31               	btfss	(___fladd@a+2)^0,7,c
 11421   000B2E  EF9B  F005         	goto	u4941
 11422   000B32  EF9D  F005         	goto	u4940
 11423   000B36                     u4941:
 11424   000B36  EF9E  F005         	goto	l7435
 11425   000B3A                     u4940:
 11426   000B3A  8038               	bsf	___fladd@aexp^0,0,c
 11427   000B3C                     l7435:
 11428   000B3C  5038               	movf	___fladd@aexp^0,w,c
 11429   000B3E  B4D8               	btfsc	status,2,c
 11430   000B40  EFA4  F005         	goto	u4951
 11431   000B44  EFA6  F005         	goto	u4950
 11432   000B48                     u4951:
 11433   000B48  EFBB  F005         	goto	l7445
 11434   000B4C                     u4950:
 11435   000B4C  2838               	incf	___fladd@aexp^0,w,c
 11436   000B4E  A4D8               	btfss	status,2,c
 11437   000B50  EFAC  F005         	goto	u4961
 11438   000B54  EFAE  F005         	goto	u4960
 11439   000B58                     u4961:
 11440   000B58  EFB6  F005         	goto	l7441
 11441   000B5C                     u4960:
 11442   000B5C  0E00               	movlw	0
 11443   000B5E  6E2F               	movwf	___fladd@a^0,c
 11444   000B60  0E00               	movlw	0
 11445   000B62  6E30               	movwf	(___fladd@a+1)^0,c
 11446   000B64  0E00               	movlw	0
 11447   000B66  6E31               	movwf	(___fladd@a+2)^0,c
 11448   000B68  0E00               	movlw	0
 11449   000B6A  6E32               	movwf	(___fladd@a+3)^0,c
 11450   000B6C                     l7441:
 11451   000B6C  8E31               	bsf	(___fladd@a+2)^0,7,c
 11452   000B6E  0E00               	movlw	0
 11453   000B70  6E32               	movwf	(___fladd@a+3)^0,c
 11454   000B72  EFC3  F005         	goto	l7447
 11455   000B76                     l7445:
 11456   000B76  0E00               	movlw	0
 11457   000B78  6E2F               	movwf	___fladd@a^0,c
 11458   000B7A  0E00               	movlw	0
 11459   000B7C  6E30               	movwf	(___fladd@a+1)^0,c
 11460   000B7E  0E00               	movlw	0
 11461   000B80  6E31               	movwf	(___fladd@a+2)^0,c
 11462   000B82  0E00               	movlw	0
 11463   000B84  6E32               	movwf	(___fladd@a+3)^0,c
 11464   000B86                     l7447:
 11465   000B86  5039               	movf	___fladd@bexp^0,w,c
 11466   000B88  5C38               	subwf	___fladd@aexp^0,w,c
 11467   000B8A  B0D8               	btfsc	status,0,c
 11468   000B8C  EFCA  F005         	goto	u4971
 11469   000B90  EFCC  F005         	goto	u4970
 11470   000B94                     u4971:
 11471   000B94  EFF3  F005         	goto	l7483
 11472   000B98                     u4970:
 11473   000B98  AC37               	btfss	___fladd@signs^0,6,c
 11474   000B9A  EFD1  F005         	goto	u4981
 11475   000B9E  EFD3  F005         	goto	u4980
 11476   000BA2                     u4981:
 11477   000BA2  EFD5  F005         	goto	l7453
 11478   000BA6                     u4980:
 11479   000BA6  0E80               	movlw	128
 11480   000BA8  1A37               	xorwf	___fladd@signs^0,f,c
 11481   000BAA                     l7453:
 11482   000BAA  C039  F03A         	movff	___fladd@bexp,___fladd@grs
 11483   000BAE  C038  F039         	movff	___fladd@aexp,___fladd@bexp
 11484   000BB2  C03A  F038         	movff	___fladd@grs,___fladd@aexp
 11485   000BB6  C02B  F03A         	movff	___fladd@b,___fladd@grs
 11486   000BBA  C02F  F02B         	movff	___fladd@a,___fladd@b
 11487   000BBE  C03A  F02F         	movff	___fladd@grs,___fladd@a
 11488   000BC2  C02C  F03A         	movff	___fladd@b+1,___fladd@grs
 11489   000BC6  C030  F02C         	movff	___fladd@a+1,___fladd@b+1
 11490   000BCA  C03A  F030         	movff	___fladd@grs,___fladd@a+1
 11491   000BCE  C02D  F03A         	movff	___fladd@b+2,___fladd@grs
 11492   000BD2  C031  F02D         	movff	___fladd@a+2,___fladd@b+2
 11493   000BD6  C03A  F031         	movff	___fladd@grs,___fladd@a+2
 11494   000BDA  C02E  F03A         	movff	___fladd@b+3,___fladd@grs
 11495   000BDE  C032  F02E         	movff	___fladd@a+3,___fladd@b+3
 11496   000BE2  C03A  F032         	movff	___fladd@grs,___fladd@a+3
 11497   000BE6                     l7483:
 11498   000BE6  0E00               	movlw	0
 11499   000BE8  6E3A               	movwf	___fladd@grs^0,c
 11500   000BEA  5039               	movf	___fladd@bexp^0,w,c
 11501   000BEC  C038  F033         	movff	___fladd@aexp,??___fladd
 11502   000BF0  6A34               	clrf	(??___fladd+1)^0,c
 11503   000BF2  5E33               	subwf	??___fladd^0,f,c
 11504   000BF4  0E00               	movlw	0
 11505   000BF6  5A34               	subwfb	(??___fladd+1)^0,f,c
 11506   000BF8  BE34               	btfsc	(??___fladd+1)^0,7,c
 11507   000BFA  EF08  F006         	goto	u4991
 11508   000BFE  5034               	movf	(??___fladd+1)^0,w,c
 11509   000C00  E109               	bnz	u4990
 11510   000C02  0E1A               	movlw	26
 11511   000C04  5C33               	subwf	??___fladd^0,w,c
 11512   000C06  A0D8               	btfss	status,0,c
 11513   000C08  EF08  F006         	goto	u4991
 11514   000C0C  EF0A  F006         	goto	u4990
 11515   000C10                     u4991:
 11516   000C10  EF41  F006         	goto	l2692
 11517   000C14                     u4990:
 11518   000C14  502B               	movf	___fladd@b^0,w,c
 11519   000C16  102C               	iorwf	(___fladd@b+1)^0,w,c
 11520   000C18  102D               	iorwf	(___fladd@b+2)^0,w,c
 11521   000C1A  102E               	iorwf	(___fladd@b+3)^0,w,c
 11522   000C1C  A4D8               	btfss	status,2,c
 11523   000C1E  EF13  F006         	goto	u5001
 11524   000C22  EF16  F006         	goto	u5000
 11525   000C26                     u5001:
 11526   000C26  0E01               	movlw	1
 11527   000C28  EF17  F006         	goto	u5010
 11528   000C2C                     u5000:
 11529   000C2C  0E00               	movlw	0
 11530   000C2E                     u5010:
 11531   000C2E  6E3A               	movwf	___fladd@grs^0,c
 11532   000C30  0E00               	movlw	0
 11533   000C32  6E2B               	movwf	___fladd@b^0,c
 11534   000C34  0E00               	movlw	0
 11535   000C36  6E2C               	movwf	(___fladd@b+1)^0,c
 11536   000C38  0E00               	movlw	0
 11537   000C3A  6E2D               	movwf	(___fladd@b+2)^0,c
 11538   000C3C  0E00               	movlw	0
 11539   000C3E  6E2E               	movwf	(___fladd@b+3)^0,c
 11540   000C40  C038  F039         	movff	___fladd@aexp,___fladd@bexp
 11541   000C44  EF4A  F006         	goto	l2691
 11542   000C48                     l2693:
 11543   000C48  A03A               	btfss	___fladd@grs^0,0,c
 11544   000C4A  EF29  F006         	goto	u5021
 11545   000C4E  EF2B  F006         	goto	u5020
 11546   000C52                     u5021:
 11547   000C52  EF31  F006         	goto	l7495
 11548   000C56                     u5020:
 11549   000C56  90D8               	bcf	status,0,c
 11550   000C58  303A               	rrcf	___fladd@grs^0,w,c
 11551   000C5A  0901               	iorlw	1
 11552   000C5C  6E3A               	movwf	___fladd@grs^0,c
 11553   000C5E  EF33  F006         	goto	l7497
 11554   000C62                     l7495:
 11555   000C62  90D8               	bcf	status,0,c
 11556   000C64  323A               	rrcf	___fladd@grs^0,f,c
 11557   000C66                     l7497:
 11558   000C66  A02B               	btfss	___fladd@b^0,0,c
 11559   000C68  EF38  F006         	goto	u5031
 11560   000C6C  EF3A  F006         	goto	u5030
 11561   000C70                     u5031:
 11562   000C70  EF3B  F006         	goto	l7501
 11563   000C74                     u5030:
 11564   000C74  8E3A               	bsf	___fladd@grs^0,7,c
 11565   000C76                     l7501:
 11566   000C76  342E               	rlcf	(___fladd@b+3)^0,w,c
 11567   000C78  322E               	rrcf	(___fladd@b+3)^0,f,c
 11568   000C7A  322D               	rrcf	(___fladd@b+2)^0,f,c
 11569   000C7C  322C               	rrcf	(___fladd@b+1)^0,f,c
 11570   000C7E  322B               	rrcf	___fladd@b^0,f,c
 11571   000C80  2A39               	incf	___fladd@bexp^0,f,c
 11572   000C82                     l2692:
 11573   000C82  5038               	movf	___fladd@aexp^0,w,c
 11574   000C84  5C39               	subwf	___fladd@bexp^0,w,c
 11575   000C86  A0D8               	btfss	status,0,c
 11576   000C88  EF48  F006         	goto	u5041
 11577   000C8C  EF4A  F006         	goto	u5040
 11578   000C90                     u5041:
 11579   000C90  EF24  F006         	goto	l2693
 11580   000C94                     u5040:
 11581   000C94                     l2691:
 11582   000C94  BC37               	btfsc	___fladd@signs^0,6,c
 11583   000C96  EF4F  F006         	goto	u5051
 11584   000C9A  EF51  F006         	goto	u5050
 11585   000C9E                     u5051:
 11586   000C9E  EF91  F006         	goto	l7529
 11587   000CA2                     u5050:
 11588   000CA2  5039               	movf	___fladd@bexp^0,w,c
 11589   000CA4  A4D8               	btfss	status,2,c
 11590   000CA6  EF57  F006         	goto	u5061
 11591   000CAA  EF59  F006         	goto	u5060
 11592   000CAE                     u5061:
 11593   000CAE  EF63  F006         	goto	l7511
 11594   000CB2                     u5060:
 11595   000CB2  0E00               	movlw	0
 11596   000CB4  6E2B               	movwf	?___fladd^0,c
 11597   000CB6  0E00               	movlw	0
 11598   000CB8  6E2C               	movwf	(?___fladd+1)^0,c
 11599   000CBA  0E00               	movlw	0
 11600   000CBC  6E2D               	movwf	(?___fladd+2)^0,c
 11601   000CBE  0E00               	movlw	0
 11602   000CC0  6E2E               	movwf	(?___fladd+3)^0,c
 11603   000CC2  EFB2  F007         	goto	l2700
 11604   000CC6                     l7511:
 11605   000CC6  502F               	movf	___fladd@a^0,w,c
 11606   000CC8  262B               	addwf	___fladd@b^0,f,c
 11607   000CCA  5030               	movf	(___fladd@a+1)^0,w,c
 11608   000CCC  222C               	addwfc	(___fladd@b+1)^0,f,c
 11609   000CCE  5031               	movf	(___fladd@a+2)^0,w,c
 11610   000CD0  222D               	addwfc	(___fladd@b+2)^0,f,c
 11611   000CD2  5032               	movf	(___fladd@a+3)^0,w,c
 11612   000CD4  222E               	addwfc	(___fladd@b+3)^0,f,c
 11613   000CD6  A02E               	btfss	(___fladd@b+3)^0,0,c
 11614   000CD8  EF70  F006         	goto	u5071
 11615   000CDC  EF72  F006         	goto	u5070
 11616   000CE0                     u5071:
 11617   000CE0  EF1E  F007         	goto	l7565
 11618   000CE4                     u5070:
 11619   000CE4  A03A               	btfss	___fladd@grs^0,0,c
 11620   000CE6  EF77  F006         	goto	u5081
 11621   000CEA  EF79  F006         	goto	u5080
 11622   000CEE                     u5081:
 11623   000CEE  EF7F  F006         	goto	l7519
 11624   000CF2                     u5080:
 11625   000CF2  90D8               	bcf	status,0,c
 11626   000CF4  303A               	rrcf	___fladd@grs^0,w,c
 11627   000CF6  0901               	iorlw	1
 11628   000CF8  6E3A               	movwf	___fladd@grs^0,c
 11629   000CFA  EF81  F006         	goto	l7521
 11630   000CFE                     l7519:
 11631   000CFE  90D8               	bcf	status,0,c
 11632   000D00  323A               	rrcf	___fladd@grs^0,f,c
 11633   000D02                     l7521:
 11634   000D02  A02B               	btfss	___fladd@b^0,0,c
 11635   000D04  EF86  F006         	goto	u5091
 11636   000D08  EF88  F006         	goto	u5090
 11637   000D0C                     u5091:
 11638   000D0C  EF89  F006         	goto	l7525
 11639   000D10                     u5090:
 11640   000D10  8E3A               	bsf	___fladd@grs^0,7,c
 11641   000D12                     l7525:
 11642   000D12  342E               	rlcf	(___fladd@b+3)^0,w,c
 11643   000D14  322E               	rrcf	(___fladd@b+3)^0,f,c
 11644   000D16  322D               	rrcf	(___fladd@b+2)^0,f,c
 11645   000D18  322C               	rrcf	(___fladd@b+1)^0,f,c
 11646   000D1A  322B               	rrcf	___fladd@b^0,f,c
 11647   000D1C  2A39               	incf	___fladd@bexp^0,f,c
 11648   000D1E  EF1E  F007         	goto	l7565
 11649   000D22                     l7529:
 11650   000D22  502F               	movf	___fladd@a^0,w,c
 11651   000D24  5C2B               	subwf	___fladd@b^0,w,c
 11652   000D26  5030               	movf	(___fladd@a+1)^0,w,c
 11653   000D28  582C               	subwfb	(___fladd@b+1)^0,w,c
 11654   000D2A  5031               	movf	(___fladd@a+2)^0,w,c
 11655   000D2C  582D               	subwfb	(___fladd@b+2)^0,w,c
 11656   000D2E  502E               	movf	(___fladd@b+3)^0,w,c
 11657   000D30  0A80               	xorlw	128
 11658   000D32  6E33               	movwf	??___fladd^0,c
 11659   000D34  5032               	movf	(___fladd@a+3)^0,w,c
 11660   000D36  0A80               	xorlw	128
 11661   000D38  5833               	subwfb	??___fladd^0,w,c
 11662   000D3A  B0D8               	btfsc	status,0,c
 11663   000D3C  EFA2  F006         	goto	u5101
 11664   000D40  EFA4  F006         	goto	u5100
 11665   000D44                     u5101:
 11666   000D44  EFCF  F006         	goto	l7539
 11667   000D48                     u5100:
 11668   000D48  502B               	movf	___fladd@b^0,w,c
 11669   000D4A  5C2F               	subwf	___fladd@a^0,w,c
 11670   000D4C  6E33               	movwf	??___fladd^0,c
 11671   000D4E  502C               	movf	(___fladd@b+1)^0,w,c
 11672   000D50  5830               	subwfb	(___fladd@a+1)^0,w,c
 11673   000D52  6E34               	movwf	(??___fladd+1)^0,c
 11674   000D54  502D               	movf	(___fladd@b+2)^0,w,c
 11675   000D56  5831               	subwfb	(___fladd@a+2)^0,w,c
 11676   000D58  6E35               	movwf	(??___fladd+2)^0,c
 11677   000D5A  502E               	movf	(___fladd@b+3)^0,w,c
 11678   000D5C  5832               	subwfb	(___fladd@a+3)^0,w,c
 11679   000D5E  6E36               	movwf	(??___fladd+3)^0,c
 11680   000D60  0EFF               	movlw	255
 11681   000D62  2433               	addwf	??___fladd^0,w,c
 11682   000D64  6E2B               	movwf	___fladd@b^0,c
 11683   000D66  0EFF               	movlw	255
 11684   000D68  2034               	addwfc	(??___fladd+1)^0,w,c
 11685   000D6A  6E2C               	movwf	(___fladd@b+1)^0,c
 11686   000D6C  0EFF               	movlw	255
 11687   000D6E  2035               	addwfc	(??___fladd+2)^0,w,c
 11688   000D70  6E2D               	movwf	(___fladd@b+2)^0,c
 11689   000D72  0EFF               	movlw	255
 11690   000D74  2036               	addwfc	(??___fladd+3)^0,w,c
 11691   000D76  6E2E               	movwf	(___fladd@b+3)^0,c
 11692   000D78  0E80               	movlw	128
 11693   000D7A  1A37               	xorwf	___fladd@signs^0,f,c
 11694   000D7C  6C3A               	negf	___fladd@grs^0,c
 11695   000D7E  503A               	movf	___fladd@grs^0,w,c
 11696   000D80  A4D8               	btfss	status,2,c
 11697   000D82  EFC5  F006         	goto	u5111
 11698   000D86  EFC7  F006         	goto	u5110
 11699   000D8A                     u5111:
 11700   000D8A  EFD7  F006         	goto	l2708
 11701   000D8E                     u5110:
 11702   000D8E  0E01               	movlw	1
 11703   000D90  262B               	addwf	___fladd@b^0,f,c
 11704   000D92  0E00               	movlw	0
 11705   000D94  222C               	addwfc	(___fladd@b+1)^0,f,c
 11706   000D96  222D               	addwfc	(___fladd@b+2)^0,f,c
 11707   000D98  222E               	addwfc	(___fladd@b+3)^0,f,c
 11708   000D9A  EFD7  F006         	goto	l2708
 11709   000D9E                     l7539:
 11710   000D9E  502F               	movf	___fladd@a^0,w,c
 11711   000DA0  5E2B               	subwf	___fladd@b^0,f,c
 11712   000DA2  5030               	movf	(___fladd@a+1)^0,w,c
 11713   000DA4  5A2C               	subwfb	(___fladd@b+1)^0,f,c
 11714   000DA6  5031               	movf	(___fladd@a+2)^0,w,c
 11715   000DA8  5A2D               	subwfb	(___fladd@b+2)^0,f,c
 11716   000DAA  5032               	movf	(___fladd@a+3)^0,w,c
 11717   000DAC  5A2E               	subwfb	(___fladd@b+3)^0,f,c
 11718   000DAE                     l2708:
 11719   000DAE  502B               	movf	___fladd@b^0,w,c
 11720   000DB0  102C               	iorwf	(___fladd@b+1)^0,w,c
 11721   000DB2  102D               	iorwf	(___fladd@b+2)^0,w,c
 11722   000DB4  102E               	iorwf	(___fladd@b+3)^0,w,c
 11723   000DB6  A4D8               	btfss	status,2,c
 11724   000DB8  EFE0  F006         	goto	u5121
 11725   000DBC  EFE2  F006         	goto	u5120
 11726   000DC0                     u5121:
 11727   000DC0  EF17  F007         	goto	l7563
 11728   000DC4                     u5120:
 11729   000DC4  503A               	movf	___fladd@grs^0,w,c
 11730   000DC6  A4D8               	btfss	status,2,c
 11731   000DC8  EFE8  F006         	goto	u5131
 11732   000DCC  EFEA  F006         	goto	u5130
 11733   000DD0                     u5131:
 11734   000DD0  EF17  F007         	goto	l7563
 11735   000DD4                     u5130:
 11736   000DD4  0E00               	movlw	0
 11737   000DD6  6E2B               	movwf	?___fladd^0,c
 11738   000DD8  0E00               	movlw	0
 11739   000DDA  6E2C               	movwf	(?___fladd+1)^0,c
 11740   000DDC  0E00               	movlw	0
 11741   000DDE  6E2D               	movwf	(?___fladd+2)^0,c
 11742   000DE0  0E00               	movlw	0
 11743   000DE2  6E2E               	movwf	(?___fladd+3)^0,c
 11744   000DE4  EFB2  F007         	goto	l2700
 11745   000DE8                     l7547:
 11746   000DE8  90D8               	bcf	status,0,c
 11747   000DEA  362B               	rlcf	___fladd@b^0,f,c
 11748   000DEC  362C               	rlcf	(___fladd@b+1)^0,f,c
 11749   000DEE  362D               	rlcf	(___fladd@b+2)^0,f,c
 11750   000DF0  362E               	rlcf	(___fladd@b+3)^0,f,c
 11751   000DF2  AE3A               	btfss	___fladd@grs^0,7,c
 11752   000DF4  EFFE  F006         	goto	u5141
 11753   000DF8  EF00  F007         	goto	u5140
 11754   000DFC                     u5141:
 11755   000DFC  EF01  F007         	goto	l7553
 11756   000E00                     u5140:
 11757   000E00  802B               	bsf	___fladd@b^0,0,c
 11758   000E02                     l7553:
 11759   000E02  A03A               	btfss	___fladd@grs^0,0,c
 11760   000E04  EF06  F007         	goto	u5151
 11761   000E08  EF08  F007         	goto	u5150
 11762   000E0C                     u5151:
 11763   000E0C  EF0C  F007         	goto	l7557
 11764   000E10                     u5150:
 11765   000E10  80D8               	bsf	status,0,c
 11766   000E12  363A               	rlcf	___fladd@grs^0,f,c
 11767   000E14  EF0E  F007         	goto	l7559
 11768   000E18                     l7557:
 11769   000E18  90D8               	bcf	status,0,c
 11770   000E1A  363A               	rlcf	___fladd@grs^0,f,c
 11771   000E1C                     l7559:
 11772   000E1C  5039               	movf	___fladd@bexp^0,w,c
 11773   000E1E  B4D8               	btfsc	status,2,c
 11774   000E20  EF14  F007         	goto	u5161
 11775   000E24  EF16  F007         	goto	u5160
 11776   000E28                     u5161:
 11777   000E28  EF17  F007         	goto	l7563
 11778   000E2C                     u5160:
 11779   000E2C  0639               	decf	___fladd@bexp^0,f,c
 11780   000E2E                     l7563:
 11781   000E2E  AE2D               	btfss	(___fladd@b+2)^0,7,c
 11782   000E30  EF1C  F007         	goto	u5171
 11783   000E34  EF1E  F007         	goto	u5170
 11784   000E38                     u5171:
 11785   000E38  EFF4  F006         	goto	l7547
 11786   000E3C                     u5170:
 11787   000E3C                     l7565:
 11788   000E3C  0E00               	movlw	0
 11789   000E3E  6E38               	movwf	___fladd@aexp^0,c
 11790   000E40  AE3A               	btfss	___fladd@grs^0,7,c
 11791   000E42  EF25  F007         	goto	u5181
 11792   000E46  EF27  F007         	goto	u5180
 11793   000E4A                     u5181:
 11794   000E4A  EF3F  F007         	goto	l2717
 11795   000E4E                     u5180:
 11796   000E4E  C03A  F033         	movff	___fladd@grs,??___fladd
 11797   000E52  0E7F               	movlw	127
 11798   000E54  1633               	andwf	??___fladd^0,f,c
 11799   000E56  B4D8               	btfsc	status,2,c
 11800   000E58  EF30  F007         	goto	u5191
 11801   000E5C  EF32  F007         	goto	u5190
 11802   000E60                     u5191:
 11803   000E60  EF36  F007         	goto	l2718
 11804   000E64                     u5190:
 11805   000E64                     l7571:
 11806   000E64  0E01               	movlw	1
 11807   000E66  6E38               	movwf	___fladd@aexp^0,c
 11808   000E68  EF3F  F007         	goto	l2717
 11809   000E6C                     l2718:
 11810   000E6C  A02B               	btfss	___fladd@b^0,0,c
 11811   000E6E  EF3B  F007         	goto	u5201
 11812   000E72  EF3D  F007         	goto	u5200
 11813   000E76                     u5201:
 11814   000E76  EF3F  F007         	goto	l2717
 11815   000E7A                     u5200:
 11816   000E7A  EF32  F007         	goto	l7571
 11817   000E7E                     l2717:
 11818   000E7E  5038               	movf	___fladd@aexp^0,w,c
 11819   000E80  B4D8               	btfsc	status,2,c
 11820   000E82  EF45  F007         	goto	u5211
 11821   000E86  EF47  F007         	goto	u5210
 11822   000E8A                     u5211:
 11823   000E8A  EF72  F007         	goto	l7583
 11824   000E8E                     u5210:
 11825   000E8E  0E01               	movlw	1
 11826   000E90  262B               	addwf	___fladd@b^0,f,c
 11827   000E92  0E00               	movlw	0
 11828   000E94  222C               	addwfc	(___fladd@b+1)^0,f,c
 11829   000E96  222D               	addwfc	(___fladd@b+2)^0,f,c
 11830   000E98  222E               	addwfc	(___fladd@b+3)^0,f,c
 11831   000E9A  A02E               	btfss	(___fladd@b+3)^0,0,c
 11832   000E9C  EF52  F007         	goto	u5221
 11833   000EA0  EF54  F007         	goto	u5220
 11834   000EA4                     u5221:
 11835   000EA4  EF72  F007         	goto	l7583
 11836   000EA8                     u5220:
 11837   000EA8  C02B  F033         	movff	___fladd@b,??___fladd
 11838   000EAC  C02C  F034         	movff	___fladd@b+1,??___fladd+1
 11839   000EB0  C02D  F035         	movff	___fladd@b+2,??___fladd+2
 11840   000EB4  C02E  F036         	movff	___fladd@b+3,??___fladd+3
 11841   000EB8  3436               	rlcf	(??___fladd+3)^0,w,c
 11842   000EBA  3236               	rrcf	(??___fladd+3)^0,f,c
 11843   000EBC  3235               	rrcf	(??___fladd+2)^0,f,c
 11844   000EBE  3234               	rrcf	(??___fladd+1)^0,f,c
 11845   000EC0  3233               	rrcf	??___fladd^0,f,c
 11846   000EC2  C033  F02B         	movff	??___fladd,___fladd@b
 11847   000EC6  C034  F02C         	movff	??___fladd+1,___fladd@b+1
 11848   000ECA  C035  F02D         	movff	??___fladd+2,___fladd@b+2
 11849   000ECE  C036  F02E         	movff	??___fladd+3,___fladd@b+3
 11850   000ED2  2839               	incf	___fladd@bexp^0,w,c
 11851   000ED4  B4D8               	btfsc	status,2,c
 11852   000ED6  EF6F  F007         	goto	u5231
 11853   000EDA  EF71  F007         	goto	u5230
 11854   000EDE                     u5231:
 11855   000EDE  EF72  F007         	goto	l7583
 11856   000EE2                     u5230:
 11857   000EE2  2A39               	incf	___fladd@bexp^0,f,c
 11858   000EE4                     l7583:
 11859   000EE4  2839               	incf	___fladd@bexp^0,w,c
 11860   000EE6  B4D8               	btfsc	status,2,c
 11861   000EE8  EF78  F007         	goto	u5241
 11862   000EEC  EF7A  F007         	goto	u5240
 11863   000EF0                     u5241:
 11864   000EF0  EF82  F007         	goto	l7587
 11865   000EF4                     u5240:
 11866   000EF4  5039               	movf	___fladd@bexp^0,w,c
 11867   000EF6  A4D8               	btfss	status,2,c
 11868   000EF8  EF80  F007         	goto	u5251
 11869   000EFC  EF82  F007         	goto	u5250
 11870   000F00                     u5251:
 11871   000F00  EF94  F007         	goto	l7591
 11872   000F04                     u5250:
 11873   000F04                     l7587:
 11874   000F04  0E00               	movlw	0
 11875   000F06  6E2B               	movwf	___fladd@b^0,c
 11876   000F08  0E00               	movlw	0
 11877   000F0A  6E2C               	movwf	(___fladd@b+1)^0,c
 11878   000F0C  0E00               	movlw	0
 11879   000F0E  6E2D               	movwf	(___fladd@b+2)^0,c
 11880   000F10  0E00               	movlw	0
 11881   000F12  6E2E               	movwf	(___fladd@b+3)^0,c
 11882   000F14  5039               	movf	___fladd@bexp^0,w,c
 11883   000F16  A4D8               	btfss	status,2,c
 11884   000F18  EF90  F007         	goto	u5261
 11885   000F1C  EF92  F007         	goto	u5260
 11886   000F20                     u5261:
 11887   000F20  EF94  F007         	goto	l7591
 11888   000F24                     u5260:
 11889   000F24  0E00               	movlw	0
 11890   000F26  6E37               	movwf	___fladd@signs^0,c
 11891   000F28                     l7591:
 11892   000F28  A039               	btfss	___fladd@bexp^0,0,c
 11893   000F2A  EF99  F007         	goto	u5271
 11894   000F2E  EF9B  F007         	goto	u5270
 11895   000F32                     u5271:
 11896   000F32  EF9E  F007         	goto	l7595
 11897   000F36                     u5270:
 11898   000F36  8E2D               	bsf	(___fladd@b+2)^0,7,c
 11899   000F38  EF9F  F007         	goto	l7597
 11900   000F3C                     l7595:
 11901   000F3C  9E2D               	bcf	(___fladd@b+2)^0,7,c
 11902   000F3E                     l7597:
 11903   000F3E  90D8               	bcf	status,0,c
 11904   000F40  3039               	rrcf	___fladd@bexp^0,w,c
 11905   000F42  6E2E               	movwf	(___fladd@b+3)^0,c
 11906   000F44  AE37               	btfss	___fladd@signs^0,7,c
 11907   000F46  EFA7  F007         	goto	u5281
 11908   000F4A  EFA9  F007         	goto	u5280
 11909   000F4E                     u5281:
 11910   000F4E  EFAA  F007         	goto	l7603
 11911   000F52                     u5280:
 11912   000F52  8E2E               	bsf	(___fladd@b+3)^0,7,c
 11913   000F54                     l7603:
 11914   000F54  C02B  F02B         	movff	___fladd@b,?___fladd
 11915   000F58  C02C  F02C         	movff	___fladd@b+1,?___fladd+1
 11916   000F5C  C02D  F02D         	movff	___fladd@b+2,?___fladd+2
 11917   000F60  C02E  F02E         	movff	___fladd@b+3,?___fladd+3
 11918   000F64                     l2700:
 11919   000F64  0012               	return		;funcret
 11920   000F66                     __end_of___fladd:
 11921                           	callstack 0
 11922                           
 11923 ;; *************** function _interrupt_low *****************
 11924 ;; Defined at:
 11925 ;;		line 154 in file "INTERRUPT/mcal_interrupt_manager.c"
 11926 ;; Parameters:    Size  Location     Type
 11927 ;;		None
 11928 ;; Auto vars:     Size  Location     Type
 11929 ;;		None
 11930 ;; Return value:  Size  Location     Type
 11931 ;;                  1    wreg      void 
 11932 ;; Registers used:
 11933 ;;		wreg, status,2, cstack
 11934 ;; Tracked objects:
 11935 ;;		On entry : 0/0
 11936 ;;		On exit  : 0/0
 11937 ;;		Unchanged: 0/0
 11938 ;; Data sizes:     COMRAM   BANK0   BANK1   BANK2   BANK3   BANK4   BANK5   BANK6   BANK7   BANK8   BANK9  BANK10  BANK1
      +1  BANK12  BANK13  BANK14  BANK15
 11939 ;;      Params:         0       0       0       0       0       0       0       0       0       0       0       0       
      +0       0       0       0       0
 11940 ;;      Locals:         0       0       0       0       0       0       0       0       0       0       0       0       
      +0       0       0       0       0
 11941 ;;      Temps:          3       0       0       0       0       0       0       0       0       0       0       0       
      +0       0       0       0       0
 11942 ;;      Totals:         3       0       0       0       0       0       0       0       0       0       0       0       
      +0       0       0       0       0
 11943 ;;Total ram usage:        3 bytes
 11944 ;; Hardware stack levels used: 1
 11945 ;; Hardware stack levels required when called: 3
 11946 ;; This function calls:
 11947 ;;		_ISR_TIMER0
 11948 ;; This function is called by:
 11949 ;;		Interrupt level 1
 11950 ;; This function uses a non-reentrant model
 11951 ;;
 11952                           
 11953                           	psect	intcodelo
 11954   000018                     __pintcodelo:
 11955                           	callstack 0
 11956   000018                     _interrupt_low:
 11957                           	callstack 20
 11958                           
 11959                           ;incstack = 0
 11960   000018  805B               	bsf	int$flags,0,c	;set compiler interrupt flag (level 1)
 11961   00001A  CFD8 F001          	movff	status,??_interrupt_low
 11962   00001E  CFE8 F002          	movff	wreg,??_interrupt_low+1
 11963   000022  CFE0 F003          	movff	bsr,??_interrupt_low+2
 11964   000026                     
 11965                           ;INTERRUPT/mcal_interrupt_manager.c: 218:      if((INTCONbits.T0IF==1)&&(INTCONbits.T0IE
      +                          ==INTERRUPT_ENABLE)){
 11966   000026  A4F2               	btfss	242,2,c	;volatile
 11967   000028  EF18  F000         	goto	i1u710_21
 11968   00002C  EF1A  F000         	goto	i1u710_20
 11969   000030                     i1u710_21:
 11970   000030  EF23  F000         	goto	i1l629
 11971   000034                     i1u710_20:
 11972   000034  AAF2               	btfss	242,5,c	;volatile
 11973   000036  EF1F  F000         	goto	i1u711_21
 11974   00003A  EF21  F000         	goto	i1u711_20
 11975   00003E                     i1u711_21:
 11976   00003E  EF23  F000         	goto	i1l629
 11977   000042                     i1u711_20:
 11978   000042                     
 11979                           ;INTERRUPT/mcal_interrupt_manager.c: 219:              ISR_TIMER0();
 11980   000042  EC06  F01B         	call	_ISR_TIMER0	;wreg free
 11981   000046                     i1l629:
 11982   000046  C003  FFE0         	movff	??_interrupt_low+2,bsr
 11983   00004A  C002  FFE8         	movff	??_interrupt_low+1,wreg
 11984   00004E  C001  FFD8         	movff	??_interrupt_low,status
 11985   000052  905B               	bcf	int$flags,0,c	;clear compiler interrupt flag (level 1)
 11986   000054  0010               	retfie	
 11987   000056                     __end_of_interrupt_low:
 11988                           	callstack 0
 11989                           
 11990 ;; *************** function _ISR_TIMER0 *****************
 11991 ;; Defined at:
 11992 ;;		line 168 in file "TIMER/timer0.c"
 11993 ;; Parameters:    Size  Location     Type
 11994 ;;		None
 11995 ;; Auto vars:     Size  Location     Type
 11996 ;;		None
 11997 ;; Return value:  Size  Location     Type
 11998 ;;                  1    wreg      void 
 11999 ;; Registers used:
 12000 ;;		wreg, status,2
 12001 ;; Tracked objects:
 12002 ;;		On entry : 0/0
 12003 ;;		On exit  : 0/0
 12004 ;;		Unchanged: 0/0
 12005 ;; Data sizes:     COMRAM   BANK0   BANK1   BANK2   BANK3   BANK4   BANK5   BANK6   BANK7   BANK8   BANK9  BANK10  BANK1
      +1  BANK12  BANK13  BANK14  BANK15
 12006 ;;      Params:         0       0       0       0       0       0       0       0       0       0       0       0       
      +0       0       0       0       0
 12007 ;;      Locals:         0       0       0       0       0       0       0       0       0       0       0       0       
      +0       0       0       0       0
 12008 ;;      Temps:          0       0       0       0       0       0       0       0       0       0       0       0       
      +0       0       0       0       0
 12009 ;;      Totals:         0       0       0       0       0       0       0       0       0       0       0       0       
      +0       0       0       0       0
 12010 ;;Total ram usage:        0 bytes
 12011 ;; Hardware stack levels used: 1
 12012 ;; Hardware stack levels required when called: 2
 12013 ;; This function calls:
 12014 ;;		Nothing
 12015 ;; This function is called by:
 12016 ;;		_interrupt_low
 12017 ;; This function uses a non-reentrant model
 12018 ;;
 12019                           
 12020                           	psect	text60
 12021   00360C                     __ptext60:
 12022                           	callstack 0
 12023   00360C                     _ISR_TIMER0:
 12024                           	callstack 20
 12025   00360C                     
 12026                           ;TIMER/timer0.c: 169:      (INTCONbits.T0IF=0);
 12027   00360C  94F2               	bcf	242,2,c	;volatile
 12028   00360E                     
 12029                           ;TIMER/timer0.c: 170:         TMR0H=(uint8)((saved_preload_value)>>8);
 12030   00360E  0100               	movlb	0	; () banked
 12031   003610  5197               	movf	(_saved_preload_value+1)& (0+255),w,b
 12032   003612  6ED7               	movwf	215,c	;volatile
 12033   003614                     
 12034                           ; BSR set to: 0
 12035                           ;TIMER/timer0.c: 171:         TMR0L=(uint8)((saved_preload_value));
 12036   003614  C096  FFD6         	movff	_saved_preload_value,4054	;volatile
 12037   003618                     
 12038                           ; BSR set to: 0
 12039   003618  0012               	return		;funcret
 12040   00361A                     __end_of_ISR_TIMER0:
 12041                           	callstack 0
 12042                           
 12043 ;; *************** function _interrupt_high *****************
 12044 ;; Defined at:
 12045 ;;		line 17 in file "INTERRUPT/mcal_interrupt_manager.c"
 12046 ;; Parameters:    Size  Location     Type
 12047 ;;		None
 12048 ;; Auto vars:     Size  Location     Type
 12049 ;;		None
 12050 ;; Return value:  Size  Location     Type
 12051 ;;                  1    wreg      void 
 12052 ;; Registers used:
 12053 ;;		wreg, status,2, cstack
 12054 ;; Tracked objects:
 12055 ;;		On entry : 0/0
 12056 ;;		On exit  : 0/0
 12057 ;;		Unchanged: 0/0
 12058 ;; Data sizes:     COMRAM   BANK0   BANK1   BANK2   BANK3   BANK4   BANK5   BANK6   BANK7   BANK8   BANK9  BANK10  BANK1
      +1  BANK12  BANK13  BANK14  BANK15
 12059 ;;      Params:         0       0       0       0       0       0       0       0       0       0       0       0       
      +0       0       0       0       0
 12060 ;;      Locals:         0       0       0       0       0       0       0       0       0       0       0       0       
      +0       0       0       0       0
 12061 ;;      Temps:          0       0       0       0       0       0       0       0       0       0       0       0       
      +0       0       0       0       0
 12062 ;;      Totals:         0       0       0       0       0       0       0       0       0       0       0       0       
      +0       0       0       0       0
 12063 ;;Total ram usage:        0 bytes
 12064 ;; Hardware stack levels used: 1
 12065 ;; Hardware stack levels required when called: 1
 12066 ;; This function calls:
 12067 ;;		i2_ISR_TIMER0
 12068 ;; This function is called by:
 12069 ;;		Interrupt level 2
 12070 ;; This function uses a non-reentrant model
 12071 ;;
 12072                           
 12073                           	psect	intcode
 12074   000008                     __pintcode:
 12075                           	callstack 0
 12076   000008                     _interrupt_high:
 12077                           	callstack 20
 12078                           
 12079                           ; BSR set to: 0
 12080                           ;incstack = 0
 12081   000008  825B               	bsf	int$flags,1,c	;set compiler interrupt flag (level 2)
 12082   00000A  EFB7  F01A         	goto	int_func
 12083                           
 12084                           	psect	intcode_body
 12085   00356E                     __pintcode_body:
 12086                           	callstack 20
 12087   00356E                     int_func:
 12088                           	callstack 20
 12089   00356E                     
 12090                           ;INTERRUPT/mcal_interrupt_manager.c: 86:      if((INTCONbits.T0IF==1)&&(INTCONbits.T0IE=
      +                          =INTERRUPT_ENABLE)){
 12091   00356E  A4F2               	btfss	242,2,c	;volatile
 12092   003570  EFBC  F01A         	goto	i2u708_41
 12093   003574  EFBE  F01A         	goto	i2u708_40
 12094   003578                     i2u708_41:
 12095   003578  EFC7  F01A         	goto	i2l622
 12096   00357C                     i2u708_40:
 12097   00357C  AAF2               	btfss	242,5,c	;volatile
 12098   00357E  EFC3  F01A         	goto	i2u709_41
 12099   003582  EFC5  F01A         	goto	i2u709_40
 12100   003586                     i2u709_41:
 12101   003586  EFC7  F01A         	goto	i2l622
 12102   00358A                     i2u709_40:
 12103   00358A                     
 12104                           ;INTERRUPT/mcal_interrupt_manager.c: 87:              ISR_TIMER0();
 12105   00358A  EC0D  F01B         	call	i2_ISR_TIMER0	;wreg free
 12106   00358E                     i2l622:
 12107   00358E  925B               	bcf	int$flags,1,c	;clear compiler interrupt flag (level 2)
 12108   003590  0011               	retfie		f
 12109   003592                     __end_of_interrupt_high:
 12110                           	callstack 0
 12111                           
 12112 ;; *************** function i2_ISR_TIMER0 *****************
 12113 ;; Defined at:
 12114 ;;		line 168 in file "TIMER/timer0.c"
 12115 ;; Parameters:    Size  Location     Type
 12116 ;;		None
 12117 ;; Auto vars:     Size  Location     Type
 12118 ;;		None
 12119 ;; Return value:  Size  Location     Type
 12120 ;;                  1    wreg      void 
 12121 ;; Registers used:
 12122 ;;		wreg, status,2
 12123 ;; Tracked objects:
 12124 ;;		On entry : 0/0
 12125 ;;		On exit  : 0/0
 12126 ;;		Unchanged: 0/0
 12127 ;; Data sizes:     COMRAM   BANK0   BANK1   BANK2   BANK3   BANK4   BANK5   BANK6   BANK7   BANK8   BANK9  BANK10  BANK1
      +1  BANK12  BANK13  BANK14  BANK15
 12128 ;;      Params:         0       0       0       0       0       0       0       0       0       0       0       0       
      +0       0       0       0       0
 12129 ;;      Locals:         0       0       0       0       0       0       0       0       0       0       0       0       
      +0       0       0       0       0
 12130 ;;      Temps:          0       0       0       0       0       0       0       0       0       0       0       0       
      +0       0       0       0       0
 12131 ;;      Totals:         0       0       0       0       0       0       0       0       0       0       0       0       
      +0       0       0       0       0
 12132 ;;Total ram usage:        0 bytes
 12133 ;; Hardware stack levels used: 1
 12134 ;; This function calls:
 12135 ;;		Nothing
 12136 ;; This function is called by:
 12137 ;;		_interrupt_high
 12138 ;; This function uses a non-reentrant model
 12139 ;;
 12140                           
 12141                           	psect	text62
 12142   00361A                     __ptext62:
 12143                           	callstack 0
 12144   00361A                     i2_ISR_TIMER0:
 12145                           	callstack 20
 12146   00361A                     
 12147                           ;TIMER/timer0.c: 169:      (INTCONbits.T0IF=0);
 12148   00361A  94F2               	bcf	242,2,c	;volatile
 12149   00361C                     
 12150                           ;TIMER/timer0.c: 170:         TMR0H=(uint8)((saved_preload_value)>>8);
 12151   00361C  0100               	movlb	0	; () banked
 12152   00361E  5197               	movf	(_saved_preload_value+1)& (0+255),w,b
 12153   003620  6ED7               	movwf	215,c	;volatile
 12154   003622                     
 12155                           ; BSR set to: 0
 12156                           ;TIMER/timer0.c: 171:         TMR0L=(uint8)((saved_preload_value));
 12157   003622  C096  FFD6         	movff	_saved_preload_value,4054	;volatile
 12158   003626                     
 12159                           ; BSR set to: 0
 12160   003626  0012               	return		;funcret
 12161   003628                     __end_ofi2_ISR_TIMER0:
 12162                           	callstack 0
 12163                           
 12164                           	psect	rparam
 12165   000000                     
 12166                           	psect	temp
 12167   00005B                     btemp:
 12168                           	callstack 0
 12169   00005B                     	ds	1
 12170   000000                     int$flags	set	btemp
 12171   000000                     wtemp8	set	btemp+1
 12172   000000                     ttemp5	set	btemp+1
 12173   000000                     ttemp6	set	btemp+4
 12174   000000                     ttemp7	set	btemp+8
 12175                           
 12176                           	psect	config
 12177                           
 12178                           ; Padding undefined space
 12179   300000                     	org	3145728
 12180   300000  FF                 	db	255
 12181                           
 12182                           ;Config register CONFIG1H @ 0x300001
 12183                           ;	Oscillator Selection bits
 12184                           ;	FOSC = HS, HS oscillator
 12185                           ;	Fail-Safe Clock Monitor Enable bit
 12186                           ;	FCMEN = OFF, Fail-Safe Clock Monitor disabled
 12187                           ;	Internal/External Oscillator Switchover bit
 12188                           ;	IESO = OFF, Oscillator Switchover mode disabled
 12189   300001                     	org	3145729
 12190   300001  02                 	db	2
 12191                           
 12192                           ;Config register CONFIG2L @ 0x300002
 12193                           ;	Power-up Timer Enable bit
 12194                           ;	PWRTEN = OFF, PWRT disabled
 12195                           ;	Brown-out Reset Enable bits
 12196                           ;	BOREN = SBORDIS, Brown-out Reset enabled in hardware only (SBOREN is disabled)
 12197                           ;	Brown Out Reset Voltage bits
 12198                           ;	BORV = 18, VBOR set to 1.8 V nominal
 12199   300002                     	org	3145730
 12200   300002  1F                 	db	31
 12201                           
 12202                           ;Config register CONFIG2H @ 0x300003
 12203                           ;	Watchdog Timer Enable bit
 12204                           ;	WDTEN = OFF, WDT is controlled by SWDTEN bit of the WDTCON register
 12205                           ;	Watchdog Timer Postscale Select bits
 12206                           ;	WDTPS = 32768, 1:32768
 12207   300003                     	org	3145731
 12208   300003  1E                 	db	30
 12209                           
 12210                           ; Padding undefined space
 12211   300004                     	org	3145732
 12212   300004  FF                 	db	255
 12213                           
 12214                           ;Config register CONFIG3H @ 0x300005
 12215                           ;	CCP2 MUX bit
 12216                           ;	CCP2MX = PORTC, CCP2 input/output is multiplexed with RC1
 12217                           ;	PORTB A/D Enable bit
 12218                           ;	PBADEN = ON, PORTB<4:0> pins are configured as analog input channels on Reset
 12219                           ;	Low-Power Timer1 Oscillator Enable bit
 12220                           ;	LPT1OSC = OFF, Timer1 configured for higher power operation
 12221                           ;	HFINTOSC Fast Start-up
 12222                           ;	HFOFST = ON, HFINTOSC starts clocking the CPU without waiting for the oscillator to st
      +                          ablize.
 12223                           ;	MCLR Pin Enable bit
 12224                           ;	MCLRE = ON, MCLR pin enabled; RE3 input pin disabled
 12225   300005                     	org	3145733
 12226   300005  8B                 	db	139
 12227                           
 12228                           ;Config register CONFIG4L @ 0x300006
 12229                           ;	Stack Full/Underflow Reset Enable bit
 12230                           ;	STVREN = ON, Stack full/underflow will cause Reset
 12231                           ;	Single-Supply ICSP Enable bit
 12232                           ;	LVP = ON, Single-Supply ICSP enabled
 12233                           ;	Extended Instruction Set Enable bit
 12234                           ;	XINST = OFF, Instruction set extension and Indexed Addressing mode disabled (Legacy mo
      +                          de)
 12235                           ;	Background Debugger Enable bit
 12236                           ;	DEBUG = OFF, Background debugger disabled, RB6 and RB7 configured as general purpose I
      +                          /O pins
 12237   300006                     	org	3145734
 12238   300006  85                 	db	133
 12239                           
 12240                           ; Padding undefined space
 12241   300007                     	org	3145735
 12242   300007  FF                 	db	255
 12243                           
 12244                           ;Config register CONFIG5L @ 0x300008
 12245                           ;	Code Protection Block 0
 12246                           ;	CP0 = OFF, Block 0 (000800-003FFFh) not code-protected
 12247                           ;	Code Protection Block 1
 12248                           ;	CP1 = OFF, Block 1 (004000-007FFFh) not code-protected
 12249                           ;	Code Protection Block 2
 12250                           ;	CP2 = OFF, Block 2 (008000-00BFFFh) not code-protected
 12251                           ;	Code Protection Block 3
 12252                           ;	CP3 = OFF, Block 3 (00C000-00FFFFh) not code-protected
 12253   300008                     	org	3145736
 12254   300008  0F                 	db	15
 12255                           
 12256                           ;Config register CONFIG5H @ 0x300009
 12257                           ;	Boot Block Code Protection bit
 12258                           ;	CPB = OFF, Boot block (000000-0007FFh) not code-protected
 12259                           ;	Data EEPROM Code Protection bit
 12260                           ;	CPD = OFF, Data EEPROM not code-protected
 12261   300009                     	org	3145737
 12262   300009  C0                 	db	192
 12263                           
 12264                           ;Config register CONFIG6L @ 0x30000A
 12265                           ;	Write Protection Block 0
 12266                           ;	WRT0 = OFF, Block 0 (000800-003FFFh) not write-protected
 12267                           ;	Write Protection Block 1
 12268                           ;	WRT1 = OFF, Block 1 (004000-007FFFh) not write-protected
 12269                           ;	Write Protection Block 2
 12270                           ;	WRT2 = OFF, Block 2 (008000-00BFFFh) not write-protected
 12271                           ;	Write Protection Block 3
 12272                           ;	WRT3 = OFF, Block 3 (00C000h-00FFFFh) not write-protected
 12273   30000A                     	org	3145738
 12274   30000A  0F                 	db	15
 12275                           
 12276                           ;Config register CONFIG6H @ 0x30000B
 12277                           ;	Configuration Register Write Protection bit
 12278                           ;	WRTC = OFF, Configuration registers (300000-3000FFh) not write-protected
 12279                           ;	Boot Block Write Protection bit
 12280                           ;	WRTB = OFF, Boot Block (000000-0007FFh) not write-protected
 12281                           ;	Data EEPROM Write Protection bit
 12282                           ;	WRTD = OFF, Data EEPROM not write-protected
 12283   30000B                     	org	3145739
 12284   30000B  E0                 	db	224
 12285                           
 12286                           ;Config register CONFIG7L @ 0x30000C
 12287                           ;	Table Read Protection Block 0
 12288                           ;	EBTR0 = OFF, Block 0 (000800-003FFFh) not protected from table reads executed in other
      +                           blocks
 12289                           ;	Table Read Protection Block 1
 12290                           ;	EBTR1 = OFF, Block 1 (004000-007FFFh) not protected from table reads executed in other
      +                           blocks
 12291                           ;	Table Read Protection Block 2
 12292                           ;	EBTR2 = OFF, Block 2 (008000-00BFFFh) not protected from table reads executed in other
      +                           blocks
 12293                           ;	Table Read Protection Block 3
 12294                           ;	EBTR3 = OFF, Block 3 (00C000-00FFFFh) not protected from table reads executed in other
      +                           blocks
 12295   30000C                     	org	3145740
 12296   30000C  0F                 	db	15
 12297                           
 12298                           ;Config register CONFIG7H @ 0x30000D
 12299                           ;	Boot Block Table Read Protection bit
 12300                           ;	EBTRB = OFF, Boot Block (000000-0007FFh) not protected from table reads executed in ot
      +                          her blocks
 12301   30000D                     	org	3145741
 12302   30000D  40                 	db	64
 12303                           tosu	equ	0xFFF
 12304                           tosh	equ	0xFFE
 12305                           tosl	equ	0xFFD
 12306                           stkptr	equ	0xFFC
 12307                           pclatu	equ	0xFFB
 12308                           pclath	equ	0xFFA
 12309                           pcl	equ	0xFF9
 12310                           tblptru	equ	0xFF8
 12311                           tblptrh	equ	0xFF7
 12312                           tblptrl	equ	0xFF6
 12313                           tablat	equ	0xFF5
 12314                           prodh	equ	0xFF4
 12315                           prodl	equ	0xFF3
 12316                           indf0	equ	0xFEF
 12317                           postinc0	equ	0xFEE
 12318                           postdec0	equ	0xFED
 12319                           preinc0	equ	0xFEC
 12320                           plusw0	equ	0xFEB
 12321                           fsr0h	equ	0xFEA
 12322                           fsr0l	equ	0xFE9
 12323                           wreg	equ	0xFE8
 12324                           indf1	equ	0xFE7
 12325                           postinc1	equ	0xFE6
 12326                           postdec1	equ	0xFE5
 12327                           preinc1	equ	0xFE4
 12328                           plusw1	equ	0xFE3
 12329                           fsr1h	equ	0xFE2
 12330                           fsr1l	equ	0xFE1
 12331                           bsr	equ	0xFE0
 12332                           indf2	equ	0xFDF
 12333                           postinc2	equ	0xFDE
 12334                           postdec2	equ	0xFDD
 12335                           preinc2	equ	0xFDC
 12336                           plusw2	equ	0xFDB
 12337                           fsr2h	equ	0xFDA
 12338                           fsr2l	equ	0xFD9
 12339                           status	equ	0xFD8

Data Sizes:
    Strings     521
    Constant    160
    Data        48
    BSS         176
    Persistent  6
    Stack       0

Auto Spaces:
    Space          Size  Autos    Used
    COMRAM           94     73      90
    BANK0           160      0     160
    BANK1           256      5      58
    BANK2           256      0       0
    BANK3           256      0       0
    BANK4           256      0       0
    BANK5           256      0       0
    BANK6           256      0       0
    BANK7           256      0       0
    BANK8           256      0       0
    BANK9           256      0       0
    BANK10          256      0       0
    BANK11          256      0       0
    BANK12          256      0       0
    BANK13          256      0       0
    BANK14          256      0       0
    BANK15           96      0       0

Pointer List with Targets:

    ADC_handler	PTR FTN()void  size(2) Largest target is 1
		 -> NULL(), 

    ADC_InterruptHandler	PTR FTN()void  size(2) Largest target is 1
		 -> NULL(), 

    arr_compare@arr1	PTR unsigned char  size(1) Largest target is 5
		 -> password(BANK0[5]), 

    arr_compare@arr2	PTR unsigned char  size(1) Largest target is 5
		 -> valid_password(BANK0[5]), 

    bufferBlock$data	PTR unsigned char  size(2) Largest target is 0

    cb$0	PTR void  size(2) Largest target is 5
		 -> I2C_Read1ByteRegister@returnValue(COMRAM[1]), I2C_Read2ByteRegister@returnValue(COMRAM[2]), I2C_ReadDataBlock@bufferBlock(COMRAM[4]), I2C_Write1ByteRegister@data(COMRAM[1]), 
		 -> I2C_Write2ByteRegister@data(COMRAM[2]), NULL(NULL[0]), 

    cb$0	PTR void  size(2) Largest target is 5
		 -> I2C_Read1ByteRegister@returnValue(COMRAM[1]), I2C_Read2ByteRegister@returnValue(COMRAM[2]), I2C_ReadDataBlock@bufferBlock(COMRAM[4]), I2C_Write1ByteRegister@data(COMRAM[1]), 
		 -> I2C_Write2ByteRegister@data(COMRAM[2]), NULL(NULL[0]), 

    CCP1_ptr_handler	PTR FTN()void  size(2) Largest target is 1
		 -> NULL(), 

    ecu_lcd_4_bits_initialization@lcd	PTR const struct . size(1) Largest target is 6
		 -> lcd(COMRAM[6]), 

    ecu_lcd_4_bits_send_char_data@lcd	PTR const struct . size(1) Largest target is 6
		 -> lcd(COMRAM[6]), 

    ecu_lcd_4_bits_send_char_data_pos@lcd	PTR const struct . size(1) Largest target is 6
		 -> lcd(COMRAM[6]), 

    ecu_lcd_4_bits_send_command@lcd	PTR const struct . size(1) Largest target is 6
		 -> lcd(COMRAM[6]), 

    ecu_lcd_4_bits_send_string_data_pos@lcd	PTR const struct . size(1) Largest target is 6
		 -> lcd(COMRAM[6]), 

    ecu_lcd_4_bits_send_string_data_pos@str	PTR unsigned char  size(2) Largest target is 30
		 -> garage@temp_string(BANK1[1]), room_1@temp_string(BANK1[1]), room_2@temp_string(BANK1[1]), STR_10(CODE[23]), 
		 -> STR_11(CODE[24]), STR_12(CODE[19]), STR_13(CODE[29]), STR_14(CODE[11]), 
		 -> STR_15(CODE[15]), STR_16(CODE[21]), STR_17(CODE[22]), STR_18(CODE[19]), 
		 -> STR_19(CODE[19]), STR_20(CODE[18]), STR_21(CODE[7]), STR_22(CODE[7]), 
		 -> STR_23(CODE[20]), STR_24(CODE[9]), STR_25(CODE[10]), STR_26(CODE[10]), 
		 -> STR_27(CODE[11]), STR_28(CODE[10]), STR_29(CODE[10]), STR_30(CODE[11]), 
		 -> STR_31(CODE[10]), STR_32(CODE[16]), STR_33(CODE[13]), STR_34(CODE[14]), 
		 -> STR_35(CODE[10]), STR_36(CODE[30]), STR_37(CODE[7]), STR_38(CODE[7]), 
		 -> STR_39(CODE[20]), STR_4(CODE[11]), STR_40(CODE[9]), STR_41(CODE[10]), 
		 -> STR_42(CODE[10]), STR_43(CODE[11]), STR_44(CODE[10]), STR_45(CODE[10]), 
		 -> STR_46(CODE[11]), STR_47(CODE[10]), STR_48(CODE[16]), STR_49(CODE[13]), 
		 -> STR_5(CODE[17]), STR_50(CODE[14]), STR_51(CODE[10]), STR_52(CODE[30]), 
		 -> STR_53(CODE[20]), STR_54(CODE[9]), STR_55(CODE[10]), STR_56(CODE[16]), 
		 -> STR_57(CODE[13]), STR_58(CODE[14]), STR_59(CODE[10]), STR_6(CODE[10]), 
		 -> STR_60(CODE[30]), STR_61(CODE[23]), STR_7(CODE[10]), STR_8(CODE[10]), 
		 -> STR_9(CODE[10]), 

    ecu_lcd_conver_16_bits_to_string@char_arr	PTR unsigned char  size(2) Largest target is 1
		 -> garage@temp_string(BANK1[1]), room_1@temp_string(BANK1[1]), room_2@temp_string(BANK1[1]), 

    ecu_led_initialization@led	PTR const struct . size(1) Largest target is 1
		 -> led(COMRAM[1]), 

    ecu_led_off@led	PTR const struct . size(1) Largest target is 1
		 -> led(COMRAM[1]), 

    ecu_led_on@led	PTR const struct . size(1) Largest target is 1
		 -> led(COMRAM[1]), 

    ecu_motor_initialization@my_motor	PTR const struct . size(1) Largest target is 2
		 -> motor(BANK0[2]), 

    ecu_motor_move_right@my_motor	PTR const struct . size(1) Largest target is 2
		 -> motor(BANK0[2]), 

    ecu_motor_stop@my_motor	PTR const struct . size(1) Largest target is 2
		 -> motor(BANK0[2]), 

    EUSART_ErrorHandler	PTR FTN()void  size(2) Largest target is 1
		 -> EUSART_DefaultErrorHandler(), NULL(), 

    EUSART_FramingErrorHandler	PTR FTN()void  size(2) Largest target is 1
		 -> EUSART_DefaultFramingErrorHandler(), NULL(), 

    EUSART_OverrunErrorHandler	PTR FTN()void  size(2) Largest target is 1
		 -> EUSART_DefaultOverrunErrorHandler(), NULL(), 

    EUSART_SetErrorHandler@interruptHandler	PTR FTN()void  size(2) Largest target is 1
		 -> EUSART_DefaultErrorHandler(), 

    EUSART_SetFramingErrorHandler@interruptHandler	PTR FTN()void  size(2) Largest target is 1
		 -> EUSART_DefaultFramingErrorHandler(), 

    EUSART_SetOverrunErrorHandler@interruptHandler	PTR FTN()void  size(2) Largest target is 1
		 -> EUSART_DefaultOverrunErrorHandler(), 

    f$.$buffer	PTR unsigned char  size(2) Largest target is 0

    f$.$source	PTR const unsigned char  size(2) Largest target is 0

    fputc@fp	PTR struct _IO_FILE size(1) Largest target is 12
		 -> sprintf@f(COMRAM[12]), 

    fputc@fp$.$buffer	PTR unsigned char  size(2) Largest target is 0

    fputc@fp$.$source	PTR const unsigned char  size(2) Largest target is 0

    gpio_pin_direction_intialization@_pin_config	PTR const struct . size(1) Largest target is 6
		 -> ecu_led_initialization@mid_term(COMRAM[1]), lcd(COMRAM[6]), lcd$lcd_data(COMRAM[4]), motor(BANK0[2]), 
		 -> motor$motor(BANK0[2]), 

    gpio_pin_write_logic@_pin_config	PTR const struct . size(1) Largest target is 6
		 -> ecu_led_off@mid_term(COMRAM[1]), ecu_led_on@mid_term(COMRAM[1]), lcd(COMRAM[6]), lcd$lcd_data(COMRAM[4]), 
		 -> motor(BANK0[2]), motor$motor(BANK0[2]), 

    I2C_DefaultInterruptHandle	PTR FTN()void  size(2) Largest target is 1
		 -> NULL(), 

    I2C_DO_RX$5544$0	PTR void  size(2) Largest target is 5
		 -> I2C_Read1ByteRegister@returnValue(COMRAM[1]), I2C_Read2ByteRegister@returnValue(COMRAM[2]), I2C_ReadDataBlock@bufferBlock(COMRAM[4]), I2C_Write1ByteRegister@data(COMRAM[1]), 
		 -> I2C_Write2ByteRegister@data(COMRAM[2]), NULL(NULL[0]), 

    I2C_DO_RX_EMPTY$5556$0	PTR void  size(2) Largest target is 5
		 -> I2C_Read1ByteRegister@returnValue(COMRAM[1]), I2C_Read2ByteRegister@returnValue(COMRAM[2]), I2C_ReadDataBlock@bufferBlock(COMRAM[4]), I2C_Write1ByteRegister@data(COMRAM[1]), 
		 -> I2C_Write2ByteRegister@data(COMRAM[2]), NULL(NULL[0]), 

    I2C_DO_TX$5538$0	PTR void  size(2) Largest target is 5
		 -> I2C_Read1ByteRegister@returnValue(COMRAM[1]), I2C_Read2ByteRegister@returnValue(COMRAM[2]), I2C_ReadDataBlock@bufferBlock(COMRAM[4]), I2C_Write1ByteRegister@data(COMRAM[1]), 
		 -> I2C_Write2ByteRegister@data(COMRAM[2]), NULL(NULL[0]), 

    I2C_DO_TX_EMPTY$5550$0	PTR void  size(2) Largest target is 5
		 -> I2C_Read1ByteRegister@returnValue(COMRAM[1]), I2C_Read2ByteRegister@returnValue(COMRAM[2]), I2C_ReadDataBlock@bufferBlock(COMRAM[4]), I2C_Write1ByteRegister@data(COMRAM[1]), 
		 -> I2C_Write2ByteRegister@data(COMRAM[2]), NULL(NULL[0]), 

    i2c_fsmStateTable	const PTR FTN()enum E3128[16] size(2) Largest target is 1
		 -> I2C_DO_ADDRESS_NACK(), I2C_DO_IDLE(), I2C_DO_RCEN(), I2C_DO_RESET(), 
		 -> I2C_DO_RX(), I2C_DO_RX_ACK(), I2C_DO_RX_NACK_RESTART(), I2C_DO_RX_NACK_STOP(), 
		 -> I2C_DO_SEND_ADR_READ(), I2C_DO_SEND_ADR_WRITE(), I2C_DO_SEND_RESTART(), I2C_DO_SEND_RESTART_READ(), 
		 -> I2C_DO_SEND_RESTART_WRITE(), I2C_DO_SEND_STOP(), I2C_DO_TX(), I2C_DO_TX_EMPTY(), 

    I2C_Master_Mode_Clock_Configurations@i2c_obj	PTR const struct . size(1) Largest target is 7
		 -> i2c_obj(BANK0[7]), 

    I2C_Read1ByteRegister@returnValue$data	PTR unsigned char  size(2) Largest target is 0

    I2C_Read2ByteRegister@returnValue$data	PTR unsigned char  size(2) Largest target is 0

    I2C_Report_Receive_Overflow_InterruptHandle	PTR FTN()void  size(2) Largest target is 1
		 -> NULL(), 

    I2C_Report_Write_Collision_InterruptHandler	PTR FTN()void  size(2) Largest target is 1
		 -> NULL(), 

    I2C_Slave_Mode_Configurations@i2c_obj	PTR const struct . size(1) Largest target is 7
		 -> i2c_obj(BANK0[7]), 

    I2C_Status$callbackPayload	PTR void [6] size(2) Largest target is 5
		 -> I2C_Read1ByteRegister@returnValue(COMRAM[1]), I2C_Read2ByteRegister@returnValue(COMRAM[2]), I2C_ReadDataBlock@bufferBlock(COMRAM[4]), I2C_Write1ByteRegister@data(COMRAM[1]), 
		 -> I2C_Write2ByteRegister@data(COMRAM[2]), NULL(NULL[0]), 

    I2C_Status$callbackTable	PTR FTN(PTR void ,)enum E363[6] size(2) Largest target is 1
		 -> I2C_CallbackReturnReset(), I2C_CallbackReturnStop(), rd1RegCompleteHandler(), rd2RegCompleteHandler(), 
		 -> rdBlkRegCompleteHandler(), wr1RegCompleteHandler(), wr2RegCompleteHandler(), NULL(), 

    I2C_Status$data_ptr	PTR unsigned char  size(2) Largest target is 5
		 -> bufferBlock$data(COMRAM[3]), I2C_Read1ByteRegister@reg(COMRAM[1]), I2C_Read1ByteRegister@returnValue(COMRAM[1]), I2C_Read1ByteRegister@returnValue$data(COMRAM[3]), 
		 -> I2C_Read2ByteRegister@reg(COMRAM[1]), I2C_Read2ByteRegister@returnValue(COMRAM[2]), I2C_Read2ByteRegister@returnValue$data(COMRAM[3]), I2C_ReadDataBlock@bufferBlock(COMRAM[4]), 
		 -> I2C_ReadDataBlock@reg(COMRAM[1]), I2C_Write1ByteRegister@data(COMRAM[1]), I2C_Write1ByteRegister@data$data(COMRAM[3]), I2C_Write1ByteRegister@reg(COMRAM[1]), 
		 -> I2C_Write2ByteRegister@data(COMRAM[2]), I2C_Write2ByteRegister@data$data(COMRAM[3]), I2C_Write2ByteRegister@reg(COMRAM[1]), NULL(NULL[0]), 

    I2C_Write1ByteRegister@data$data	PTR unsigned char  size(2) Largest target is 0

    I2C_Write2ByteRegister@data$data	PTR unsigned char  size(2) Largest target is 0

    INT0_CALL_BACK_HANDLER	PTR FTN()void  size(2) Largest target is 1
		 -> NULL(), 

    INT1_CALL_BACK_HANDLER	PTR FTN()void  size(2) Largest target is 1
		 -> NULL(), 

    INT2_CALL_BACK_HANDLER	PTR FTN()void  size(2) Largest target is 1
		 -> NULL(), 

    intx_call_back_handler@obj$Int_interrupt_handler	PTR FTN()void  size(2) Largest target is 0

    intx_clear_flag_handler@obj$Int_interrupt_handler	PTR FTN()void  size(2) Largest target is 0

    intx_disabel_handler@obj$Int_interrupt_handler	PTR FTN()void  size(2) Largest target is 0

    intx_edge_handler@obj$Int_interrupt_handler	PTR FTN()void  size(2) Largest target is 0

    intx_enabel_handler@obj$Int_interrupt_handler	PTR FTN()void  size(2) Largest target is 0

    intx_pin_handler@obj$Int_interrupt_handler	PTR FTN()void  size(2) Largest target is 0

    intx_priority_handler@obj$Int_interrupt_handler	PTR FTN()void  size(2) Largest target is 0

    lat_reg	PTR unsigned char [5] size(2) Largest target is 1
		 -> LATA(BITBIGSFRlllllll[1]), LATB(BITBIGSFRlllh[1]), LATC(BITBIGSFRlllh[1]), LATD(BITBIGSFRlllh[1]), 
		 -> LATE(BITBIGSFRlllh[1]), 

    mcal_interrupt_RBx_init@obj$RBx_interrupt_handler_falling	PTR FTN()void  size(2) Largest target is 0

    mcal_interrupt_RBx_init@obj$RBx_interrupt_handler_rising	PTR FTN()void  size(2) Largest target is 0

    mcal_spi_initialization@spi$SPI_ptr_handler	PTR FTN()void  size(2) Largest target is 0

    mcal_timer0_initialization@timer$Timer0_interrrupt_handler	PTR FTN()void  size(2) Largest target is 0

    mcal_timer0_read@timer$Timer0_interrrupt_handler	PTR FTN()void  size(2) Largest target is 0

    mcal_timer0_write@timer$Timer0_interrrupt_handler	PTR FTN()void  size(2) Largest target is 0

    memset@dest	PTR void  size(2) Largest target is 5
		 -> astrik(BANK0[5]), garage@temp_string(BANK1[1]), room_1@temp_string(BANK1[1]), room_2@temp_string(BANK1[1]), 

    memset@p	PTR unsigned char  size(2) Largest target is 5
		 -> astrik(BANK0[5]), garage@temp_string(BANK1[1]), room_1@temp_string(BANK1[1]), room_2@temp_string(BANK1[1]), 

    mode_select@spi$SPI_ptr_handler	PTR FTN()void  size(2) Largest target is 0

    MSSP_I2C_Init@i2c_obj	PTR const struct . size(1) Largest target is 7
		 -> i2c_obj(BANK0[7]), 

    MSSP_I2C_Master_Send_Start@i2c_obj	PTR const struct . size(1) Largest target is 7
		 -> i2c_obj(BANK0[7]), 

    MSSP_I2C_Master_Send_Stop@i2c_obj	PTR const struct . size(1) Largest target is 7
		 -> i2c_obj(BANK0[7]), 

    MSSP_I2C_Master_Write_Blocking@_ack	PTR unsigned char  size(1) Largest target is 1
		 -> slave_ack(COMRAM[1]), 

    MSSP_I2C_Master_Write_Blocking@i2c_obj	PTR const struct . size(1) Largest target is 7
		 -> i2c_obj(BANK0[7]), 

    phase_select@spi$SPI_ptr_handler	PTR FTN()void  size(2) Largest target is 0

    polarity_select@spi$SPI_ptr_handler	PTR FTN()void  size(2) Largest target is 0

    port_reg	PTR unsigned char [5] size(2) Largest target is 1
		 -> PORTA(BITBIGSFRlllllll[1]), PORTB(BITBIGSFRllllh[1]), PORTC(BITBIGSFRllllh[1]), PORTD(BITBIGSFRllllh[1]), 
		 -> PORTE(BITBIGSFRllllh[1]), 

    prescaler_helper@timer$Timer0_interrrupt_handler	PTR FTN()void  size(2) Largest target is 0

    RBX_CALL_BACK_HANDLER2_FALLING_4	PTR FTN()void  size(2) Largest target is 1
		 -> NULL(), 

    RBX_CALL_BACK_HANDLER2_FALLING_5	PTR FTN()void  size(2) Largest target is 1
		 -> NULL(), 

    RBX_CALL_BACK_HANDLER2_FALLING_6	PTR FTN()void  size(2) Largest target is 1
		 -> NULL(), 

    RBX_CALL_BACK_HANDLER2_FALLING_7	PTR FTN()void  size(2) Largest target is 1
		 -> NULL(), 

    rbx_call_back_handler@obj$RBx_interrupt_handler_falling	PTR FTN()void  size(2) Largest target is 0

    rbx_call_back_handler@obj$RBx_interrupt_handler_rising	PTR FTN()void  size(2) Largest target is 0

    RBX_CALL_BACK_HANDLER_RISING_4	PTR FTN()void  size(2) Largest target is 1
		 -> NULL(), 

    RBX_CALL_BACK_HANDLER_RISING_5	PTR FTN()void  size(2) Largest target is 1
		 -> NULL(), 

    RBX_CALL_BACK_HANDLER_RISING_6	PTR FTN()void  size(2) Largest target is 1
		 -> NULL(), 

    RBX_CALL_BACK_HANDLER_RISING_7	PTR FTN()void  size(2) Largest target is 1
		 -> NULL(), 

    rbx_priority_handler@obj$Int_interrupt_handler	PTR FTN()void  size(2) Largest target is 0

    rdBlkRegCompleteHandler@ptr$data	PTR unsigned char  size(2) Largest target is 0

    S1043$RBx_interrupt_handler_falling	PTR FTN()void  size(2) Largest target is 0

    S1043$RBx_interrupt_handler_rising	PTR FTN()void  size(2) Largest target is 0

    S1953$data	PTR unsigned char  size(2) Largest target is 0

    S2824$0$0	PTR void  size(2) Largest target is 5
		 -> I2C_Read1ByteRegister@returnValue(COMRAM[1]), I2C_Read2ByteRegister@returnValue(COMRAM[2]), I2C_ReadDataBlock@bufferBlock(COMRAM[4]), I2C_Write1ByteRegister@data(COMRAM[1]), 
		 -> I2C_Write2ByteRegister@data(COMRAM[2]), NULL(NULL[0]), 

    S2824$callbackPayload	PTR void [6] size(2) Largest target is 5
		 -> I2C_Read1ByteRegister@returnValue(COMRAM[1]), I2C_Read2ByteRegister@returnValue(COMRAM[2]), I2C_ReadDataBlock@bufferBlock(COMRAM[4]), I2C_Write1ByteRegister@data(COMRAM[1]), 
		 -> I2C_Write2ByteRegister@data(COMRAM[2]), NULL(NULL[0]), 

    S2824$callbackTable	PTR FTN(PTR void ,)enum E363[6] size(2) Largest target is 1
		 -> I2C_CallbackReturnReset(), I2C_CallbackReturnStop(), rd1RegCompleteHandler(), rd2RegCompleteHandler(), 
		 -> rdBlkRegCompleteHandler(), wr1RegCompleteHandler(), wr2RegCompleteHandler(), NULL(), 

    S2824$data_ptr	PTR unsigned char  size(2) Largest target is 5
		 -> I2C_Read1ByteRegister@reg(COMRAM[1]), I2C_Read1ByteRegister@returnValue(COMRAM[1]), I2C_Read2ByteRegister@reg(COMRAM[1]), I2C_Read2ByteRegister@returnValue(COMRAM[2]), 
		 -> I2C_ReadDataBlock@bufferBlock(COMRAM[4]), I2C_ReadDataBlock@reg(COMRAM[1]), I2C_Write1ByteRegister@data(COMRAM[1]), I2C_Write1ByteRegister@reg(COMRAM[1]), 
		 -> I2C_Write2ByteRegister@data(COMRAM[2]), I2C_Write2ByteRegister@reg(COMRAM[1]), NULL(NULL[0]), 

    S3330$SPI_ptr_handler	PTR FTN()void  size(2) Largest target is 0

    S3690$Timer0_interrrupt_handler	PTR FTN()void  size(2) Largest target is 0

    S4673$buffer	PTR unsigned char  size(2) Largest target is 0

    S4673$source	PTR const unsigned char  size(2) Largest target is 0

    S805$Int_interrupt_handler	PTR FTN()void  size(2) Largest target is 0

    sample_select@spi$SPI_ptr_handler	PTR FTN()void  size(2) Largest target is 0

    send_4bits_data_command@lcd	PTR const struct . size(1) Largest target is 6
		 -> lcd(COMRAM[6]), 

    send_4bits_enable@lcd	PTR const struct . size(1) Largest target is 6
		 -> lcd(COMRAM[6]), 

    send_4bits_set_cursor@lcd	PTR const struct . size(1) Largest target is 6
		 -> lcd(COMRAM[6]), 

    sp__memset	PTR void  size(2) Largest target is 5
		 -> astrik(BANK0[5]), garage@temp_string(BANK1[1]), room_1@temp_string(BANK1[1]), room_2@temp_string(BANK1[1]), 

    SPI_INTERRUPT_HANDLER	PTR FTN()void  size(2) Largest target is 1
		 -> NULL(), 

    sprintf@ap	PTR void [1] size(1) Largest target is 2
		 -> ?_sprintf(COMRAM[2]), 

    sprintf@fmt	PTR const unsigned char  size(2) Largest target is 3
		 -> STR_1(CODE[3]), STR_2(CODE[3]), STR_3(CODE[3]), 

    sprintf@s	PTR unsigned char  size(2) Largest target is 1
		 -> garage@temp_string(BANK1[1]), room_1@temp_string(BANK1[1]), room_2@temp_string(BANK1[1]), 

    Timer0_interrrupt_ptr	PTR FTN()void  size(2) Largest target is 1
		 -> NULL(), 

    Timer2_interrrupt_ptr	PTR FTN()void  size(2) Largest target is 1
		 -> NULL(), 

    timer_mode_helper@timer$Timer0_interrrupt_handler	PTR FTN()void  size(2) Largest target is 0

    timer_reg_size_helper@timer$Timer0_interrrupt_handler	PTR FTN()void  size(2) Largest target is 0

    tris_reg	PTR unsigned char [5] size(2) Largest target is 1
		 -> TRISA(BITBIGSFRlllllll[1]), TRISB(ABS[1]), TRISC(BITBIGSFRlllllll[1]), TRISD(BITBIGSFRlhll[1]), 
		 -> TRISE(BITBIGSFRlhll[1]), 

    vfpfcnvrt@ap	PTR PTR void  size(1) Largest target is 1
		 -> sprintf@ap(COMRAM[1]), 

    vfpfcnvrt@cp	PTR unsigned char  size(2) Largest target is 3
		 -> STR_1(CODE[3]), STR_2(CODE[3]), STR_3(CODE[3]), 

    vfpfcnvrt@fmt	PTR PTR unsigned char  size(1) Largest target is 2
		 -> vfprintf@cfmt(COMRAM[2]), 

    vfpfcnvrt@fp	PTR struct _IO_FILE size(1) Largest target is 12
		 -> sprintf@f(COMRAM[12]), 

    vfprintf@ap	PTR PTR void  size(1) Largest target is 1
		 -> sprintf@ap(COMRAM[1]), 

    vfprintf@cfmt	PTR unsigned char  size(2) Largest target is 3
		 -> STR_1(CODE[3]), STR_2(CODE[3]), STR_3(CODE[3]), 

    vfprintf@fmt	PTR const unsigned char  size(2) Largest target is 3
		 -> STR_1(CODE[3]), STR_2(CODE[3]), STR_3(CODE[3]), 

    vfprintf@fp	PTR struct _IO_FILE size(1) Largest target is 12
		 -> sprintf@f(COMRAM[12]), 


Critical Paths under _main in COMRAM

    _main->_MSSP_I2C_Init
    _room_2->___fltol
    _room_1->___fltol
    _fire_check->_ecu_lcd_4_bits_send_string_data_pos
    _ecu_motor_stop->_gpio_pin_write_logic
    _ecu_motor_move_right->_gpio_pin_write_logic
    _ecu_motor_initialization->_gpio_pin_direction_intialization
    _ecu_led_on->_gpio_pin_write_logic
    _ecu_led_off->_gpio_pin_write_logic
    _ecu_led_initialization->_gpio_pin_direction_intialization
    _home_page->_check_password
    _check_password->_ecu_lcd_4_bits_send_char_data_pos
    _check_password->_ecu_lcd_4_bits_send_string_data_pos
    _ecu_lcd_4_bits_send_char_data_pos->_send_4bits_set_cursor
    _garage->___fltol
    _ecu_lcd_conver_16_bits_to_string->_sprintf
    _sprintf->_vfprintf
    _vfprintf->_vfpfcnvrt
    _vfpfcnvrt->_abs
    _abs->___awmod
    _ecu_lcd_4_bits_send_string_data_pos->_send_4bits_set_cursor
    _send_4bits_set_cursor->_ecu_lcd_4_bits_send_command
    _ecu_lcd_4_bits_send_char_data->_send_4bits_data_command
    ___flmul->___xxtofl
    _MSSP_I2C_Send_1_Byte->_MSSP_I2C_Master_Write_Blocking
    _ecu_lcd_4_bits_initialization->_ecu_lcd_4_bits_send_command
    _ecu_lcd_4_bits_send_command->_send_4bits_data_command
    _send_4bits_enable->_gpio_pin_write_logic
    _send_4bits_data_command->_gpio_pin_write_logic
    _EUSART_Initialize->_EUSART_SetErrorHandler
    _EUSART_Initialize->_EUSART_SetFramingErrorHandler
    _EUSART_Initialize->_EUSART_SetOverrunErrorHandler
    _MSSP_I2C_Init->_I2C_Master_Mode_Clock_Configurations
    _I2C_Master_Mode_Clock_Configurations->___fltol
    ___fltol->___fladd
    ___fldiv->___xxtofl
    ___fladd->___fldiv

Critical Paths under _interrupt_low in COMRAM

    None.

Critical Paths under _interrupt_high in COMRAM

    None.

Critical Paths under _main in BANK0

    None.

Critical Paths under _interrupt_low in BANK0

    None.

Critical Paths under _interrupt_high in BANK0

    None.

Critical Paths under _main in BANK1

    _main->_garage
    _main->_room_1
    _main->_room_2

Critical Paths under _interrupt_low in BANK1

    None.

Critical Paths under _interrupt_high in BANK1

    None.

Critical Paths under _main in BANK2

    None.

Critical Paths under _interrupt_low in BANK2

    None.

Critical Paths under _interrupt_high in BANK2

    None.

Critical Paths under _main in BANK3

    None.

Critical Paths under _interrupt_low in BANK3

    None.

Critical Paths under _interrupt_high in BANK3

    None.

Critical Paths under _main in BANK4

    None.

Critical Paths under _interrupt_low in BANK4

    None.

Critical Paths under _interrupt_high in BANK4

    None.

Critical Paths under _main in BANK5

    None.

Critical Paths under _interrupt_low in BANK5

    None.

Critical Paths under _interrupt_high in BANK5

    None.

Critical Paths under _main in BANK6

    None.

Critical Paths under _interrupt_low in BANK6

    None.

Critical Paths under _interrupt_high in BANK6

    None.

Critical Paths under _main in BANK7

    None.

Critical Paths under _interrupt_low in BANK7

    None.

Critical Paths under _interrupt_high in BANK7

    None.

Critical Paths under _main in BANK8

    None.

Critical Paths under _interrupt_low in BANK8

    None.

Critical Paths under _interrupt_high in BANK8

    None.

Critical Paths under _main in BANK9

    None.

Critical Paths under _interrupt_low in BANK9

    None.

Critical Paths under _interrupt_high in BANK9

    None.

Critical Paths under _main in BANK10

    None.

Critical Paths under _interrupt_low in BANK10

    None.

Critical Paths under _interrupt_high in BANK10

    None.

Critical Paths under _main in BANK11

    None.

Critical Paths under _interrupt_low in BANK11

    None.

Critical Paths under _interrupt_high in BANK11

    None.

Critical Paths under _main in BANK12

    None.

Critical Paths under _interrupt_low in BANK12

    None.

Critical Paths under _interrupt_high in BANK12

    None.

Critical Paths under _main in BANK13

    None.

Critical Paths under _interrupt_low in BANK13

    None.

Critical Paths under _interrupt_high in BANK13

    None.

Critical Paths under _main in BANK14

    None.

Critical Paths under _interrupt_low in BANK14

    None.

Critical Paths under _interrupt_high in BANK14

    None.

Critical Paths under _main in BANK15

    None.

Critical Paths under _interrupt_low in BANK15

    None.

Critical Paths under _interrupt_high in BANK15

    None.

Call Graph Tables:

 ---------------------------------------------------------------------------------
 (Depth) Function   	        Calls       Base Space   Used Autos Params    Refs
 ---------------------------------------------------------------------------------
 (0) _main                                                 2     2      0 1072218
                                             71 COMRAM     2     2      0
                        _EUSART_Read
                      _MSSP_I2C_Init
               _MSSP_I2C_Send_1_Byte
                  _SYSTEM_Initialize
                     _check_password
      _ecu_lcd_4_bits_initialization
        _ecu_lcd_4_bits_send_command
_ecu_lcd_4_bits_send_string_data_pos
                             _garage
                          _home_page
                             _room_1
                             _room_2
 ---------------------------------------------------------------------------------
 (1) _room_2                                               7     7      0  121210
                                             68 COMRAM     2     2      0
                                              0 BANK1      5     5      0
                  _ADC_GetConversion
                        _EUSART_Read
               _MSSP_I2C_Send_1_Byte
                            ___flmul
                            ___fltol
                            ___lwdiv
                           ___xxtofl
        _ecu_lcd_4_bits_send_command
_ecu_lcd_4_bits_send_string_data_pos
   _ecu_lcd_conver_16_bits_to_string
 ---------------------------------------------------------------------------------
 (1) _room_1                                               7     7      0  246225
                                             68 COMRAM     2     2      0
                                              0 BANK1      5     5      0
                  _ADC_GetConversion
                        _EUSART_Read
                            ___flmul
                            ___fltol
                            ___lwdiv
                           ___xxtofl
        _ecu_lcd_4_bits_send_command
_ecu_lcd_4_bits_send_string_data_pos
   _ecu_lcd_conver_16_bits_to_string
             _ecu_led_initialization
                        _ecu_led_off
                         _ecu_led_on
           _ecu_motor_initialization
               _ecu_motor_move_right
                     _ecu_motor_stop
                         _fire_check
 ---------------------------------------------------------------------------------
 (2) _fire_check                                           1     1      0   99398
                                             25 COMRAM     1     1      0
                  _ADC_GetConversion
               _MSSP_I2C_Send_1_Byte
        _ecu_lcd_4_bits_send_command
_ecu_lcd_4_bits_send_string_data_pos
 ---------------------------------------------------------------------------------
 (2) _ecu_motor_stop                                       2     1      1    5853
                                             11 COMRAM     1     0      1
               _gpio_pin_write_logic
 ---------------------------------------------------------------------------------
 (2) _ecu_motor_move_right                                 2     1      1    5853
                                             11 COMRAM     1     0      1
               _gpio_pin_write_logic
 ---------------------------------------------------------------------------------
 (2) _ecu_motor_initialization                             2     1      1    1983
                                             10 COMRAM     1     0      1
   _gpio_pin_direction_intialization
 ---------------------------------------------------------------------------------
 (2) _ecu_led_on                                           4     3      1    5945
                                             11 COMRAM     3     2      1
               _gpio_pin_write_logic
 ---------------------------------------------------------------------------------
 (2) _ecu_led_off                                          4     3      1    5945
                                             11 COMRAM     3     2      1
               _gpio_pin_write_logic
 ---------------------------------------------------------------------------------
 (2) _ecu_led_initialization                               4     3      1    2078
                                             10 COMRAM     3     2      1
   _gpio_pin_direction_intialization
 ---------------------------------------------------------------------------------
 (1) _home_page                                            0     0      0  295315
                        _EUSART_Read
                     _check_password
  _ecu_lcd_4_bits_send_char_data_pos
        _ecu_lcd_4_bits_send_command
_ecu_lcd_4_bits_send_string_data_pos
                             _memset
 ---------------------------------------------------------------------------------
 (2) _check_password                                       3     3      0  146873
                                             25 COMRAM     2     2      0
                        _EUSART_Read
                        _arr_compare
  _ecu_lcd_4_bits_send_char_data_pos
        _ecu_lcd_4_bits_send_command
_ecu_lcd_4_bits_send_string_data_pos
 ---------------------------------------------------------------------------------
 (2) _ecu_lcd_4_bits_send_char_data_pos                    5     1      4   49019
                                             20 COMRAM     5     1      4
      _ecu_lcd_4_bits_send_char_data
              _send_4bits_set_cursor
 ---------------------------------------------------------------------------------
 (3) _arr_compare                                          6     3      3     524
                                              3 COMRAM     6     3      3
 ---------------------------------------------------------------------------------
 (1) _garage                                               7     7      0  121126
                                             68 COMRAM     2     2      0
                                              0 BANK1      5     5      0
                  _ADC_GetConversion
                        _EUSART_Read
               _MSSP_I2C_Send_1_Byte
                            ___flmul
                            ___fltol
                            ___lwdiv
                           ___xxtofl
        _ecu_lcd_4_bits_send_command
_ecu_lcd_4_bits_send_string_data_pos
   _ecu_lcd_conver_16_bits_to_string
 ---------------------------------------------------------------------------------
 (2) _ecu_lcd_conver_16_bits_to_string                     5     1      4    7679
                                             53 COMRAM     4     0      4
                             _memset
                            _sprintf
 ---------------------------------------------------------------------------------
 (3) _sprintf                                             23    15      8    4717
                                             32 COMRAM    21    13      8
                           _vfprintf
 ---------------------------------------------------------------------------------
 (4) _vfprintf                                             6     2      4    3871
                                             26 COMRAM     6     2      4
                          _vfpfcnvrt
 ---------------------------------------------------------------------------------
 (5) _vfpfcnvrt                                           13    10      3    3410
                                             13 COMRAM    13    10      3
                            ___awdiv
                            ___awmod
                                _abs
                              _fputc
 ---------------------------------------------------------------------------------
 (6) _fputc                                                8     5      3     957
                                              3 COMRAM     8     5      3
                              _putch
 ---------------------------------------------------------------------------------
 (7) _putch                                                1     1      0       0
 ---------------------------------------------------------------------------------
 (6) _abs                                                  4     2      2     183
                                              9 COMRAM     4     2      2
                            ___awmod (ARG)
 ---------------------------------------------------------------------------------
 (6) ___awmod                                              6     2      4     613
                                              3 COMRAM     6     2      4
 ---------------------------------------------------------------------------------
 (6) ___awdiv                                              8     4      4     625
                                              3 COMRAM     8     4      4
 ---------------------------------------------------------------------------------
 (3) _memset                                               8     2      6    2096
                                              3 COMRAM     8     2      6
 ---------------------------------------------------------------------------------
 (2) _ecu_lcd_4_bits_send_string_data_pos                  6     1      5   69940
                                             20 COMRAM     5     0      5
      _ecu_lcd_4_bits_send_char_data
              _send_4bits_set_cursor
 ---------------------------------------------------------------------------------
 (3) _send_4bits_set_cursor                                4     1      3   28243
                                             17 COMRAM     3     0      3
        _ecu_lcd_4_bits_send_command
 ---------------------------------------------------------------------------------
 (3) _ecu_lcd_4_bits_send_char_data                        3     1      2   19467
                                             14 COMRAM     3     1      2
               _gpio_pin_write_logic
            _send_4bits_data_command
                  _send_4bits_enable
 ---------------------------------------------------------------------------------
 (2) ___lwdiv                                              7     3      4     781
                                              3 COMRAM     7     3      4
 ---------------------------------------------------------------------------------
 (2) ___flmul                                             25    17      8   10383
                                             17 COMRAM    25    17      8
                           ___xxtofl (ARG)
 ---------------------------------------------------------------------------------
 (2) _MSSP_I2C_Send_1_Byte                                 5     4      1    2040
                                              8 COMRAM     4     3      1
         _MSSP_I2C_Master_Send_Start
          _MSSP_I2C_Master_Send_Stop
     _MSSP_I2C_Master_Write_Blocking
 ---------------------------------------------------------------------------------
 (3) _MSSP_I2C_Master_Write_Blocking                       5     2      3     735
                                              3 COMRAM     5     2      3
 ---------------------------------------------------------------------------------
 (3) _MSSP_I2C_Master_Send_Stop                            2     1      1     164
                                              3 COMRAM     2     1      1
 ---------------------------------------------------------------------------------
 (3) _MSSP_I2C_Master_Send_Start                           2     1      1     164
                                              3 COMRAM     2     1      1
 ---------------------------------------------------------------------------------
 (2) _EUSART_Read                                          0     0      0       0
 ---------------------------------------------------------------------------------
 (2) _ADC_GetConversion                                    5     3      2      31
                                              3 COMRAM     5     3      2
 ---------------------------------------------------------------------------------
 (1) _ecu_lcd_4_bits_initialization                        4     3      1   29818
                                             17 COMRAM     4     3      1
        _ecu_lcd_4_bits_send_command
   _gpio_pin_direction_intialization
 ---------------------------------------------------------------------------------
 (3) _gpio_pin_direction_intialization                     7     6      1    1787
                                              3 COMRAM     7     6      1
 ---------------------------------------------------------------------------------
 (4) _ecu_lcd_4_bits_send_command                          3     1      2   27387
                                             14 COMRAM     3     1      2
               _gpio_pin_write_logic
            _send_4bits_data_command
                  _send_4bits_enable
 ---------------------------------------------------------------------------------
 (5) _send_4bits_enable                                    2     1      1    6119
                                             11 COMRAM     2     1      1
               _gpio_pin_write_logic
 ---------------------------------------------------------------------------------
 (5) _send_4bits_data_command                              3     1      2    6671
                                             11 COMRAM     3     1      2
               _gpio_pin_write_logic
 ---------------------------------------------------------------------------------
 (6) _gpio_pin_write_logic                                 8     6      2    5657
                                              3 COMRAM     8     6      2
 ---------------------------------------------------------------------------------
 (1) _SYSTEM_Initialize                                    0     0      0     294
                     _ADC_Initialize
                  _EUSART_Initialize
                     _I2C_Initialize
              _OSCILLATOR_Initialize
             _PIN_MANAGER_Initialize
 ---------------------------------------------------------------------------------
 (2) _PIN_MANAGER_Initialize                               0     0      0       0
 ---------------------------------------------------------------------------------
 (2) _OSCILLATOR_Initialize                                0     0      0       0
 ---------------------------------------------------------------------------------
 (2) _I2C_Initialize                                       0     0      0       0
 ---------------------------------------------------------------------------------
 (2) _EUSART_Initialize                                    0     0      0     294
             _EUSART_SetErrorHandler
      _EUSART_SetFramingErrorHandler
      _EUSART_SetOverrunErrorHandler
 ---------------------------------------------------------------------------------
 (3) _EUSART_SetOverrunErrorHandler                        2     0      2      98
                                              3 COMRAM     2     0      2
 ---------------------------------------------------------------------------------
 (3) _EUSART_SetFramingErrorHandler                        2     0      2      98
                                              3 COMRAM     2     0      2
 ---------------------------------------------------------------------------------
 (3) _EUSART_SetErrorHandler                               2     0      2      98
                                              3 COMRAM     2     0      2
 ---------------------------------------------------------------------------------
 (2) _ADC_Initialize                                       0     0      0       0
 ---------------------------------------------------------------------------------
 (1) _MSSP_I2C_Init                                        2     1      1   11990
                                             70 COMRAM     1     0      1
_I2C_Master_Mode_Clock_Configuration
      _I2C_Slave_Mode_Configurations
             _MSSP_I2C_Mode_GPIO_CFG
 ---------------------------------------------------------------------------------
 (2) _MSSP_I2C_Mode_GPIO_CFG                               0     0      0       0
 ---------------------------------------------------------------------------------
 (2) _I2C_Slave_Mode_Configurations                        2     1      1      98
                                              3 COMRAM     2     1      1
 ---------------------------------------------------------------------------------
 (2) _I2C_Master_Mode_Clock_Configurations                 2     1      1   11414
                                             68 COMRAM     2     1      1
                            ___fladd
                            ___fldiv
                            ___fltol
                           ___xxtofl
 ---------------------------------------------------------------------------------
 (2) ___xxtofl                                            14    10      4    1541
                                              3 COMRAM    14    10      4
 ---------------------------------------------------------------------------------
 (2) ___fltol                                             10     6      4     972
                                             58 COMRAM    10     6      4
                            ___fladd (ARG)
                            ___fldiv (ARG)
                            ___flmul (ARG)
                           ___xxtofl (ARG)
 ---------------------------------------------------------------------------------
 (3) ___fldiv                                             25    17      8    2205
                                             17 COMRAM    25    17      8
                           ___xxtofl (ARG)
 ---------------------------------------------------------------------------------
 (3) ___fladd                                             16     8      8    6544
                                             42 COMRAM    16     8      8
                            ___fldiv (ARG)
                           ___xxtofl (ARG)
 ---------------------------------------------------------------------------------
 Estimated maximum stack depth 7
 ---------------------------------------------------------------------------------
 (Depth) Function   	        Calls       Base Space   Used Autos Params    Refs
 ---------------------------------------------------------------------------------
 (8) _interrupt_low                                        3     3      0       0
                                              0 COMRAM     3     3      0
                         _ISR_TIMER0
 ---------------------------------------------------------------------------------
 (9) _ISR_TIMER0                                           0     0      0       0
 ---------------------------------------------------------------------------------
 Estimated maximum stack depth 9
 ---------------------------------------------------------------------------------
 (Depth) Function   	        Calls       Base Space   Used Autos Params    Refs
 ---------------------------------------------------------------------------------
 (10) _interrupt_high                                      0     0      0       0
                       i2_ISR_TIMER0
 ---------------------------------------------------------------------------------
 (11) i2_ISR_TIMER0                                        0     0      0       0
 ---------------------------------------------------------------------------------
 Estimated maximum stack depth 11
 ---------------------------------------------------------------------------------

 Call Graph Graphs:

 _main (ROOT)
   _EUSART_Read
   _MSSP_I2C_Init
     _I2C_Master_Mode_Clock_Configurations
       ___fladd
         ___fldiv (ARG)
           ___xxtofl (ARG)
         ___xxtofl (ARG)
       ___fldiv
       ___fltol
         ___fladd (ARG)
         ___fldiv (ARG)
         ___flmul (ARG)
           ___xxtofl (ARG)
         ___xxtofl (ARG)
       ___xxtofl
     _I2C_Slave_Mode_Configurations
     _MSSP_I2C_Mode_GPIO_CFG
   _MSSP_I2C_Send_1_Byte
     _MSSP_I2C_Master_Send_Start
     _MSSP_I2C_Master_Send_Stop
     _MSSP_I2C_Master_Write_Blocking
   _SYSTEM_Initialize
     _ADC_Initialize
     _EUSART_Initialize
       _EUSART_SetErrorHandler
       _EUSART_SetFramingErrorHandler
       _EUSART_SetOverrunErrorHandler
     _I2C_Initialize
     _OSCILLATOR_Initialize
     _PIN_MANAGER_Initialize
   _check_password
     _EUSART_Read
     _arr_compare
     _ecu_lcd_4_bits_send_char_data_pos
       _ecu_lcd_4_bits_send_char_data
         _gpio_pin_write_logic
         _send_4bits_data_command
           _gpio_pin_write_logic
         _send_4bits_enable
           _gpio_pin_write_logic
       _send_4bits_set_cursor
         _ecu_lcd_4_bits_send_command
           _gpio_pin_write_logic
           _send_4bits_data_command
           _send_4bits_enable
     _ecu_lcd_4_bits_send_command
     _ecu_lcd_4_bits_send_string_data_pos
       _ecu_lcd_4_bits_send_char_data
       _send_4bits_set_cursor
   _ecu_lcd_4_bits_initialization
     _ecu_lcd_4_bits_send_command
     _gpio_pin_direction_intialization
   _ecu_lcd_4_bits_send_command
   _ecu_lcd_4_bits_send_string_data_pos
   _garage
     _ADC_GetConversion
     _EUSART_Read
     _MSSP_I2C_Send_1_Byte
     ___flmul
     ___fltol
     ___lwdiv
     ___xxtofl
     _ecu_lcd_4_bits_send_command
     _ecu_lcd_4_bits_send_string_data_pos
     _ecu_lcd_conver_16_bits_to_string
       _memset
       _sprintf
         _vfprintf
           _vfpfcnvrt
             ___awdiv
             ___awmod
             _abs
               ___awmod (ARG)
             _fputc
               _putch
   _home_page
     _EUSART_Read
     _check_password
     _ecu_lcd_4_bits_send_char_data_pos
     _ecu_lcd_4_bits_send_command
     _ecu_lcd_4_bits_send_string_data_pos
     _memset
   _room_1
     _ADC_GetConversion
     _EUSART_Read
     ___flmul
     ___fltol
     ___lwdiv
     ___xxtofl
     _ecu_lcd_4_bits_send_command
     _ecu_lcd_4_bits_send_string_data_pos
     _ecu_lcd_conver_16_bits_to_string
     _ecu_led_initialization
       _gpio_pin_direction_intialization
     _ecu_led_off
       _gpio_pin_write_logic
     _ecu_led_on
       _gpio_pin_write_logic
     _ecu_motor_initialization
       _gpio_pin_direction_intialization
     _ecu_motor_move_right
       _gpio_pin_write_logic
     _ecu_motor_stop
       _gpio_pin_write_logic
     _fire_check
       _ADC_GetConversion
       _MSSP_I2C_Send_1_Byte
       _ecu_lcd_4_bits_send_command
       _ecu_lcd_4_bits_send_string_data_pos
   _room_2
     _ADC_GetConversion
     _EUSART_Read
     _MSSP_I2C_Send_1_Byte
     ___flmul
     ___fltol
     ___lwdiv
     ___xxtofl
     _ecu_lcd_4_bits_send_command
     _ecu_lcd_4_bits_send_string_data_pos
     _ecu_lcd_conver_16_bits_to_string

 _interrupt_low (ROOT)
   _ISR_TIMER0

 _interrupt_high (ROOT)
   i2_ISR_TIMER0

 Address spaces:
Name               Size   Autos  Total    Cost      Usage
BIGRAM             F5F      0       0      51        0.0%
EEDATA             400      0       0       0        0.0%
BITBANK14          100      0       0      32        0.0%
BANK14             100      0       0      33        0.0%
BITBANK13          100      0       0      30        0.0%
BANK13             100      0       0      31        0.0%
BITBANK12          100      0       0      28        0.0%
BANK12             100      0       0      29        0.0%
BITBANK11          100      0       0      26        0.0%
BANK11             100      0       0      27        0.0%
BITBANK10          100      0       0      24        0.0%
BANK10             100      0       0      25        0.0%
BITBANK9           100      0       0      22        0.0%
BANK9              100      0       0      23        0.0%
BITBANK8           100      0       0      20        0.0%
BANK8              100      0       0      21        0.0%
BITBANK7           100      0       0      18        0.0%
BANK7              100      0       0      19        0.0%
BITBANK6           100      0       0      16        0.0%
BANK6              100      0       0      17        0.0%
BITBANK5           100      0       0      14        0.0%
BANK5              100      0       0      15        0.0%
BITBANK4           100      0       0      12        0.0%
BANK4              100      0       0      13        0.0%
BITBANK3           100      0       0      10        0.0%
BANK3              100      0       0      11        0.0%
BITBANK2           100      0       0       8        0.0%
BANK2              100      0       0       9        0.0%
BITBANK1           100      0       0       6        0.0%
BANK1              100      5      3A       7       22.7%
BITBANK0            A0      0       0       4        0.0%
BANK0               A0      0      A0       5      100.0%
BITBANK15           60      0       0      34        0.0%
BANK15              60      0       0      35        0.0%
BITCOMRAM           5E      0       0       0        0.0%
COMRAM              5E     49      5A       1       95.7%
BITBIGSFRllllll     1C      0       0      49        0.0%
BITBIGSFRhhlhlh     18      0       0      37        0.0%
BITBIGSFRhhh         D      0       0      36        0.0%
BITBIGSFRlhhhll      9      0       0      42        0.0%
BITBIGSFRllllh       4      0       0      47        0.0%
BITBIGSFRlllh        4      0       0      46        0.0%
BITBIGSFRlhll        4      0       0      45        0.0%
BITBIGSFRlhhhh       3      0       0      40        0.0%
BITBIGSFRlhhhlh      2      0       0      41        0.0%
BITBIGSFRhhlhll      2      0       0      39        0.0%
BITBIGSFRlhlh        1      0       0      44        0.0%
BITBIGSFRhhlhlh      1      0       0      38        0.0%
BITBIGSFRllllll      1      0       0      48        0.0%
BITBIGSFRlhhl        1      0       0      43        0.0%
BIGSFR               0      0       0     200        0.0%
BITSFR               0      0       0     200        0.0%
SFR                  0      0       0     200        0.0%
STACK                0      0       0       2        0.0%
NULL                 0      0       0       0        0.0%
ABS                  0      0     134      50        0.0%
DATA                 0      0     134       3        0.0%
CODE                 0      0       0       0        0.0%


Microchip Technology PIC18 Macro Assembler V2.46 build 20240104201356 
Symbol Table                                                                                   Wed Aug 28 17:33:43 2024

                                 ___fldiv@aexp 002A                                   ___fldiv@bexp 0029  
                                            _i 0050                                   ___fldiv@sign 0022  
                                  _SSPSTATbits 0FC7                          __end_of_interrupt_low 0056  
                                           _L1 FDE1                                             _L2 FDDD  
                                           _L3 FDD9                                             _L4 FDD5  
                                           _L5 FDD1                                             _L6 FDCD  
                                           _P1 FDC9                                             _P2 FDC5  
                                           _P3 FDC1                                             _P4 FDBD  
                                           _P5 FDB9                                             l84 34F2  
                                           l94 34C4                                             l79 356C  
                                 ___awdiv@sign 0009                                             _bp FD95  
                                           _cp FDA5                                             bsr 0FE0  
              __end_of_send_4bits_data_command 3242                                _timer0ReloadVal 0052  
                       __end_of_interrupt_high 3592                                            l142 259C  
                                          l302 3074                                            l242 237E  
                                          l154 26AC                                            l260 248A  
                                          l350 2CC6                                            l270 3320  
                                          l248 23F8                                            l272 332E  
                                          l353 35CA                                            l257 2488  
                                          l290 32EE                                            l347 3666  
                                          l275 3344                                            l700 31F4  
                                          l268 331E                                            l269 3342  
                                          l293 3304                                            l286 32DE  
                                          l710 33C0                                            l287 3302  
                                          l288 32E0                                            l296 3036  
                                          l705 3196                                            l810 3546  
                                          l730 2C30                                            l804 3240  
                                          l823 2E58                                            l842 308A  
                                          l860 300C                                            l853 2FA2  
                                          l846 30DA                                            l695 2892  
                                          l856 2FB8                                            l849 2F4E  
                                          l796 3138                                            _PR2 0FCB  
                                          _lg2 FDB5                                _timer1ReloadVal 009E  
                                          _abs 3434                                            _arr FD75  
                                          _lcd 0054                                            _led 005A  
                                          _ovt FDA9                 ?_EUSART_SetFramingErrorHandler 0004  
                                 ___awmod@sign 0009                                            wreg 0FE8  
                                 ___flmul@aexp 001F                                   ___flmul@bexp 0024  
                                 ___flmul@sign 001E                                   ___flmul@temp 0029  
                                 ___flmul@prod 0025                       ??_MSSP_I2C_Mode_GPIO_CFG 0004  
                                 ?_EUSART_Read 0001                                   _I2C_DO_RESET 0000  
                                 ___fltol@exp1 0044                                           l1002 3496  
                               _check_password 2208                                           l1110 3644  
                                         l1022 35E0                                           l1113 3658  
                                         l1025 363A                                           l1107 364E  
                                         ?_abs 000A                                           l1132 35F6  
                                         l2021 2052                                           l1150 33FA  
                                         l2014 203E                                           l2120 0A0E  
                                         l1147 33DA                                           l2027 2F38  
                                         l2043 2368                                           l1068 3384  
                                         l1085 34F4                                           l2109 080A  
                                         l2143 19FA                                           l2055 01D2  
                                         l2152 1A80                                           l2160 2964  
                                         l1417 360A                                           l1089 351C  
                                         l2129 0AA4                                           l2066 02B4  
                                         l3051 3668                                _timer3ReloadVal 009C  
                                         l2077 04F4                                           l2086 058A  
                                         l2094 0634                                           l2407 2B92  
                                         l2700 0F64                                           l2460 27B2  
                MSSP_I2C_Send_1_Byte@slave_add 000C                                           l2394 2A28  
                                         l2708 0DAE                                           l2717 0E7E  
                                         l2821 2206                                           l2661 2ECC  
                                         l2718 0E6C                                           l2750 154C  
                                         l2654 2EC4                                           l2910 2AE2  
                                         l2832 219E                                           l1960 2DE0  
                                         l2840 3432                                           l2745 1728  
                                         l2825 2142                                           l2818 20AA  
                                         l2691 0C94                                           l2747 1588  
                                         l2692 0C82                                           l2756 15CE  
                                         l2693 0C48                                           l2781 138E  
                                         l2758 1646                                           l2759 1634  
                                         l2847 32C4                                           l2784 1220  
                                         l8001 3372                                           l2777 102A  
                                         l2794 1350                                           l2786 1298  
                                         l8003 337E                                           l2787 1286  
                                         l2891 3284                                           l2885 1E8C  
                                         l2895 344E                                           l2898 3466  
                                         l7411 0AC2                                           l7501 0C76  
                                         l7413 0AD2                                           l7421 0AFC  
                                         l7405 0AA6                                           l7325 3646  
                                         l7511 0CC6                                           l7503 0C80  
                                         l7431 0B2C                                           l7423 0B0C  
                                         l7415 0AE2                                           l7407 0AB2  
                                         l7327 363C                                           l7601 0F52  
                                         l7521 0D02                                           l7513 0CD6  
                                         l7505 0CA2                                           l7441 0B6C  
                                         l7433 0B3A                                           l7425 0B12  
                                         l7417 0AF2                                           l7409 0AC0  
                                         l7329 3650                                           l7603 0F54  
                                         l7531 0D48                                           l7523 0D10  
                                         l7515 0CE4                                           l7507 0CB2  
                                         l7451 0BA6                                           l7443 0B6E  
                                         l7435 0B3C                                           l7427 0B24  
                                         l7419 0AF4                                           l7611 13AA  
                                         l7541 0DC4                                           l7533 0D7C  
                                         l7525 0D12                                           l7517 0CF2  
                                         l7461 0BBA                                           l7453 0BAA  
                                         l7437 0B4C                                           l7445 0B76  
                                         l7429 0B26                                           l7701 15DE  
                                         l7621 13DE                                           l7613 13AC  
                                         l7551 0E00                                           l7543 0DD4  
                                         l7535 0D7E                                           l7527 0D1C  
                                         l7519 0CFE                                           l7471 0BCE  
                                         l7463 0BBE                                           l7455 0BAE  
                                         l7447 0B86                                           l7439 0B5C  
                                         l7703 15EC                                           l7631 1410  
                                         l7615 13BC                                           l7623 13E6  
                                         l7607 1390                                           l7561 0E2C  
                                         l7553 0E02                                           l7537 0D8E  
                                         l7529 0D22                                           l7481 0BE2  
                                         l7473 0BD2                                           l7465 0BC2  
                                         l7457 0BB2                                           l7449 0B98  
                                         l7713 1656                                           l7721 169E  
                                         l7705 15F0                                           l7641 1444  
                                         l7633 1412                                           l7625 13F6  
                                         l7617 13CC                                           l7609 139C  
                                         l8433 35CC                                           l7571 0E64  
                                         l7555 0E10                                           l7547 0DE8  
                                         l7563 0E2E                                           l7539 0D9E  
                                         l7491 0C40                                           l7475 0BD6  
                                         l7467 0BC6                                           l7459 0BB6  
                                         l7483 0BE6                                           l7731 1708  
                                         l7723 16B8                                           l7715 1662  
                                         l7707 15FE                                           l7651 148A  
                                         l7635 1422                                           l7643 144C  
                                         l7627 13FC                                           l7619 13DC  
                                         l8435 35DC                                           l7581 0EE2  
                                         l7557 0E18                                           l7549 0DF2  
                                         l7565 0E3C                                           l7493 0C56  
                                         l7485 0BEA                                           l7477 0BDA  
                                         l7469 0BCA                                           l7733 1716  
                                         l7725 16CE                                           l7717 1670  
                                         l7709 162C                                           l7661 14B2  
                                         l7653 148E                                           l7645 145C  
                                         l7637 1432                                           l7629 1402  
                                         l7591 0F28                                           l7575 0E8E  
                                         l7583 0EE4                                           l7567 0E40  
                                         l7559 0E1C                                           l7495 0C62  
                                         l7487 0C14                                           l7479 0BDE  
                                         l7735 171C                                           l7727 16E8  
                                         l7719 169A                                           l7671 1500  
                                         l7647 1472                                           l7639 1442  
                                         l7593 0F36                                           l7585 0EF4  
                                         l7577 0E9A                                           l7569 0E4E  
                                         l7497 0C66                                           l7489 0C30  
                                         l7737 171E                                           l7729 1704  
                                         l7681 154A                                           l7673 1510  
                                         l7665 14C6                                           l7649 1482  
                                         l7657 14A2                                           l7595 0F3C  
                                         l7587 0F04                                           l7579 0EA8  
                                         l7499 0C74                                           l7691 1598  
                                         l7683 1556                                           l7675 1518  
                                         l7667 14E0                                           l7659 14B2  
                                         l7597 0F3E                                           l7589 0F24  
                                         l7693 15AE                                           l7685 1574  
                                         l7677 1528                                           l7669 14F0  
                                         l7599 0F44                                           l7695 15B4  
                                         l7687 1576                                           l7679 153C  
                                         l7863 35B2                                           l7697 15BE  
                                         l7689 1586                                           l7865 3662  
                                         l7699 15CC                                           l7981 3488  
                                         l7991 3632                                           l7983 348A  
                                         l7975 3468                                           l7993 35E2  
                                         l7985 3494                                           l7977 3480  
                                         l7995 3346                                           l7987 35F8  
                                         l7979 3482                                           l7997 335A  
                                         l7989 3608                                           l7999 3366  
                                         STR_1 FFFB                                           STR_2 FFFB  
                         send_4bits_enable@lcd 000C                                           STR_4 FF6A  
                                         STR_5 FF14                                           STR_6 FF8B  
                                         STR_7 FF95                                           STR_8 FF9F  
                                         STR_9 FFC7                           send_4bits_enable@ret 000D  
                                         _LATA 0F89                                           _LATB 0F8A  
                                         _LATC 0F8B                                           _LATD 0F8C  
                                         _LATE 0F8D                                           u5000 0C2C  
                                         u5001 0C26                                           u5010 0C2E  
                                         u5100 0D48                                           u5020 0C56  
                                         u5101 0D44                                           u5021 0C52  
                                         u5110 0D8E                                           u5030 0C74  
                                         u5111 0D8A                                           u5031 0C70  
                                         u5200 0E7A                                           u5120 0DC4  
                                         u5040 0C94                                           u5201 0E76  
                                         u5121 0DC0                                           u5041 0C90  
                                         u5210 0E8E                                           u5130 0DD4  
                                         u5050 0CA2                                           u5211 0E8A  
                                         u5131 0DD0                                           u5051 0C9E  
                                         u5220 0EA8                                           u5140 0E00  
                                         u5060 0CB2                                           u5300 13BC  
                                         u5221 0EA4                                           u5141 0DFC  
                                         u5061 0CAE                                           u5301 13B8  
                                         u5230 0EE2                                           u5150 0E10  
                                         u5070 0CE4                                           u5310 13CC  
                                         u5231 0EDE                                           u5151 0E0C  
                                         u5071 0CE0                                           u5311 13C8  
                                         u5240 0EF4                                           u5160 0E2C  
                                         u5080 0CF2                                           u5400 1598  
                                         u5320 1410                                           u5241 0EF0  
                                         u5161 0E28                                           u5081 0CEE  
                                         u5401 1594                                           u5321 140C  
                                         u5250 0F04                                           u5170 0E3C  
                                         u5090 0D10                                           u5410 15AE  
                                         u5330 1422                                           u5251 0F00  
                                         u5171 0E38                                           u5091 0D0C  
                                         u5411 15AA                                           u5331 141E  
                                         u5260 0F24                                           u5180 0E4E  
                                         u5500 16E8                                           u5420 15CC  
                                         u5340 1432                                           u5261 0F20  
                                         u5181 0E4A                                           u5501 16E4  
                                         u5421 15C8                                           u5341 142E  
                                         u5270 0F36                                           u5190 0E64  
                                         u5510 1716                                           u5430 15EC  
                                         u5350 1472                                           u5271 0F32  
                                         u5191 0E60                                           u5511 1712  
                                         u5431 15E8                                           u5351 146E  
                                         u5280 0F52                                           u5440 15FE  
                                         u5360 14B2                                           u8000 29B8  
                                         u5281 0F4E                                           u5441 15FA  
                                         u5361 14AE                                           u8001 29B4  
                                         u5450 162C                                           u5370 1528  
                                         u5290 13AA                                           u8010 29D6  
                                         u5451 1628                                           u5371 1524  
                                         u5291 13A6                                           u8011 29D2  
                                         u4900 0AC0                                           u5460 1642  
                                         u5380 154A                                           u8020 29F2  
                                         u8100 2A3A                                           u4901 0ABC  
                                         u5461 163E                                           u5381 1546  
                                         u8021 29EE                                           u8101 2A36  
                                         u4910 0AD2                                           u5470 1656  
                                         u5390 1574                                           u8030 2A18  
                                         u8110 2A4A                                           u4911 0ACE  
                                         u5471 1652                                           u5391 1570  
                                         u8031 2A14                                           u8111 2A46  
                                         u4920 0AE2                                           u5480 1670  
                                         u9000 123E                                           u8040 2AF6  
                                         u8120 2A70                                           u8200 1D78  
                                         u4921 0ADE                                           u5481 166C  
                                         u9001 123A                                           u8041 2AF2  
                                         u8121 2A6C                                           u4930 0B24  
                                         u5490 16B8                                           u9010 1250  
                                         u8050 2B10                                           u8130 2AA2  
                                         u8210 1DDC                                           u4931 0B20  
                                         u5491 16B4                                           u9011 124C  
                                         u8051 2B0C                                           u8131 2A9E  
                                         u8211 1DD8                                           u4940 0B3A  
                                         u8300 32EE                                           u9020 127E  
                                         u9100 2E92                                           u8060 2B2A  
                                         u8140 3442                                           u8220 1DEC  
                                         u4941 0B36                                           u8301 32EA  
                                         u9021 127A                                           u9101 2E8E  
                                         u8061 2B26                                           u8141 343E  
                                         u8221 1DE8                                           u4950 0B4C  
                                         u8150 31A8                                           u8310 32FE  
                                         u9030 1294                                           u9110 2EAE  
                                         u8070 2B48                                           u8230 1DFC  
                                         u4951 0B48                                           u8151 31A4  
                                         u8311 32FA                                           u9031 1290  
                                         u9111 2EAA                                           u8071 2B44  
                                         u8231 1DF8                                           u4960 0B5C  
                                         u9200 2486                                           u9120 237A  
                                         u8320 301E                                           u9040 12A8  
                                         u8080 2B5E                                           u8240 1E0C  
                                         u8160 1CC8                                           u4961 0B58  
                                         u9201 2482                                           u9121 2376  
                                         u8321 301A                                           u9041 12A4  
                                         u8081 2B5A                                           u8241 1E08  
                                         u8161 1CC4                                           u4970 0B98  
                                         u9130 239C                                           u8410 2584  
                                         u9210 27C8                                           u8330 302E  
                                         u9050 12C2                                           u8090 2B82  
                                         u8250 1E54                                           u8170 1D12  
                                         u4971 0B94                                           u9131 2398  
                                         u8411 257E                                           u9211 27C4  
                                         u8331 302A                                           u9051 12BE  
                                         u8091 2B7E                                           u8251 1E50  
                                         u8171 1D0E                                           u4980 0BA6  
                                         u9140 23C0                                           u8404 253C  
                                         u9220 2804                                           u8500 3516  
                                         u8260 3316                                           u8340 3058  
                                         u9060 130A                                           u8180 1D30  
                                         u8420 3396                                           u4981 0BA2  
                                         u9141 23BC                                           u8405 2538  
                                         u9221 2800                                           u8501 3512  
                                         u8261 3312                                           u8341 3054  
                                         u9061 1306                                           u8181 1D2C  
                                         u8421 3392                                           u4990 0C14  
                                         u9150 23D8                                           u8510 33E8  
                                         u8270 332E                                           u9070 1338  
                                         u8350 314A                                           u8430 2BA4  
                                         u8190 1D76                                           u4991 0C10  
                                         u9151 23D4                                           u8511 33E4  
                                         u8271 332A                                           u9071 1334  
                                         u8351 3146                                           u8431 2BA0  
                                         u8191 1D70                                           u8600 2762  
                                         u9160 23F6                                           u8416 2586  
                                         u8280 333E                                           u9080 1372  
                                         u8440 2BB6                                           u8360 327C  
                                         u8520 2EDE                                           u8601 275E  
                                         u9161 23F2                                           u8281 333A  
                                         u9081 136E                                           u8441 2BB2  
                                         u8361 3278                                           u8521 2EDA  
                                         u8610 2782                                           u9170 2430  
                                         u8370 24A0                                           u8290 32D6  
                                         u9090 2E74                                           u8450 2BF4  
                                         u8530 2EEE                                           u8611 277E  
                                         u9171 242C                                           u8371 249C  
                                         u8291 32D2                                           u9091 2E70  
                                         u8531 2EEA                                           u8620 2792  
                                         u8700 21AC                                           u9180 244E  
                                         u8380 24C0                                           u8460 2C20  
                                         u8540 2F1E                                           u8621 278E  
                                         u8701 21A8                                           u9181 244A  
                                         u8381 24BC                                           u8541 2F1A  
                                         u8710 21E6                                           u8630 2066  
                                         u9190 2468                                           u8470 2C30  
                                         u8550 2F36                                           u8711 21E2  
                                         u8631 2062                                           u9191 2464  
                                         u8471 2C2C                                           u8551 2F32  
                                         u8560 26C4                                           u8720 21F4  
                                         u8640 2074                                           u8800 2F4A  
                                         u8561 26C0                                           u8721 21F0  
                                         u8641 2070                                           u8457 2BEA  
                                         u8801 2F46                                           u8570 26F8  
                                         u8650 20D0                                           u8394 24E6  
                                         u8490 3502                                           u8730 3558  
                                         u8651 20CC                                           u8395 24E2  
                                         u8491 34FE                                           u8467 2C16  
                                         u8731 3554                                           u8580 2726  
                                         u8660 2126                                           u7940 25B2  
                                         u8900 0F80                                           u8820 2FB4  
                                         u8740 34D6                                           u8581 2722  
                                         u8661 2122                                           u7941 25AE  
                                         u8901 0F7C                                           u8821 2FB0  
                                         u8741 34D2                                           u8590 273A  
                                         u8670 2170                                           u7950 25D2  
                                         u8910 0F92                                           u8750 34A8  
                                         u8591 2736                                           u8575 26EE  
                                         u8671 216C                                           u7951 25CE  
                                         u8911 0F8E                                           u8815 2F94  
                                         u8751 34A4                                           u8680 218E  
                                         u8920 0FA2                                           u8840 223C  
                                         u8681 218A                                           u8921 0F9E  
                                         u8841 2238                                           u8817 2F96  
                                         u8690 219E                                           u8930 0FE2  
                                         u8850 229A                                           u8691 219A  
                                         u8931 0FDE                                           u8851 2296  
                                         u8835 2FFE                                           u7964 25F8  
                                         u8940 0FF4                                           u7980 2978  
                                         u8860 230A                                           u8780 3086  
                                         u7965 25F4                                           u8941 0FF0  
                                         u7981 2974                                           u8861 2306  
                                         u8781 3082                                           u8837 3000  
                                         u7974 264E                                           u8950 1004  
                                         u7990 2992                                           u8870 2368  
                                         u7975 264A                                           u8951 1000  
                                         u7991 298E                                           u8871 2364  
                                         u8960 103A                                           u8880 28D6  
                                         u8961 1036                                           u8881 28D2  
                                         u8970 104A                                           u8890 294A  
                                         u8971 1046                                           u8795 30D0  
                                         u8891 2946                                           u8980 11C4  
                                         u8797 30D2                                           u8990 121E  
                                         u8991 121A                                           u8985 11BA  
                                         _TMR1 0FCE                                           _TMR2 0FCC  
                                         _TMR3 0FB2                                           _WPUB 0F7C  
                                         abs@a 000A              ecu_lcd_4_bits_send_char_data@data 0010  
                                         _dbuf 0100                                           _cp_h FDF1  
                                         _cp_l FDED                                           _dp_h FD8D  
                                         _dp_l FD85                                           _main 1A82  
                                         _prec 0090                                           fsr0h 0FEA  
                                         fsr1h 0FE2                                           indf0 0FEF  
                                         fsr2h 0FDA                                           fsr0l 0FE9  
                                         indf1 0FE7                                           indf2 0FDF  
                                         fsr1l 0FE1                                           fsr2l 0FD9  
                                         btemp 005B                                           prodh 0FF4  
                                         prodl 0FF3                                           start 0056  
                       ecu_motor_stop@my_motor 000C                                ___fldiv@new_exp 0023  
                            room_2@temp_string 0139                                    ?_ISR_TIMER0 0001  
                                 ___param_bank 0000                                          ??_abs 000C  
                         _gpio_pin_write_logic 259E                                  _I2C_DO_RX_ACK 0000  
                __end_of_OSCILLATOR_Initialize 363C                                          l11001 30C0  
                                        l11003 30C2                                          l11011 2F4A  
                                        l11005 30D2                                          l11013 2F52  
                                        l11101 28A6                                          l11031 2FF0  
                                        l11023 2FA4                                          l11015 2F84  
                                        l11111 2908                                          l11103 28BA  
                                        l10401 259E                                          l11201 11E8  
                                        l11121 0F66                                          l11033 3000  
                                        l11025 2FB4                                          l11017 2F86  
                                        l11009 2F3A                                          l11113 2914  
                                        l11105 28D6                                          l10403 25B2  
                                        l11211 123E                                          l11203 1206  
                                        l11131 0FA2                                          l11123 0F72  
                                        l11051 222C                                          l11043 220C  
                                        l11027 2FBC                                          l11019 2F96  
                                        l11115 292C                                          l11107 28E0  
                                        l11301 240C                                          l10405 25D2  
                                        l11221 12A8                                          l11213 1242  
                                        l11205 1210                                          l11141 0FD4  
                                        l11133 0FB2                                          l11125 0F80  
                                        l10501 2B02                                          l11061 2270  
                                        l11045 2224                                          l11037 2208  
                                        l11029 2FEE                                          l11109 28F4  
                                        l11117 294E                                          l11311 244E  
                                        l11303 2414                                          l10407 25DA  
                                        l10415 2680                                          l10431 3214  
                                        l11231 130A                                          l11223 12B4  
                                        l11215 1250                                          l11207 121E  
                                        l11151 1014                                          l11143 0FE2  
                                        l11135 0FB8                                          l11127 0F82  
                                        l10511 2B3A                                          l10503 2B10  
                                        l11055 2240                                          l11047 2228  
                                        l11119 295A                                          l11321 248A  
                                        l11313 2450                                          l11305 2418  
                                        l13001 2694                                          l10409 2630  
                                        l10417 26AA                                          l10433 3228  
                                        l10425 31F6                                          l10441 352C  
                                        l11241 1372                                          l11233 131E  
                                        l11225 12C2                                          l11217 127E  
                                        l11209 1230                                          l11161 105E  
                                        l11153 101A                                          l11145 0FE4  
                                        l11137 0FC8                                          l11129 0F92  
                                        l10513 2B48                                          l10521 2B72  
                                        l10505 2B18                                          l10601 1E68  
                                        l11081 22EA                                          l11073 22AA  
                                        l11057 224E                                          l11065 2276  
                                        l11049 2228                                          l11315 2468  
                                        l11307 2430                                          l10427 31F6  
                                        l10443 3534                                          l11331 27E4  
                                        l10611 333E                                          l11243 1374  
                                        l11235 1338                                          l11227 12EC  
                                        l11171 10AE                                          l11163 106A  
                                        l11155 103A                                          l11147 0FF4  
                                        l11139 0FCE                                          l11251 2E5A  
                                        l10451 296A                                          l10523 2B82  
                                        l10515 2B5E                                          l10507 2B2A  
                                        l10531 2A3A                                          l11091 2346  
                                        l11083 22F6                                          l11075 22AC  
                                        l11067 228A                                          l11059 225A  
                                        l11317 246E                                          l11309 2436  
                                        l10429 3204                                          l10445 3544  
                                        l10437 351E                                          l10701 256E  
                                        l11341 27F4                                          l11325 27B4  
                                        l10621 32FE                                          l11237 1354  
                                        l11245 137A                                          l11229 12F0  
                                        l11181 10F0                                          l11173 10BA  
                                        l11165 1074                                          l11157 104A  
                                        l11149 1004                                          l11261 2E92  
                                        l11253 2E62                                          l10461 299A  
                                        l10453 2978                                          l10525 2B8A  
                                        l10517 2B66                                          l10509 2B32  
                                        l10533 2A4A                                          l11093 2352  
                                        l11085 230A                                          l11077 22B8  
                                        l11069 229A                                          l11319 2486  
                                        l10439 351E                                          l10551 31B0  
                                        l10703 259A                                          l11351 283E  
                                        l11343 2804                                          l11327 27C8  
                                        l10607 3306                                          l10631 302E  
                                        l11247 137E                                          l11239 1364  
                                        l11191 1152                                          l11183 10FC  
                                        l11175 10C6                                          l11167 108A  
                                        l11271 2EBE                                          l11263 2E98  
                                        l11255 2E74                                          l10471 29C8  
                                        l10463 299E                                          l10455 2980  
                                        l10519 2B6C                                          l10543 3434  
                                        l10535 2A54                                          l10711 339E  
                                        l11087 2316                                          l11095 2356  
                                        l11079 22D0                                          l11281 237A  
                                        l10553 31F2                                          l11361 287A  
                                        l11353 284A                                          l11345 2812  
                                        l11337 27E8                                          l11329 27CC  
                                        l10609 3316                                          l10617 32C6  
                                        l10641 3064                                          l10633 303A  
                                        l11193 115E                                          l11185 110C  
                                        l11177 10D4                                          l11169 1096  
                                        l11265 2EAE                                          l11257 2E7C  
                                        l10721 2BB6                                          l10481 29FC  
                                        l10473 29D6                                          l10465 29A6  
                                        l10457 2984                                          l10449 2966  
                                        l10545 3442                                          l10537 2A70  
                                        l10529 2A2A                                          l10561 1CD4  
                                        l10801 2EF4                                          l10713 33BE  
                                        l11097 2358                                          l11089 232E  
                                        l11291 23C0                                          l11283 2380  
                                        l10547 3198                                          l11363 2886  
                                        l11355 2856                                          l11347 281E  
                                        l11339 27F2                                          l10619 32D6  
                                        l10643 306E                                          l10635 3048  
                                        l10627 300E                                          l11195 117A  
                                        l11187 1126                                          l11179 10E0  
                                        l11267 2EB6                                          l11259 2E84  
                                        l10651 314A                                          l10723 2BBA  
                                        l12411 3418                                          l10483 2A02  
                                        l10475 29DC                                          l10467 29B8  
                                        l10459 2992                                          l10539 2AA2  
                                        l10571 1D30                                          l10563 1CE2  
                                        l10811 2F22                                          l10803 2EFC  
                                        l10707 3386                                          l11099 2894  
                                        l10821 26C4                                          l10901 21E6  
                                        l11293 23D8                                          l11285 2384  
                                        l10549 31A8                                          l11357 2862  
                                        l11349 2838                                          l10637 304A  
                                        l10645 3072                                          l10629 301E  
                                        l11197 11A4                                          l11189 1136  
                                        l11269 2EB8                                          l10653 3152  
                                        l10661 2DE2                                          l10725 2BCE  
                                        l10717 2B94                                          l12405 33FC  
                                        l10477 29F2                                          l10469 29C0  
                                        l10485 2A08                                          l10493 2AE4  
                                        l10581 1DCA                                          l10573 1D48  
                                        l10565 1CE6                                          l10557 1CA4  
                                        l10741 3292                                          l12421 310E  
                                        l12413 30DC                                          l10813 2F24  
                                        l10709 3396                                          l12501 0080  
                                        l10831 2714                                          l10903 21F4  
                                        l11295 23DE                                          l11287 239C  
                                        l11279 236A                                          l11359 286E  
                                        l10751 34F4                                          l10639 3058  
                                        l11199 11DA                                          l10655 3194  
                                        l10663 2DE8                                          l10671 2E30  
                                        l10727 2BFA                                          l10719 2BA4  
                                        l12407 3408                                          l10487 2A18  
                                        l10479 29FA                                          l10495 2AE8  
                                        l10591 1E22                                          l10583 1DDC  
                                        l10575 1D62                                          l10567 1CF4  
                                        l10559 1CC8                                          l10743 329A  
                                        l12423 311C                                          l12415 30DC  
                                        l10815 2F36                                          l12431 1EA2  
                                        l10911 3558                                          l12511 00F8  
                                        l12503 0098                                          l10841 273E  
                                        l10833 2718                                          l10825 26D8  
                                        l10905 21F6                                          l11297 23F6  
                                        l11289 23A8                                          l10753 3502  
                                        l10649 313A                                          l10665 2DFA  
                                        l10673 2E56                                          l10729 2BFE  
                                        l12409 3414                                          l10489 2A20  
                                        l10497 2AF6                                          l10593 1E40  
                                        l10585 1DEC                                          l10577 1D7A  
                                        l10569 1D12                                          l10681 325E  
                                        l10745 32A2                                          l12417 30EE  
                                        l12441 1F06                                          l12433 1EEA  
                                        l10913 355C                                          l10921 34DA  
                                        l12601 0450                                          l12521 0136  
                                        l12513 0102                                          l12505 00B0  
                                        l10851 2766                                          l10843 2748  
                                        l10835 2726                                          l10827 2702  
                                        l10819 26AE                                          l11299 23FE  
                                        l10691 24C0                                          l10763 33C4  
                                        l10755 3508                                          l10667 2E0C  
                                        l10659 2DE2                                          l10499 2AFE  
                                        l10587 1DFC                                          l10595 1E42  
                                        l10579 1DAE                                          l10683 327C  
                                        l10747 32B6                                          l10739 3286  
                                        l12419 30F2                                          l12451 1F46  
                                        l12443 1F18                                          l12435 1EF0  
                                        l12427 1E8E                                          l12603 0452  
                                        l12611 0480                                          l12531 018E  
                                        l12523 014E                                          l12515 010E  
                                        l12507 00C8                                          l10853 2772  
                                        l10845 2752                                          l10829 2704  
                                        l10933 2C32                                          l10693 24C8  
                                        l10765 33D6                                          l10757 3516  
                                        l10781 2D86                                          l10773 2D58  
                                        l10669 2E1E                                          l10589 1E0C  
                                        l10597 1E58                                          l10677 3242  
                                        l12453 1F52                                          l12445 1F24  
                                        l12429 1E9A                                          l10909 3548  
                                        l10917 34C6                                          l10925 3498  
                                        l12621 04D0                                          l12613 0494  
                                        l12605 045C                                          l12533 019A  
                                        l12525 0166                                          l12517 0112  
                                        l12509 00E0                                          l12701 0796  
                                        l10855 2782                                          l10871 20D0  
                                        l10863 2056                                          l10935 2C4A  
                                        l10695 251E                                          l10687 248C  
                                        l10767 33D8                                          l10759 351A  
                                        l10783 2D9C                                          l10775 2D58  
                                        l10679 324E                                          l10791 2ECE  
                                        l12463 1F9C                                          l12455 1F6A  
                                        l12447 1F3E                                          l10919 34D6  
                                        l10927 34A8                                          l12623 04D4  
                                        l12615 04A6                                          l12607 0474  
                                        l12631 04F4                                          l12551 0250  
                                        l12535 01AE                                          l12527 016E  
                                        l12519 011E                                          l12543 01D2  
                                        l12703 07AA                                          l10857 2792  
                                        l10881 212A                                          l10865 2066  
                                        l10689 24A0                                          l10769 33E8  
                                        l10785 2DAC                                          l10777 2D60  
                                        l12801 17A2                                          l10793 2EDE  
                                        l12465 1FAE                                          l12473 1FD6  
                                        l12457 1F84                                          l12449 1F42  
                                        l10929 34AC                                          l12633 050A  
                                        l12617 04A8                                          l12625 04DC  
                                        l12609 047A                                          l12561 029C  
                                        l12553 025C                                          l12545 01E8  
                                        l12537 01BA                                          l12529 017A  
                                        l12641 054A                                          l12721 0820  
                                        l12713 07F2                                          l12705 07B4  
                                        l10859 27A2                                          l10891 218E  
                                        l10883 212C                                          l10875 20E4  
                                        l10867 2074                                          l10787 2DC2  
                                        l10779 2D76                                          l12811 182E  
                                        l12803 17AA                                          l10795 2EEE  
                                        l12491 2036                                          l12483 1FFE  
                                        l12475 1FDA                                          l12467 1FBA  
                                        l12459 1F88                                          l12635 0518  
                                        l12619 04B8                                          l12571 02D2  
                                        l12555 0270                                          l12547 0200  
                                        l12643 0578                                          l12731 08AC  
                                        l12723 0828                                          l12707 07D0  
                                        l12651 05CA                                          l10893 21AC  
                                        l10885 2138                                          l10877 20EC  
                                        l10869 20BA                                          l10789 2DCA  
                                        l12821 1894                                          l12813 184A  
                                        l12805 17B6                                          l12485 2016  
                                        l12477 1FE6                                          l12469 1FD0  
                                        l12493 203E                                          l12637 0522  
                                        l12581 0372                                          l12573 02DE  
                                        l12557 027C                                          l12549 0248  
                                        l12741 0922                                          l12733 08C8  
                                        l12725 0834                                          l12709 07E4  
                                        l12661 0638                                          l12653 05E2  
                                        l12645 058C                                          l10895 21AE  
                                        l10887 2174                                          l10879 20F8  
                                        l12831 1914                                          l12823 18A4  
                                        l12815 185E                                          l12807 17CE  
                                        l12479 1FEA                                          l12495 204E  
                                        l12639 052E                                          l12591 0414  
                                        l12583 0386                                          l12575 02F6  
                                        l12559 0290                                          l12567 02B4  
                                        l12751 09A4                                          l12743 096A  
                                        l12735 08DC                                          l12727 084C  
                                        l12719 080A                                          l12671 0694  
                                        l12663 0644                                          l12655 05FA  
                                        l12647 05A6                                          l12911 1A9A  
                                        l10897 21B2                                          l10889 2180  
                                        l12841 1962                                          l12833 1926  
                                        l12825 18EC                                          l12817 1876  
                                        l12809 17DC                                          l12489 201C  
                                        l12593 041C                                          l12585 039E  
                                        l12577 0304                                          l12569 02CA  
                                        l12497 005A                                          l12761 09E0  
                                        l12753 09AE                                          l12745 0972  
                                        l12737 08F4                                          l12729 085A  
                                        l12681 06EE                                          l12673 06A0  
                                        l12665 065C                                          l12657 0612  
                                        l12649 05B2                                          l12921 1AAC  
                                        l12913 1A9C                                          l12905 1A82  
                                        l10899 21D6                                          l12851 19AC  
                                        l12843 1968                                          l12835 193E  
                                        l12827 18F4                                          l10995 3076  
                                        l12595 0428                                          l12587 03BC  
                                        l12579 0356                                          l12499 0074  
                                        l12763 09EA                                          l12755 09B4  
                                        l12747 097E                                          l12739 0912  
                                        l12675 06B4                                          l12667 0674  
                                        l12691 0714                                          l12659 062A  
                                        l12931 1B06                                          l12923 1AB6  
                                        l12915 1AA0                                          l12907 1A86  
                                        l12853 19AE                                          l12861 19E2  
                                        l12837 1940                                          l12845 196E  
                                        l12829 1900                                          l10997 3086  
                                        l12597 042A                                          l12589 03CC  
                                        l12781 0A48                                          l12765 09EE  
                                        l12749 0992                                          l12757 09BA  
                                        l12773 0A0E                                          l12693 072A  
                                        l12685 06FC                                          l12677 06BE  
                                        l12669 068C                                          l12941 1B54  
                                        l12933 1B12                                          l12925 1AD0  
                                        l12917 1AA2                                          l12909 1A88  
                                        l12871 1A1E                                          l12855 19C0  
                                        l12847 1982                                          l12839 194C  
                                        l12791 1750                                          l10999 308E  
                                        l12599 043E                                          l12775 0A24  
                                        l12759 09CE                                          l12767 09F6  
                                        l12695 073A                                          l12679 06DA  
                                        l12783 0A64                                          l12951 1BAC  
                                        l12943 1B58                                          l12935 1B16  
                                        l12927 1AD8                                          l12919 1AA4  
                                        l12873 1A28                                          l12857 19D6  
                                        l12849 1994                                          l12793 1768  
                                        l12777 0A32                                          l12697 0782  
                                        l12785 0A92                                          l12961 1BFA  
                                        l12953 1BC4                                          l12945 1B64  
                                        l12937 1B2E                                          l12929 1AF0  
                                        l12875 1A34                                          l12859 19DA  
                                        l12867 19FA                                          l12795 1780  
                                        l12787 172A                                          l12779 0A3C  
                                        l12699 078A                                          l12971 1C4A  
                                        l12963 1C06                                          l12955 1BCE  
                                        l12947 1B7C                                          l12939 1B48  
                                        l12869 1A10                                          l12877 1A50  
                                        l12797 1798                                          l12789 1744  
                                        l12965 1C1E                                          l12957 1BDA  
                                        l12949 1B94                                          l12879 1A6E  
                                        l12975 1C52                                          l12967 1C26  
                                        l12959 1BF2                                          l12977 1C5E  
                                        l12969 1C32                                          l12979 1C7A  
                                ___fltol@sign1 0043                                __end_of___fladd 0F66  
                                        ?_main 0001                                __end_of___fldiv 172A  
                              __end_of___awdiv 2A2A                                          STR_10 FE5F  
                                        STR_11 FE30                                          STR_20 FF02  
                                        STR_12 FEEF                                          STR_21 FFF4  
                                        STR_13 FE13                                          STR_22 FFED  
                                        STR_30 FF75                                          STR_14 FF5F  
                                        STR_31 FFBD                                          STR_15 FF35  
                                        STR_23 FEB5                                          STR_40 FFE4  
                                        STR_24 FFE4                                          STR_32 FF25  
                                        STR_16 FE8C                                ?_interrupt_high 0001  
                                        STR_41 FFD1                                          STR_25 FFD1  
                                        STR_33 FF52                                          STR_17 FE76  
                                        STR_42 FFB3                                          STR_50 FF44  
                                        STR_26 FFB3                                          STR_34 FF44  
                                        STR_18 FEDC                                          STR_43 FF80  
                                        STR_51 FFBD                                          STR_35 FFBD  
                                        STR_27 FF80                                          STR_19 FEC9  
                                        STR_44 FFBD                                          STR_60 FDF5  
                                        STR_52 FDF5                                          STR_28 FFBD  
                                        STR_36 FDF5                                __end_of___awmod 2B94  
                                        STR_45 FFA9                                          STR_37 FFF4  
                                        STR_29 FFA9                                          STR_53 FEA1  
                                        STR_61 FE48                                          STR_46 FF75  
                                        STR_38 FFED                                          STR_54 FFDB  
                                        STR_55 FFBD                                          STR_47 FFBD  
                                        STR_39 FEB5                                          STR_56 FF25  
                                        STR_48 FF25                                          STR_57 FF52  
                                        STR_49 FF52                                          STR_58 FF44  
                                        STR_59 FFBD                                __end_of___flmul 1390  
                              __end_of___fltol 27B4                                          _ANSEL 0F7E  
                                        u10100 1F02                                          u10101 1EFE  
                                        u10110 1F18                                          u10111 1F14  
                                        u10120 1F98                                          u10200 0290  
                                        u10121 1F94                                          u10201 028C  
                                        u10130 1FFA                                          u10210 02B0  
                                        u10131 1FF6                                          u10211 02AC  
                                        u10140 204E                                          u10220 02C6  
                                        u10300 06B4                                          u10141 204A  
                                        u10221 02C2                                          u10301 06B0  
                                        u10230 043E                                          u10150 018E  
                                        u10310 06EE                                          u10231 043A  
                                        u10151 018A                                          u10311 06EA  
                                        u10080 3432                                          u10240 0450  
                                        u10160 01AE                                          u10400 09CE  
                                        u10320 0710                                          u10081 342E  
                                        u10241 044C                                          u10161 01AA  
                                        u10401 09CA                                          u10321 070C  
                                        u10090 30EE                                          u10250 0494  
                                        u10170 01CE                                          u10410 09E0  
                                        u10330 0726                                          u10091 30EA  
                                        u10251 0490                                          u10171 01CA  
                                        u10411 09DC                                          u10331 0722  
                                        u10500 1A0C                                          u10260 04A6  
                                        u10180 01E4                                          u10420 0A0A  
                                        u10340 07AA                                          u10501 1A08  
                                        u10261 04A2                                          u10181 01E0  
                                        u10421 0A06                                          u10341 07A6  
                                        u10510 1A80                                          u10270 04F0  
                                        u10190 0270                                          u10430 0A20  
                                        u10350 07E4                                          u10511 1A7C  
                                        u10271 04EC                                          u10191 026C  
                                        u10431 0A1C                                          u10351 07E0  
                  ??_MSSP_I2C_Master_Send_Stop 0005                                          u10280 0506  
                                        u10440 0AA4                                          u10360 0806  
                                        _T0CON 0FD5                                          u10281 0502  
                                        u10441 0AA0                                          u10361 0802  
                                        u10450 1914                                          u10290 058A  
                                        u10370 081C                                          u10451 1910  
                                        u10291 0586                                          u10371 0818  
                                        u10460 1926                                          u10380 0992  
                              ___awdiv@divisor 0006                                          u10461 1922  
                                        u10381 098E                                          u10470 1982  
                                        u10390 09A4                                          u10471 197E  
                                        u10607 0A2A                                          u10391 09A0  
                                        u10480 1994                                          _T1CON 0FCD  
                                        u10481 1990                                          u10617 03A8  
                                        u10490 19F6                                          u10491 19F2  
                                        u10707 1880                                          u10627 0454  
                                        u10547 1AC0                                          u10717 1930  
                                        u10637 0468                                          u10557 1AFA  
                                        u10807 2DB6                                          u10727 1942  
                                        u10647 04AE                                          u10567 1B38  
                                        _T2CON 0FCA                                          u10817 2DD4  
                                        u10737 1956                                          u10657 04C4  
                                        u10577 06C8                       ??_ecu_led_initialization 000C  
                                        u10827 3040                                          u10747 199E  
                                        u10667 0510                                          u10587 07BE  
                                        u10837 280A                                          u10757 19B4  
                                        u10677 28E6                                          u10597 08FE  
                                        u10847 2824                                          u10767 19CA  
                                        u10687 22DA                                          _T3CON 0FB1  
                                        u10857 283A                                          u10777 1A16  
                                        u10697 2338                                          u10867 352E  
                                        u10787 2D6A                                          u10797 2D90  
                              __end_of___lwdiv 2ECE                                          i1l629 0046  
                                        i2l622 358E                                ___awdiv@counter 0008  
                                        _RCREG 0FAE                                          _RCSTA 0FAB  
                                 vfpfcnvrt@fmt 000F                                          _TMR0H 0FD7  
                                        _TMR1H 0FCF                                          _TMR0L 0FD6  
                                        _TMR1L 0FCE                                          _TMR3H 0FB3  
                                        _TMR3L 0FB2                                          _SPBRG 0FAF  
                                        _PORTA 0F80                                          _PORTB 0F81  
                                        _PORTC 0F82                                          _PORTD 0F83  
                                        _PORTE 0F84                                          _TRISA 0F92  
                                        _TRISB 0F93                                          _TRISC 0F94  
                                        _TRISD 0F95                                          _TRISE 0F96  
                                        _TXREG 0FAD                                          _TXSTA 0FAC  
                       __end_of_check_password 236A                                          _lg2_h FDB1  
                                        _lg2_l FDAD                                          _flag4 00F8  
                                        _flag5 00F7                                          _flag6 00F6  
                                        _flag7 00F5                                          _flags 00C2  
                  send_4bits_set_cursor@column 0014                                          _errno 008C  
                                        _ivln2 FDA1                                          _fputc 2A2A  
                                        _inter 004E                                          _place 004F  
                              __end_of_ivln2_h FDED                                __end_of_ivln2_l FDA1  
                                        _two24 FDE5                                          _motor 00FE  
                                        _width 008E                                          _putch 3668  
                                        tablat 0FF5                                          ttemp5 005C  
                                        ttemp6 005F                                          ttemp7 0063  
                                        status 0FD8                           _MSSP_I2C_Send_1_Byte 2D56  
                                        wtemp8 005C                                __end_of_sprintf 32C6  
      ecu_lcd_4_bits_send_char_data_pos@column 0018                                __initialization 2CC8  
       MSSP_I2C_Master_Write_Blocking@i2c_data 0005                                   __end_of_cp_h FDF5  
                                 __end_of_cp_l FDF1                                   __end_of_dp_h FD95  
                                 __end_of_dp_l FD8D                                   __end_of_main 1CA4  
                        ?_gpio_pin_write_logic 0004                            ecu_led_toggle@F3749 00CA  
                  ecu_led_initialization@F3734 00CD                                         ??_main 0048  
                        _Timer0_interrrupt_ptr 0098                              _send_4bits_enable 351E  
                                __activetblptr 0003                             ?_send_4bits_enable 000C  
                              ?_check_password 0001                           _ecu_motor_move_right 34C6  
            _EUSART_DefaultFramingErrorHandler 0000                                         _ADCON0 0FC2  
                                       _ADCON1 0FC1                                         _ADCON2 0FC0  
               ecu_led_initialization@mid_term 000D                     _EUSART_OverrunErrorHandler 0131  
                                       ?_fputc 0004                                         _ADRESH 0FC4  
                                       _ADRESL 0FC3                                         _CCPR1H 0FBF  
                                       _CCPR1L 0FBE                               ___awdiv@dividend 0004  
                                       ?_putch 0001                                         _ANSELH 0F7F  
                 ??_MSSP_I2C_Master_Send_Start 0005                            ??_send_4bits_enable 000D  
                                       i1l1835 3618                         _INT0_CALL_BACK_HANDLER 00B8  
                                       i1l8321 3614                                         i2l1835 3626  
                                       i1l8317 360C                                         i1l8319 360E  
                                       i1l9331 0042                                         i1l9327 0026  
                                       i1l9329 0034                                         i2l9321 356E  
                                       i2l9323 357C                                         i2l9325 358A  
                                       i2l8953 361A                                         i2l8955 361C  
                                       i2l8957 3622                                         _OSCCON 0FD3  
                                vfpfcnvrt@done 0013                          ?_MSSP_I2C_Send_1_Byte 0009  
                                       _SPBRGH 0FB0                      _MSSP_I2C_Master_Send_Stop 32C6  
                                       _SSPADD 0FC8                                         _SSPBUF 0FC9  
                             __end_of___xxtofl 2208                     ??_ecu_motor_initialization 000C  
                        __end_of_MSSP_I2C_Init 248C   __end_of_I2C_Master_Mode_Clock_Configurations 2CC8  
       ??_I2C_Master_Mode_Clock_Configurations 0046          ?_I2C_Master_Mode_Clock_Configurations 0045  
         _I2C_Master_Mode_Clock_Configurations 2C32                                   vfprintf@cfmt 001F  
              ??_ecu_lcd_4_bits_send_char_data 0011                                      ??___fladd 0033  
                                    ??___fldiv 001A                                      ??___awdiv 0008  
                                    ??___awmod 0008                                      ??___flmul 001A  
                                    ??___fltol 003F                                         _garage 172A  
                                       _device 004C                                      ??___lwdiv 0008  
                                       _astrik 00D7                      __end_of_send_4bits_enable 3548  
                                       _memset 33FC                                         clear_0 2D2E  
                                       clear_1 2D3A                                         clear_2 2D46  
                             ___awdiv@quotient 000A                                ___awmod@divisor 0006  
                                       isa$std 0001                                         _room_1 005A  
                                       _room_2 058C                                ___awmod@counter 0008  
  _I2C_Report_Receive_Overflow_InterruptHandle 00BA                                         fputc@c 0004  
                          _I2C_DO_ADDRESS_NACK 0000                                   __pdataCOMRAM 0054  
                                 __mediumconst FD54                                         tblptrh 0FF7  
                                       tblptrl 0FF6                                         tblptru 0FF8  
                        ?_ecu_motor_move_right 000C                       ADC_GetConversion@channel 0008  
                                       putch@c 0001                          _Timer2_interrrupt_ptr 0094  
                             __end_of_vfprintf 3286                                      ??_sprintf 0029  
                                 ___xxtofl@arg 000E                                   ___xxtofl@exp 000D  
                            _SYSTEM_Initialize 35CC                                   ___xxtofl@val 0004  
                                   __accesstop 0060                        __end_of__initialization 2D4C  
                __end_of_send_4bits_set_cursor 2E5A                             ?_SYSTEM_Initialize 0001  
                        _SPI_INTERRUPT_HANDLER 009A                                  ___rparam_used 0001  
                                   ___fltol@f1 003B               ??_MSSP_I2C_Master_Write_Blocking 0007  
              ?_MSSP_I2C_Master_Write_Blocking 0004                        _rdBlkRegCompleteHandler 0000  
                       ??_gpio_pin_write_logic 0006                                  ?i2_ISR_TIMER0 0001  
                               __pcstackCOMRAM 0001                         _MSSP_I2C_Mode_GPIO_CFG 3662  
           MSSP_I2C_Master_Write_Blocking@_ack 0006                     _I2C_DefaultInterruptHandle 00BC  
                                 __pidataBANK0 3592                                   __pidataBANK1 3628  
                       _I2C_CallbackReturnStop 0000                                  __end_of_lg2_h FDB5  
                                __end_of_lg2_l FDB1                            ??_SYSTEM_Initialize 0006  
        MSSP_I2C_Master_Write_Blocking@i2c_obj 0004                                  __end_of_ivln2 FDA5  
                                __end_of_fputc 2AE4                                  __end_of_two24 FDE9  
                                __end_of_putch 366A                                     __end_of_L1 FDE5  
                                   __end_of_L2 FDE1                                     __end_of_L3 FDDD  
                                   __end_of_L4 FDD9                                     __end_of_L5 FDD5  
                                   __end_of_L6 FDD1                                     __end_of_P1 FDCD  
                                   __end_of_P2 FDC9                                     __end_of_P3 FDC5  
                                   __end_of_P4 FDC1                                     __end_of_P5 FDBD  
                                   __end_of_bp FD9D                                     __end_of_cp FDA9  
                MSSP_I2C_Master_Send_Start@ret 0005                ??_EUSART_SetOverrunErrorHandler 0006  
                     ?_send_4bits_data_command 000C                                        ??_fputc 0007  
                    __end_of_SYSTEM_Initialize 35E2                                        ??_putch 0004  
                       ??_MSSP_I2C_Send_1_Byte 000A                                     __pbssBANK0 0060  
                                   __pbssBANK1 0100                         _ecu_led_initialization 3076  
                          _I2C_DO_RX_NACK_STOP 0000                          _rd1RegCompleteHandler 0000  
                          _saved_preload_value 0096                                 ??i2_ISR_TIMER0 0001  
                        _wr1RegCompleteHandler 0000         ecu_lcd_4_bits_send_string_data_pos@lcd 0015  
                                 ??_ISR_TIMER0 0001         ecu_lcd_4_bits_send_string_data_pos@row 0018  
       ecu_lcd_4_bits_send_string_data_pos@str 0016             ecu_lcd_4_bits_send_command@command 0010  
                              _I2C_DO_TX_EMPTY 0000                               ??_interrupt_high 0001  
                              arr_compare@arr1 0004                                arr_compare@arr2 0005  
                                   _ecu_led_on 2F3A              MSSP_I2C_Master_Write_Blocking@ret 0008  
                                      ?_garage 0001            __end_of_ecu_lcd_4_bits_send_command 31F6  
                  _ecu_lcd_4_bits_send_command 3198                                        _CCP1CON 0FBD  
                                      _ECCP1AS 0FB6                                        _BAUDCON 0FB8  
                                      ?_memset 0004                                        ?_room_1 0001  
                                      ?_room_2 0001          __end_of_ecu_lcd_4_bits_send_char_data 3198  
                _ecu_lcd_4_bits_send_char_data 313A                                _master_rec_data 00C8  
                       ??_ecu_motor_move_right 000D                                      ?___xxtofl 0004  
                            arr_compare@length 0006                  ??_ecu_lcd_4_bits_send_command 0011  
                                   _fire_check 2894                                        _OSCTUNE 0F9B  
                                      _PWM1CON 0FB7             __end_of_MSSP_I2C_Master_Send_Start 3346  
                   _MSSP_I2C_Master_Send_Start 3306                                        _PSTRCON 0FB9  
                     ??_EUSART_SetErrorHandler 0006                                        _SSPCON1 0FC6  
                                      _SSPCON2 0FC5                                        _SSPSTAT 0FC7  
                           __end_of_ISR_TIMER0 361A                                      _I2C_DO_RX 0000  
                                    _I2C_DO_TX 0000               __end_of_ecu_motor_initialization 356E  
              ??_I2C_Slave_Mode_Configurations 0005                                        _i2c_obj 00D0  
                         _ADC_InterruptHandler 00A0                                        __Hparam 0000  
                                      __Lparam 0000                                        ___fladd 0AA6  
                                      ___fldiv 1390                                        ___awdiv 2966  
                                      ___awmod 2AE4                                        ___flmul 0F66  
                                      ___fltol 26AE                                        ___lwdiv 2E5A  
                                    ?_vfprintf 001B                                _read_irritation 0051  
                                      __pcinit 2CC8                                 _I2C_Initialize 35F8  
                                      __ramtop 1000                                        __ptext0 1A82  
                                      __ptext1 058C                                        __ptext2 005A  
                                      __ptext3 2894                                        __ptext4 3498  
                                      __ptext5 34C6                                        __ptext6 3548  
                                      __ptext7 2F3A                                        __ptext8 2FA4  
                                      __ptext9 3076                               ??_check_password 001A  
                               _valid_password 00F9                              __end_of_home_page 2054  
                                    _T0CONbits 0FD5                                      _T1CONbits 0FCD  
                                      _lat_reg 00E1                          _OSCILLATOR_Initialize 3632  
                                    _T2CONbits 0FCA                                        _t_check 0084  
                                      _ivln2_h FDE9                                        _ivln2_l FD9D  
                               ecu_led_off@led 000C                                     ??___xxtofl 0008  
                                    _T3CONbits 0FB1                               ___awmod@dividend 0004  
                     ??_PIN_MANAGER_Initialize 0004                                        _rbx_arr 0088  
             MSSP_I2C_Master_Send_Stop@i2c_obj 0004                                        _sprintf 3286  
                               __pintcode_body 356E                           end_of_initialization 2D4C  
         ecu_lcd_4_bits_initialization@counter 0014           ecu_lcd_4_bits_send_char_data_pos@lcd 0015  
         ecu_lcd_4_bits_send_char_data_pos@ret 0019           ecu_lcd_4_bits_send_char_data_pos@row 0017  
        __end_of_EUSART_SetOverrunErrorHandler 3646                  _EUSART_SetOverrunErrorHandler 363C  
                                      fputc@fp 0006                                        memset@c 0006  
                                      memset@n 0008                                        memset@p 000A  
                                      int_func 356E       ecu_lcd_conver_16_bits_to_string@char_arr 0036  
                                  room_1@F4177 00C5                              _EUSART_Initialize 3346  
                                  room_2@F4184 00C4                                     garage@room 0136  
                                   garage@stat 0135                             ?_EUSART_Initialize 0001  
                            __end_of_vfpfcnvrt 1E8E                                      _RCSTAbits 0FAB  
                                      postdec1 0FE5                                        postdec2 0FDD  
                                      postinc0 0FEE                                        postinc1 0FE6  
                                      postinc2 0FDE                                    ?_ecu_led_on 000C  
                             vfpfcnvrt@convarg 0016                         __end_of_I2C_Initialize 360C  
                                   ??_vfprintf 001F                                  ??_ecu_led_off 000D  
                                _interrupt_low 0018                            ??_EUSART_Initialize 0006  
                                    _PORTBbits 0F81          ecu_lcd_4_bits_send_char_data_pos@data 0016  
                                   _return_val 00C6                                    ___fladd@grs 003A  
                                ___xxtofl@sign 000C                                      _TRISCbits 0F94  
               ?_ecu_lcd_4_bits_send_char_data 000F                                    ?_fire_check 0001  
                         __end_ofi2_ISR_TIMER0 3628                                    ___fldiv@grs 0025  
                                  ___fldiv@rem 001E                               _CCP1_ptr_handler 00C0  
                    MSSP_I2C_Send_1_Byte@_data 0009                         _INT1_CALL_BACK_HANDLER 00B6  
                                  ___flmul@grs 0020                      __end_of_EUSART_Initialize 3386  
                                  _I2C_DO_IDLE 0000                                    _I2C_DO_RCEN 0000  
                                  _CCP1CONbits 0FBD                                      _TXSTAbits 0FAC  
                      ?_MSSP_I2C_Mode_GPIO_CFG 0001                                  ??_arr_compare 0007  
             ecu_lcd_4_bits_send_char_data@lcd 000F               ecu_lcd_4_bits_send_char_data@ret 0011  
                     _I2C_DO_SEND_RESTART_READ 0000      __end_of_ecu_lcd_4_bits_send_char_data_pos 33C2  
          ??_ecu_lcd_4_bits_send_char_data_pos 0019             ?_ecu_lcd_4_bits_send_char_data_pos 0015  
            _ecu_lcd_4_bits_send_char_data_pos 3386          __end_of_I2C_Slave_Mode_Configurations 35CC  
                _I2C_Slave_Mode_Configurations 35B2                                ?_I2C_Initialize 0001  
                      _I2C_CallbackReturnReset 0000                                 ?_interrupt_low 0001  
                   _EUSART_DefaultErrorHandler 0000                                    vfpfcnvrt@ap 0010  
                                  vfpfcnvrt@cp 0014                                    vfpfcnvrt@fp 000E  
                                __pidataCOMRAM 365A                                 __end_of_garage 1A82  
                               _ecu_motor_stop 3498                                 _ADC_Initialize 35E2  
                       ?_OSCILLATOR_Initialize 0001                                 __end_of_memset 3434  
                    ?_ecu_motor_initialization 000B                                 __end_of_room_1 058C  
                               __end_of_room_2 0AA6                            start_initialization 2CC8  
                          __end_of_ecu_led_off 300E                                    __end_of_lg2 FDB9  
                                  __end_of_abs 3468                                    __end_of_arr FD85  
                                  __end_of_ovt FDAD                                  ??_EUSART_Read 0004  
                          _password_irritation 00C7                        ?_ecu_led_initialization 000B  
               __end_of_MSSP_I2C_Mode_GPIO_CFG 3668                         _I2C_DO_RX_NACK_RESTART 0000  
                                  _ADC_handler 00A2                 ?_EUSART_SetOverrunErrorHandler 0004  
                        _send_4bits_set_cursor 2DE2                             garage@door_status1 0137  
                           garage@door_status2 0138                                    vfprintf@fmt 001C  
                   _EUSART_FramingErrorHandler 0133                         _EUSART_SetErrorHandler 3650  
                                     ??_garage 0045                         __end_of_ecu_motor_stop 34C6  
                          __end_of_arr_compare 2F3A                         __end_of_ADC_Initialize 35F8  
                                  __pdataBANK0 00E1                                    __pdataBANK1 0125  
  gpio_pin_direction_intialization@_pin_config 0004                                       ??_memset 000A  
                             _I2C_DO_SEND_STOP 0000                                     memset@dest 0004  
                                     ??_room_1 0045                                       ??_room_2 0045  
                                    ___fladd@a 002F                                      ___fladd@b 002B  
                            _i2c_fsmStateTable FD55                           MSSP_I2C_Init@i2c_obj 0047  
                                    ___fldiv@a 0016                                      ___fldiv@b 0012  
                        _I2C_DO_SEND_ADR_WRITE 0000                                      ___flmul@a 0016  
                                    ___flmul@b 0012                                    __pbssCOMRAM 004A  
  _I2C_Report_Write_Collision_InterruptHandler 00BE                                  __pcstackBANK1 0135  
             _RBX_CALL_BACK_HANDLER2_FALLING_4 00B0               _RBX_CALL_BACK_HANDLER2_FALLING_5 00AC  
             _RBX_CALL_BACK_HANDLER2_FALLING_6 00A8               _RBX_CALL_BACK_HANDLER2_FALLING_7 00A4  
               __end_of_ecu_led_initialization 30DC                    ?_MSSP_I2C_Master_Send_Start 0004  
                           room_1@door_status1 0136                             room_1@door_status2 0137  
                    _I2C_DO_SEND_RESTART_WRITE 0000               _saved_preload_value@timer2$F3946 0092  
                          __end_of_EUSART_Read 351E                                      __pnvBANK1 012F  
                        _rd2RegCompleteHandler 0000       __end_of_gpio_pin_direction_intialization 259E  
           ??_gpio_pin_direction_intialization 0005              ?_gpio_pin_direction_intialization 0004  
             _gpio_pin_direction_intialization 248C                ??_ecu_lcd_4_bits_initialization 0013  
                             ___lwdiv@dividend 0004                         _PIN_MANAGER_Initialize 3468  
                                _MSSP_I2C_Init 236A                          _wr2RegCompleteHandler 0000  
                                    __pintcode 0008                                ??_interrupt_low 0001  
                                __pmediumconst FD54                                       ?___fladd 002B  
              gpio_pin_write_logic@_pin_config 0004                                       ?___fldiv 0012  
                                     ?___awdiv 0004                                       ?___awmod 0004  
                                     ?___flmul 0012                                       ?___fltol 003B  
                                     ?___lwdiv 0004                                ?_ecu_motor_stop 000C  
                              ?_ADC_Initialize 0001                                    _ecu_led_off 2FA4  
                                  __pintcodelo 0018                      __end_of_i2c_fsmStateTable FD75  
               ?_I2C_Slave_Mode_Configurations 0004                      gpio_pin_write_logic@logic 0005  
                             ecu_led_off@F3744 00CB                   ecu_motor_move_right@my_motor 000C  
                     send_4bits_set_cursor@lcd 0012                       send_4bits_set_cursor@row 0013  
                          ecu_led_off@mid_term 000E                                      _home_page 1E8E  
                             ___lwdiv@quotient 0009                                       ?_sprintf 0021  
                                ecu_led_on@led 000C         EUSART_SetErrorHandler@interruptHandler 0004  
                                     _IPR1bits 0F9F                                       _PIE1bits 0F9D  
             ecu_motor_initialization@my_motor 000B                         ?_send_4bits_set_cursor 0012  
                            _eusartRxLastError 00C9                                    _arr_compare 2ECE  
                               ?_MSSP_I2C_Init 0047                                       i1u710_20 0034  
                                     i1u710_21 0030                                       i1u711_20 0042  
                                     i1u711_21 003E                                       _PIR1bits 0F9E  
              ??_EUSART_SetFramingErrorHandler 0006                                       _PIR2bits 0FA1  
                                     i2u708_40 357C                                       i2u708_41 3578  
                                     i2u709_40 358A                                       i2u709_41 3586  
                                     _RCONbits 0FD0                                   _new_password 0120  
                                    _slave_ack 0053                                   i2_ISR_TIMER0 361A  
                                 ??_ecu_led_on 000D              _EUSART_DefaultOverrunErrorHandler 0000  
                                   room_1@room 0135                                     room_1@stat 0138  
                                   room_2@room 0135                                     room_2@stat 0138  
         I2C_Slave_Mode_Configurations@i2c_obj 0004                                      _vfpfcnvrt 1CA4  
                                   _ADCON0bits 0FC2    __end_of_ecu_lcd_4_bits_send_string_data_pos 2C32  
        ??_ecu_lcd_4_bits_send_string_data_pos 001A           ?_ecu_lcd_4_bits_send_string_data_pos 0015  
          _ecu_lcd_4_bits_send_string_data_pos 2B94                                   ??_fire_check 001A  
                                   ?_home_page 0001                                    _EUSART_Read 34F4  
                                   vfpfcnvrt@c 001A                        gpio_pin_write_logic@ret 000B  
                                  _INTCON2bits 0FF1                                    _INTCON3bits 0FF0  
                                    copy_data0 2CDC                                      copy_data1 2CFC  
                                    copy_data2 2D1C                             room_2@door_status1 0136  
                           room_2@door_status2 0137                          _lm35_res_1_Celsius_mv 004A  
                           __end_of_ecu_led_on 2FA4                                     _I2C_Status 0060  
                             ??_I2C_Initialize 0004                        _send_4bits_data_command 31F6  
        ecu_lcd_conver_16_bits_to_string@value 0038                                       __Hrparam 0000  
                                   vfprintf@ap 001E                                       __Lrparam 0000  
                                   vfprintf@fp 001B                              _ADC_GetConversion 33C2  
                           __end_of_fire_check 2966                        ??_OSCILLATOR_Initialize 0004  
                          _EUSART_ErrorHandler 012F          __end_of_ecu_lcd_4_bits_initialization 2894  
                _ecu_lcd_4_bits_initialization 27B4                             ?_ADC_GetConversion 0004  
                         _I2C_DO_SEND_ADR_READ 0000                                     ?_vfpfcnvrt 000E  
                   ?_MSSP_I2C_Master_Send_Stop 0004              MSSP_I2C_Master_Send_Start@i2c_obj 0004  
                          ??_ADC_GetConversion 0006                                     sprintf@fmt 0023  
                                     ___xxtofl 2054                                ecu_led_on@F3739 00CC  
          gpio_pin_direction_intialization@ret 000A                                ___lwdiv@divisor 0006  
                              ___lwdiv@counter 0008                                       __ptext10 1E8E  
                                     __ptext11 2208                                       __ptext20 3668  
                                     __ptext12 3386                                       __ptext21 3434  
                                     __ptext13 2ECE                                       __ptext30 2D56  
                                     __ptext22 2AE4                                       __ptext14 172A  
                                     __ptext31 300E                                       __ptext23 2966  
                                     __ptext15 30DC                                       __ptext40 31F6  
                                     __ptext32 32C6                                       __ptext24 33FC  
                                     __ptext16 3286                                       __ptext41 259E  
                                     __ptext33 3306                                       __ptext25 2B94  
                                     __ptext17 3242                                       __ptext50 35E2  
                                     __ptext42 35CC                                       __ptext34 34F4  
                                     __ptext26 2DE2                                       __ptext18 1CA4  
                                     __ptext51 236A                                       __ptext43 3468  
                                     __ptext35 33C2                                       __ptext27 313A  
                                     __ptext19 2A2A                                       __ptext60 360C  
                                     __ptext52 3662                                       __ptext44 3632  
                                     __ptext36 27B4                                       __ptext28 2E5A  
                                     __ptext53 35B2                                       __ptext45 35F8  
                                     __ptext37 248C                                       __ptext29 0F66  
                                     __ptext62 361A                                       __ptext54 2C32  
                                     __ptext46 3346                                       __ptext38 3198  
                                     __ptext55 2054                                       __ptext47 363C  
                                     __ptext39 351E                                       __ptext56 26AE  
                                     __ptext48 3646                                       __ptext57 1390  
                                     __ptext49 3650                                       __ptext58 0AA6  
  I2C_Master_Mode_Clock_Configurations@i2c_obj 0045               ecu_lcd_4_bits_initialization@lcd 0012  
             ecu_lcd_4_bits_initialization@ret 0015                             ecu_led_on@mid_term 000E  
    ecu_lcd_4_bits_send_string_data_pos@column 0019       __end_of_ecu_lcd_conver_16_bits_to_string 313A  
           ??_ecu_lcd_conver_16_bits_to_string 003A              ?_ecu_lcd_conver_16_bits_to_string 0036  
             _ecu_lcd_conver_16_bits_to_string 30DC                         _INT2_CALL_BACK_HANDLER 00B4  
                 MSSP_I2C_Master_Send_Stop@ret 0005                                ??_MSSP_I2C_Init 0048  
                    __end_of_ADC_GetConversion 33FC                        ?_EUSART_SetErrorHandler 0004  
                                     _password 00DC  EUSART_SetOverrunErrorHandler@interruptHandler 0004  
                                     isa$xinst 0000                                       int$flags 005B  
                                     _port_reg 0125                                       _vfprintf 3242  
        __end_of_EUSART_SetFramingErrorHandler 3650                  _EUSART_SetFramingErrorHandler 3646  
                                     _tris_reg 00EB                   ?_ecu_lcd_4_bits_send_command 000F  
            __end_of_MSSP_I2C_Master_Send_Stop 3306                                     _INTCONbits 0FF2  
                                  garage@F4191 00C3                                    ??_home_page 001C  
                 __end_of_gpio_pin_write_logic 26AE                                       intlevel1 0000  
                                     intlevel2 0000                                      sprintf@ap 0029  
                    ??_send_4bits_data_command 000E                        ?_PIN_MANAGER_Initialize 0001  
               __end_of_EUSART_SetErrorHandler 365A                            _I2C_DO_SEND_RESTART 0000  
                             ??_ecu_motor_stop 000D                           arr_compare@itiration 0009  
                             ??_ADC_Initialize 0004                                 _dc_motor_pin_1 00CF  
                               _dc_motor_pin_2 00CE                                     _ISR_TIMER0 360C  
               _RBX_CALL_BACK_HANDLER_RISING_4 00B2                 _RBX_CALL_BACK_HANDLER_RISING_5 00AE  
               _RBX_CALL_BACK_HANDLER_RISING_6 00AA                 _RBX_CALL_BACK_HANDLER_RISING_7 00A6  
EUSART_SetFramingErrorHandler@interruptHandler 0004                       _ecu_motor_initialization 3548  
                                 ?_ecu_led_off 000C                                    ??_vfpfcnvrt 0011  
                 __end_of_MSSP_I2C_Send_1_Byte 2DE2                                       sprintf@f 002A  
               ?_ecu_lcd_4_bits_initialization 0012                                       sprintf@s 0021  
                               _interrupt_high 0008         __end_of_MSSP_I2C_Master_Write_Blocking 3076  
               _MSSP_I2C_Master_Write_Blocking 300E                    send_4bits_data_command@data 000D  
                                  _SSPCON1bits 0FC6                                    _SSPCON2bits 0FC5  
                                ___fladd@signs 0037                              garage@temp_string 0139  
               __end_of_PIN_MANAGER_Initialize 3498                        ??_send_4bits_set_cursor 0015  
               ecu_lcd_4_bits_send_command@lcd 000F                     send_4bits_data_command@lcd 000C  
               ecu_lcd_4_bits_send_command@ret 0011                     send_4bits_data_command@ret 000E  
                                 ___fladd@aexp 0038                                   ___fladd@bexp 0039  
                                 ?_arr_compare 0004                              room_1@temp_string 0139  
                 __end_of_ecu_motor_move_right 34F4                      ecu_led_initialization@led 000B  
